(lp0
VFor Apple Watch will be a first, Fairfax Media news apps http://t.co/jvoCpK9GyD #Apple #iWatch #AppleWatch #apps #FairfaxMedia
p1
aV#Watch #Wearable \u2013 Fairfax Media news apps for Apple Watch will be\u2026 http://t.co/ypd32B5Hrh #Apple #iWatch #AppleWatch #apps #FairfaxMedia
p2
aV#Watch #Wearable \u2013 Fairfax Media news apps for Apple Watch will be\u2026 http://t.co/eu8fbAq4uX #Apple #iWatch #AppleWatch #apps #FairfaxMedia
p3
aVFor Apple Watch will be a first, Fairfax Media news apps http://t.co/3jsAw4L2EI #Apple #iWatch #AppleWatch #apps #FairfaxMedia
p4
aV#Watch #Wearable \u2013 Fairfax Media news apps for Apple Watch will be\u2026 http://t.co/NxFE8dMmyt #Apple #iWatch #AppleWatch #apps #FairfaxMedia
p5
aV#Watch #Wearable \u2013 Fairfax Media news apps for Apple Watch will be\u2026 http://t.co/cVyRDUhM8l #Apple #iWatch #AppleWatch #apps #FairfaxMedia
p6
aV#Watch #Wearable \u2013 Fairfax Media news apps for Apple Watch will be\u2026 http://t.co/QZUIU2NQHf #Apple #iWatch #AppleWatch #apps #FairfaxMedia
p7
aV#Watch #Wearable \u2013 Fairfax Media news apps for Apple Watch will be\u2026 http://t.co/1s0AAhv5Yy #Apple #iWatch #AppleWatch #apps #FairfaxMedia
p8
aV#Watch #Wearable \u2013 Fairfax Media news apps for Apple Watch will be\u2026 http://t.co/N8KULoOXsS #Apple #iWatch #AppleWatch #apps #FairfaxMedia
p9
aVFor Apple Watch will be a first, Fairfax Media news apps http://t.co/z9ZMtSM9Pu #Apple #iWatch #AppleWatch #apps #FairfaxMedia
p10
aV#Watch #Wearable \u2013 Fairfax Media news apps for Apple Watch will be\u2026 http://t.co/ZCKvvDt8xF #Apple #iWatch #AppleWatch #apps #FairfaxMedia
p11
aV#Watch #Wearable \u2013 Fairfax Media news apps for Apple Watch will be\u2026 http://t.co/RnfNEdU9Rn #Apple #iWatch #AppleWatch #apps #FairfaxMedia
p12
aV#Watch #Wearable \u2013 Fairfax Media news apps for Apple Watch will be\u2026 http://t.co/SRC5ruxCVM #Apple #iWatch #AppleWatch #apps #FairfaxMedia
p13
aV#Watch #Wearable \u2013 Fairfax Media news apps for Apple Watch will be\u2026 http://t.co/XdYP00J3Ti #Apple #iWatch #AppleWatch #apps #FairfaxMedia
p14
aV#Watch #Wearable \u2013 Fairfax Media news apps for Apple Watch will be\u2026 http://t.co/yC8EbaqQEO #Apple #iWatch #AppleWatch #apps #FairfaxMedia
p15
aVFor Apple Watch will be a first, Fairfax Media news apps http://t.co/YoRw5oU9wF #Apple #iWatch #AppleWatch #apps #FairfaxMedia
p16
aV#Watch #Wearable \u2013 Fairfax Media news apps for Apple Watch will be\u2026 http://t.co/hpLOwtVU3n #Apple #iWatch #AppleWatch #apps #FairfaxMedia
p17
aV#Watch #Wearable \u2013 Fairfax Media news apps for Apple Watch will be\u2026 http://t.co/VXqqLF55DS #Apple #iWatch #AppleWatch #apps #FairfaxMedia
p18
aV#Watch #Wearable \u2013 Fairfax Media news apps for Apple Watch will be\u2026 http://t.co/DivGhp2oW0 #Apple #iWatch #AppleWatch #apps #FairfaxMedia
p19
aVFor Apple Watch will be a first, Fairfax Media news apps http://t.co/K8JVaGJWjN #Apple #iWatch #AppleWatch #apps #FairfaxMedia
p20
aV#Watch #Wearable \u2013 Fairfax Media news apps for Apple Watch will be\u2026 http://t.co/YCH1yghH8g #Apple #iWatch #AppleWatch #apps #FairfaxMedia
p21
aV#Watch #Wearable \u2013 Fairfax Media news apps for Apple Watch will be\u2026 http://t.co/PAHq3Z97n2 #Apple #iWatch #AppleWatch #apps #FairfaxMedia
p22
aVFor Apple Watch will be a first, Fairfax Media news apps http://t.co/R3F9gwipKe #Apple #iWatch #AppleWatch #apps #FairfaxMedia
p23
aV#Watch #Wearable \u2013 Fairfax Media news apps for Apple Watch will be\u2026 http://t.co/fpK97Q5Cpp #Apple #iWatch #AppleWatch #apps #FairfaxMedia
p24
aV#Watch #Wearable \u2013 Fairfax Media news apps for Apple Watch will be\u2026 http://t.co/6x0mNvFbkh #Apple #iWatch #AppleWatch #apps #FairfaxMedia
p25
aV#Watch #Wearable \u2013 Fairfax Media news apps for Apple Watch will be\u2026 http://t.co/QGLP0CCAo4 #Apple #iWatch #AppleWatch #apps #FairfaxMedia
p26
aV#Watch #Wearable \u2013 Fairfax Media news apps for Apple Watch will be\u2026 http://t.co/nWycgKNNrw #Apple #iWatch #AppleWatch #apps #FairfaxMedia
p27
aV#Watch #Wearable \u2013 Fairfax Media news apps for Apple Watch will be\u2026 http://t.co/iOE82irYlV #Apple #iWatch #AppleWatch #apps #FairfaxMedia
p28
aV#Watch #Wearable \u2013 Fairfax Media news apps for Apple Watch will be\u2026 http://t.co/OGUP1H9SRh #Apple #iWatch #AppleWatch #apps #FairfaxMedia
p29
aV#Watch #Wearable \u2013 Fairfax Media news apps for Apple Watch will be\u2026 http://t.co/Ttj4U5l9tQ #Apple #iWatch #AppleWatch #apps #FairfaxMedia
p30
aV#Watch #Wearable \u2013 Fairfax Media news apps for Apple Watch will be\u2026 http://t.co/IOALw0VAY6 #Apple #iWatch #AppleWatch #apps #FairfaxMedia
p31
aVFor Apple Watch will be a first, Fairfax Media news apps http://t.co/8sTZIdt9vI #Apple #iWatch #AppleWatch #apps #FairfaxMedia
p32
aV#Watch #Wearable \u2013 Fairfax Media news apps for Apple Watch will be\u2026 http://t.co/2EdJ39B4xG #Apple #iWatch #AppleWatch #apps #FairfaxMedia
p33
aV#Watch #Wearable \u2013 Fairfax Media news apps for Apple Watch will be\u2026 http://t.co/DoC7VMoUQG #Apple #iWatch #AppleWatch #apps #FairfaxMedia
p34
aVFor Apple Watch will be a first, Fairfax Media news apps http://t.co/w1yrYBMvQm #Apple #iWatch #AppleWatch #apps #FairfaxMedia
p35
aV#Watch #Wearable \u2013 Fairfax Media news apps for Apple Watch will be\u2026 http://t.co/v0RITbgKzt #Apple #iWatch #AppleWatch #apps #FairfaxMedia
p36
aV#Watch #Wearable \u2013 Fairfax Media news apps for Apple Watch will be\u2026 http://t.co/SQfFMo6AB5 #Apple #iWatch #AppleWatch #apps #FairfaxMedia
p37
aVFor Apple Watch will be a first, Fairfax Media news apps http://t.co/lYvSZ9xc8F #Apple #iWatch #AppleWatch #apps #FairfaxMedia
p38
aV#Watch #Wearable \u2013 Fairfax Media news apps for Apple Watch will be\u2026 http://t.co/aQn6F981yy #Apple #iWatch #AppleWatch #apps #FairfaxMedia
p39
aV#Watch #Wearable \u2013 Fairfax Media news apps for Apple Watch will be\u2026 http://t.co/wOUUYpK1AW #Apple #iWatch #AppleWatch #apps #FairfaxMedia
p40
aV#Watch #Wearable \u2013 Fairfax Media news apps for Apple Watch will be\u2026 http://t.co/KxcSRhYLBC #Apple #iWatch #AppleWatch #apps #FairfaxMedia
p41
aV#Watch #Wearable \u2013 Fairfax Media news apps for Apple Watch will be\u2026 http://t.co/XtrDfEPZNQ #Apple #iWatch #AppleWatch #apps #FairfaxMedia
p42
aVFor Apple Watch will be a first, Fairfax Media news apps http://t.co/QToB11jIas #Apple #iWatch #AppleWatch #apps #FairfaxMedia
p43
aV#Watch #Wearable \u2013 Fairfax Media news apps for Apple Watch will be\u2026 http://t.co/T8Em0JOw6x #Apple #iWatch #AppleWatch #apps #FairfaxMedia
p44
aV#Watch #Wearable \u2013 Fairfax Media news apps for Apple Watch will be\u2026 http://t.co/1OkaOSnM5A #Apple #iWatch #AppleWatch #apps #FairfaxMedia
p45
aV#Watch #Wearable \u2013 Fairfax Media news apps for Apple Watch will be\u2026 http://t.co/b1dXBmIelw #Apple #iWatch #AppleWatch #apps #FairfaxMedia
p46
aV#Watch #Wearable \u2013 Fairfax Media news apps for Apple Watch will be\u2026 http://t.co/WQhz1UZP8e #Apple #iWatch #AppleWatch #apps #FairfaxMedia
p47
aV#Watch #Wearable \u2013 Fairfax Media news apps for Apple Watch will be\u2026 http://t.co/9MYsZDdW5E #Apple #iWatch #AppleWatch #apps #FairfaxMedia
p48
aV#Watch #Wearable \u2013 Fairfax Media news apps for Apple Watch will be\u2026 http://t.co/b4D25ShNbn #Apple #iWatch #AppleWatch #apps #FairfaxMedia
p49
aVFor Apple Watch will be a first, Fairfax Media news apps http://t.co/XULqr9tBgX #Apple #iWatch #AppleWatch #apps #FairfaxMedia
p50
aV#Watch #Wearable \u2013 Fairfax Media news apps for Apple Watch will be\u2026 http://t.co/fZ9SQnw0OF #Apple #iWatch #AppleWatch #apps #FairfaxMedia
p51
aV#Watch #Wearable \u2013 Fairfax Media news apps for Apple Watch will be\u2026 http://t.co/SCp3BEV4ub #Apple #iWatch #AppleWatch #apps #FairfaxMedia
p52
aV#Watch #Wearable \u2013 Fairfax Media news apps for Apple Watch will be\u2026 http://t.co/IHxdWKven1 #Apple #iWatch #AppleWatch #apps #FairfaxMedia
p53
aV#Watch #Wearable \u2013 Fairfax Media news apps for Apple Watch will be\u2026 http://t.co/sNuHYUUopC #Apple #iWatch #AppleWatch #apps #FairfaxMedia
p54
aV#Watch #Wearable \u2013 Fairfax Media news apps for Apple Watch will be\u2026 http://t.co/ufzA6W0FjQ #Apple #iWatch #AppleWatch #apps #FairfaxMedia
p55
aV#Watch #Wearable \u2013 Fairfax Media news apps for Apple Watch will be\u2026 http://t.co/rA5CR8qULn #Apple #iWatch #AppleWatch #apps #FairfaxMedia
p56
aV#Watch #Wearable \u2013 Fairfax Media news apps for Apple Watch will be\u2026 http://t.co/MONlAMq7Fm #Apple #iWatch #AppleWatch #apps #FairfaxMedia
p57
aV#Watch #Wearable \u2013 Fairfax Media news apps for Apple Watch will be\u2026 http://t.co/dW4QVFR5km #Apple #iWatch #AppleWatch #apps #FairfaxMedia
p58
aV#Watch #Wearable \u2013 Fairfax Media news apps for Apple Watch will be\u2026 http://t.co/y21ZIy8mPj #Apple #iWatch #AppleWatch #apps #FairfaxMedia
p59
aV#Watch #Wearable \u2013 Fairfax Media news apps for Apple Watch will be\u2026 http://t.co/tHHv331nH7 #Apple #iWatch #AppleWatch #apps #FairfaxMedia
p60
aV#Watch #Wearable \u2013 Fairfax Media news apps for Apple Watch will be\u2026 http://t.co/Bv882WOhig #Apple #iWatch #AppleWatch #apps #FairfaxMedia
p61
aV#Watch #Wearable \u2013 Fairfax Media news apps for Apple Watch will be\u2026 http://t.co/LG6qQ35JcH #Apple #iWatch #AppleWatch #apps #FairfaxMedia
p62
aV#Watch #Wearable \u2013 Fairfax Media news apps for Apple Watch will be\u2026 http://t.co/KziRq2OHb6 #Apple #iWatch #AppleWatch #apps #FairfaxMedia
p63
aV#Watch #Wearable \u2013 Fairfax Media news apps for Apple Watch will be\u2026 http://t.co/nWI3q0IRXe #Apple #iWatch #AppleWatch #apps #FairfaxMedia
p64
aVFor Apple Watch will be a first, Fairfax Media news apps http://t.co/jRJju9s1GF #Apple #iWatch #AppleWatch #apps #FairfaxMedia
p65
aV#Watch #Wearable \u2013 Fairfax Media news apps for Apple Watch will be\u2026 http://t.co/f3KHTkLNMT #Apple #iWatch #AppleWatch #apps #FairfaxMedia
p66
aV#Watch #Wearable \u2013 Fairfax Media news apps for Apple Watch will be\u2026 http://t.co/JeOdIUIoYI #Apple #iWatch #AppleWatch #apps #FairfaxMedia
p67
aV#Watch #Wearable \u2013 Fairfax Media news apps for Apple Watch will be\u2026 http://t.co/NwgFXymfTn #Apple #iWatch #AppleWatch #apps #FairfaxMedia
p68
aV#Watch #Wearable \u2013 Fairfax Media news apps for Apple Watch will be\u2026 http://t.co/uuQLtAItDS #Apple #iWatch #AppleWatch #apps #FairfaxMedia
p69
aV#Watch #Wearable \u2013 Fairfax Media news apps for Apple Watch will be\u2026 http://t.co/BtZ5DWAS0L #Apple #iWatch #AppleWatch #apps #FairfaxMedia
p70
aVFor Apple Watch will be a first, Fairfax Media news apps http://t.co/MptcAlb0FG #Apple #iWatch #AppleWatch #apps #FairfaxMedia
p71
aV#Watch #Wearable \u2013 Fairfax Media news apps for Apple Watch will be\u2026 http://t.co/MW584j8Oie #Apple #iWatch #AppleWatch #apps #FairfaxMedia
p72
aV#Watch #Wearable \u2013 Fairfax Media news apps for Apple Watch will be\u2026 http://t.co/zSORBmkqmo #Apple #iWatch #AppleWatch #apps #FairfaxMedia
p73
aV#Watch #Wearable \u2013 Fairfax Media news apps for Apple Watch will be\u2026 http://t.co/72tt2DhfeO #Apple #iWatch #AppleWatch #apps #FairfaxMedia
p74
aV#Watch #Wearable \u2013 Fairfax Media news apps for Apple Watch will be\u2026 http://t.co/5TvnVXi9NO #Apple #iWatch #AppleWatch #apps #FairfaxMedia
p75
aV#Watch #Wearable \u2013 Fairfax Media news apps for Apple Watch will be\u2026 http://t.co/hklK2vgXH9 #Apple #iWatch #AppleWatch #apps #FairfaxMedia
p76
aV#Watch #Wearable \u2013 Fairfax Media news apps for Apple Watch will be\u2026 http://t.co/nOboFyGSyE #Apple #iWatch #AppleWatch #apps #FairfaxMedia
p77
aV#Watch #Wearable \u2013 Fairfax Media news apps for Apple Watch will be\u2026 http://t.co/DHBCw5sQv9 #Apple #iWatch #AppleWatch #apps #FairfaxMedia
p78
aV#Watch #Wearable \u2013 Fairfax Media news apps for Apple Watch will be\u2026 http://t.co/LKeIMswAvb #Apple #iWatch #AppleWatch #apps #FairfaxMedia
p79
aV#Watch #Wearable \u2013 Fairfax Media news apps for Apple Watch will be\u2026 http://t.co/X2CL3sp2h9 #Apple #iWatch #AppleWatch #apps #FairfaxMedia
p80
aV#Watch #Wearable \u2013 Fairfax Media news apps for Apple Watch will be\u2026 http://t.co/jwnSPBwBW5 #Apple #iWatch #AppleWatch #apps #FairfaxMedia
p81
aV#Watch #Wearable \u2013 Fairfax Media news apps for Apple Watch will be\u2026 http://t.co/06mYj4subY #Apple #iWatch #AppleWatch #apps #FairfaxMedia
p82
aVFor Apple Watch will be a first, Fairfax Media news apps http://t.co/hNpdUImdAY #Apple #iWatch #AppleWatch #apps #FairfaxMedia
p83
aV#Watch #Wearable \u2013 Fairfax Media news apps for Apple Watch will be\u2026 http://t.co/R9OTVRpA5W #Apple #iWatch #AppleWatch #apps #FairfaxMedia
p84
aV#Watch #Wearable \u2013 Fairfax Media news apps for Apple Watch will be\u2026 http://t.co/x3X4V3O9Fs #Apple #iWatch #AppleWatch #apps #FairfaxMedia
p85
aV#Watch #Wearable \u2013 Fairfax Media news apps for Apple Watch will be\u2026 http://t.co/RFY5DJ5FIW #Apple #iWatch #AppleWatch #apps #FairfaxMedia
p86
aV#Competition #win an Apple Watch with Lowdown! Check it out here - http://t.co/EGxVZ7nEHx #applewatch http://t.co/IpB1132OkO
p87
aV#Watch #Wearable \u2013 Fairfax Media news apps for Apple Watch will be\u2026 http://t.co/eMzgMvnnX2 #Apple #iWatch #AppleWatch #apps #FairfaxMedia
p88
aV#Watch #Wearable \u2013 Fairfax Media news apps for Apple Watch will be\u2026 http://t.co/YD173CkkDg #Apple #iWatch #AppleWatch #apps #FairfaxMedia
p89
aV#Watch #Wearable \u2013 Fairfax Media news apps for Apple Watch will be\u2026 http://t.co/zBqn6moeeK #Apple #iWatch #AppleWatch #apps #FairfaxMedia
p90
aV#Watch #Wearable \u2013 Fairfax Media news apps for Apple Watch will be\u2026 http://t.co/TtCWTZttHP #Apple #iWatch #AppleWatch #apps #FairfaxMedia
p91
aV#Watch #Wearable \u2013 Fairfax Media news apps for Apple Watch will be\u2026 http://t.co/GRJP0TR90f #Apple #iWatch #AppleWatch #apps #FairfaxMedia
p92
aV#Watch #Wearable \u2013 Fairfax Media news apps for Apple Watch will be\u2026 http://t.co/gQ2TlX5Soh #Apple #iWatch #AppleWatch #apps #FairfaxMedia
p93
aV#Watch #Wearable \u2013 Fairfax Media news apps for Apple Watch will be\u2026 http://t.co/dxxhPs1F3b #Apple #iWatch #AppleWatch #apps #FairfaxMedia
p94
aV#Watch #Wearable \u2013 Fairfax Media news apps for Apple Watch will be\u2026 http://t.co/f4fhezx4Y2 #Apple #iWatch #AppleWatch #apps #FairfaxMedia
p95
aV#Watch #Wearable \u2013 Fairfax Media news apps for Apple Watch will be\u2026 http://t.co/hX3AWCnDnS #Apple #iWatch #AppleWatch #apps #FairfaxMedia
p96
aV#Watch #Wearable \u2013 Fairfax Media news apps for Apple Watch will be\u2026 http://t.co/OITJZwH51R #Apple #iWatch #AppleWatch #apps #FairfaxMedia
p97
aV#Watch #Wearable \u2013 Fairfax Media news apps for Apple Watch will be\u2026 http://t.co/Vfgz9qjNmQ #Apple #iWatch #AppleWatch #apps #FairfaxMedia
p98
aV#Watch #Wearable \u2013 Fairfax Media news apps for Apple Watch will be\u2026 http://t.co/OFf7e88jP0 #Apple #iWatch #AppleWatch #apps #FairfaxMedia
p99
aV#Watch #Wearable \u2013 Fairfax Media news apps for Apple Watch will be\u2026 http://t.co/xar4ktRFUl #Apple #iWatch #AppleWatch #apps #FairfaxMedia
p100
a.