(lp0
VAnyone want to buy me a $10,000 watch? #AppleWatch #Gold @ Apple Store, Roosevelt Field https://t.co/glRJgMQgR7
p1
aVQue tal este case da #Spigen para o Apple Watch? #AppleWatch https://t.co/czXsbISYr1
p2
aVCustom colored sport bands shown off at Apple Watch display in Milan http://t.co/ECae51EFoa #applewatch
p3
aVApple Watch Initial Launch Will Not be Limited to US According to Tim Cook http://t.co/o0GOrdBP94 #applewatch #smartwatch
p4
aVThe Apple Watch Parody Commercial, Funny Video http://t.co/Knfm8vjFTh #applewatch #smartwatch
p5
aVNew #AppleWatch Sport band colors revealed in Italy http://t.co/PJvHEq5JfS
p6
aV#AppleWatch 42mm Stainless Steel Case Black Sport Band (Delivers May 13-27) http://t.co/NX5rDOJ2vE #Apple #iWatch http://t.co/pXkBT8RegB
p7
aVWas able to score elliotandholdensmomma an #AppleWatch. Don't ask how. https://t.co/Zhm8qJdTz5
p8
aV@Microsoft Releases Its First App For #AppleWatch http://t.co/79Q5KYkMGo
p9
aVRT @mnpkouryaku: [\u6700\u65b0\u8a18\u4e8b] \u30a2\u30c3\u30d7\u30eb\u30a6\u30a9\u30c3\u30c1(AppleWatch)\u3092\u30a2\u30c3\u30d7\u30eb\u30b9\u30c8\u30a2\u3067\u8a66\u7740\u4f53\u9a13\u3057\u3066\u304d\u305f\uff01\u30bd\u30d5\u30c8\u30d0\u30f3\u30af\u30b7\u30e7\u30c3\u30d7\u3067\u3082\u4e88\u7d04\u3068\u8a66\u7740\u958b\u59cb\uff01 http://t.co/7THv6zj57D
p10
aV3rd-party watch band manufacturers must be salivating at the opportunity to charge 3-4x normal prices for a band that fits an #AppleWatch
p11
aVRT @ChrisKMcCormack: 3rd-party watch band manufacturers must be salivating at the opportunity to charge 3-4x normal prices for a band that \u2026
p12
aV2. You can also connect to apple pay for easy transactions and use siri to send messages. #applewatch
p13
aVRT @haginobu: AppleWatch\u3082\u71d5\u5e02\u3067\u4f5c\u3063\u3066\u308b\u3089\u3057\u3044\u3002
p14
aVRT @ellieschwartz: RT@ksegall weighs in on#apple #CustomerExperience  or lack thereof. #applewatch #insanelysimple #marketing  https://t.co\u2026
p15
aVRT @haginobu: AppleWatch\u3082\u71d5\u5e02\u3067\u4f5c\u3063\u3066\u308b\u3089\u3057\u3044\u3002
p16
aVPeople got excite about AppleWatch, new Macbook, etc., and I just sitting here, ordering a Dyson vacuum \u2026 #homemakinggeek
p17
aV#AppleWatch gets four new #Yahoo apps - http://t.co/sImW4GyUrG #Apps
p18
aV\u30d0\u30f3\u30c9\u88c5\u7740\u90e8\u304c\u72ec\u81ea\u5f62\u72b6\u3068\u3044\u3046\u3053\u3068\u3067\u3001AppleWatch\u306f\u3053\u3053\u306b\u63a5\u70b9\u3092\u4ed5\u8fbc\u3093\u3067\u30b5\u30d6\u30d0\u30c3\u30c6\u30ea\u30fc\u3068\u304b\u5145\u96fb\u7528USB\u7aef\u5b50\u3092\u5185\u8535\u3057\u305f\u30d0\u30f3\u30c9\u3092\u7528\u610f\u3059\u308b\u3064\u3082\u308a\u304b\u3068\u601d\u3063\u3066\u3044\u305f\u306e\u3060\u3051\u3069\u3001\u9055\u3046\u306e\u3060\u308d\u3046\u304b
p19
aV\u6642\u8a08\u306f\u4f55\u3092\u3057\u3066\u3089\u3063\u3057\u3083\u3044\u307e\u3059\u304b\uff1f\u307e\u305f\u3001\u6b32\u3057\u3044\u30e1\u30fc\u30ab\u30fc\u3084\u30d6\u30e9\u30f3\u30c9\u306f\u3042\u308a\u307e\u3059\u304b\uff1f \u2014 \u6642\u8a08\u306f\u30bb\u30a4\u30b3\u30fc\u306e\u5b50\u4f1a\u793e\u304c\u51fa\u3057\u3066\u308b\u61d0\u4e2d\u6642\u8a08\u3092\u4f7f\u3063\u3066\u308b\u000aApplewatch\u304c\u6c17\u306b\u306a\u308b\u3051\u3069\u3001\u9ad8\u3059\u304e\u308b http://t.co/370VtKMl45
p20
aV#DealVidFal #CrowdDeal #AppleWatch http://t.co/Lw0P0g4lq7
p21
aVRT @haginobu: AppleWatch\u3082\u71d5\u5e02\u3067\u4f5c\u3063\u3066\u308b\u3089\u3057\u3044\u3002
p22
aVRT @Pocketnow: Your comments, answered! #LGG4 #AppleWatch #GalaxyS6  http://t.co/7hMW8v7A0b http://t.co/U9fcbKcdtF
p23
aVWhat happens when you tell her not to go into the Apple store #applehead #geekproblems #applewatch https://t.co/Ogvq2bAIg0
p24
aVI am already in love with you #applewatch #Apple #smartwatch #FuoriSalone2015  #TryOn #StainlessSteel #MilaneseLoop http://t.co/HTpSwBzuPX
p25
aV\u231a\ufe0f how these apple watches? Hmm might have to buy one ? #AppleWatch \U0001f4f2\u231a\ufe0f
p26
aVNewsMayotte: tmlevelx101x: \u5f88\u597d\u7684\u4e00\u7bc7\u6587\u7ae0!\u000a#Apple #AppleWatch http://t.co/E16AGK23yi
p27
aV#applewatch workouts: in/outdoor walk, run, cycle, elliptical &amp; rowing. Set goals: time, calories or distance. I'm glad I chose 38mm
p28
aV@Trackstar27806 which one did you order #AppleWatch I can't wait for mine either!!!
p29
aVRT @mmoorrggaan: If I had a dollar for every time I checked my #AppleWatch order status I would be able to purchase the edition model.
p30
aVThese celebrities are wearing the #AppleWatch from @wareable http://t.co/X89m7dehUl #wearables #Tech #gadgets #gueswho
p31
aVRT @enveodk: These celebrities are wearing the #AppleWatch from @wareable http://t.co/X89m7dehUl #wearables #Tech #gadgets #gueswho
p32
aVApple Watch\u4e88\u7d04\u6bba\u5230\uff01\u5897\u7523\u4f53\u5236\u306f\uff1f http://t.co/uSIs7iDQBq #AppleWatch
p33
aVApple Watch\u30016\u6708\u307e\u3067\u5e97\u982d\u8ca9\u58f2\u305b\u305a http://t.co/deb1K00wA4 #AppleWatch
p34
aVApple Watch LINE\u3001100\u4e07\u53f0\u3001\u5e97\u982d\u306a\u3057\u3001\u4fee\u7406\u307e\u3068\u3081\u306a\u3069\u4eca\u9031\u306e\u30a2\u30c3\u30d7\u30eb\u307e\u3068\u3081 2015/4/13\u301c4/19 http://t.co/PRvHknITHV #AppleWatch
p35
aVWHOSE NAILS ARE READY FOR THE #applewatch ?!?????  MINE AREEEEE http://t.co/0ooSllwtqf
p36
aVI lust you. #AppleWatch https://t.co/m8dJpHT9yz
p37
aV#CrowdDeal #AppleWatch http://t.co/u0QAW87yUz
p38
aV@tim_cook  Something funny about how #safari on my #iPad keeps crashing when visiting #apple site. Guess I can't buy that new #applewatch
p39
aVApple Store in Miami beach \uf8ff\u231a\ufe0f\U0001f4f1 #Apple #AppleWatch #Miami #MiamiBeach http://t.co/dlSrrCh3Ik
p40
aVExcellent #applewatch review @reckless https://t.co/rONcbMy383 \u000athe @Racked &amp; @Eater parts added #oomph
p41
aVToo Embarrassed to Ask: Early Apple Watch questions #Apple #AppleWatch #iOS  http://t.co/Qzt0oT2zRQ
p42
aVAppleWatch\u9ad8\u304b\u3063\u305f
p43
aVRT @MacChickGenius: WHOSE NAILS ARE READY FOR THE #applewatch ?!?????  MINE AREEEEE http://t.co/0ooSllwtqf
p44
aV@matthewmspace @Jim_Gresham r/applewatch and his shows a Cancel Items button too. That's why I left mine on there. http://t.co/6I3BpU4qlR
p45
aVFantastic concierge experience at the Apple Store today. #AppleWatch Sport on the way. June, get here quick!
p46
aVCould #AppleWatch set a new fashion to #WearableTech for years to come? We knew #iPhone did it. #\u30a2\u30c3\u30d7\u30eb
p47
aVAppleWatch\u3063\u3066\u3069\u3053\u304c\u3044\u3044\u306e\u304b\u3055\u3063\u3071\u308a\u5206\u304b\u3089\u306a\u3044
p48
aVWill the #Applewatch eclipse the classic Swiss watch?, AsiaOne Digital News http://t.co/jwUQtrs6Y9 #ZippedNews http://t.co/Dkzixn1Ely
p49
aVRT @news_in_summary: Will the #Applewatch eclipse the classic Swiss watch?, AsiaOne Digital News http://t.co/jwUQtrs6Y9 #ZippedNews http://\u2026
p50
aV#AppleWatch Sport White Band 38mm Sport Pre Order Confirmed Release Day 24th http://t.co/CNluWx2Bfv #Apple #iWatch http://t.co/SRhlJyJY74
p51
aVRT @kameda326: 11\u65e5\u306e\u8a66\u7740\u3060\u3063\u305f\u304b\u308924\u65e5\u53d7\u53d6\u306f\u7d76\u671b\u7684\u3060\u3063\u305f\u3051\u3069\u3001\u3055\u3063\u304d\u4f0a\u52e2\u4e39AppleWatchStore\u304b\u3089\u300c24\u65e5\u306e\u304a\u6e21\u3057\u3067\u3059\u300d\u3068\u9023\u7d61\uff77\uff80\u2500\u2500\u30fd('\u2200')\uff89\u2500\u2500!! #AppleWatch
p52
aVICYMI: Smartwatch showdown: Moto 360 vs. Apple Watch http://t.co/b9iXXFcjPo #Moto360 #AppleWatch http://t.co/e8QTtudUnO
p53
aVRT @haginobu: AppleWatch\u3082\u71d5\u5e02\u3067\u4f5c\u3063\u3066\u308b\u3089\u3057\u3044\u3002
p54
aVRT @kanetix: Tweet #kanetixgiveaway and let us know how you buy insurance for a chance to #WIN the #AppleWatch . Don't forget to Retweet &amp; \u2026
p55
aVWhat the #AppleWatch Would Have Looked Like in 1995 http://t.co/beUpQcCS3Q
p56
aVThis is gonna be fun -&gt; New #AppleWatch Sport band colors revealed in Italy http://t.co/rrUxEIr1z5 #wearables
p57
aVhttp://t.co/v9Mq0cYvCQ #glancejournalism #applewatch @Zairenna #periodismo
p58
aV#Watch #Wearable \u2013 Exclusive Apple Watch Sport\u2026 http://t.co/HrPLxGmO8R #Apple #iWatch #AppleWatch #apps #fashion http://t.co/e6IlGFaVre
p59
aVDid #Apple fail with the #AppleWatch launch? $AAPL #smartwatch #mobile https://t.co/i2c1U9SaLK
p60
aVRT @iPhoneHackx: ICYMI: Smartwatch showdown: Moto 360 vs. Apple Watch http://t.co/b9iXXFcjPo #Moto360 #AppleWatch http://t.co/e8QTtudUnO
p61
aV\u793e\u4f1a\u4eba\u306a\u3089AppleWatch\u3067\u6642\u9593\u3068\u30bf\u30b9\u30af\u306e\u78ba\u8a8d\u3092
p62
aV#Watch #Wearable \u2013 Exclusive Apple Watch Sport\u2026 http://t.co/a4x1b6PN2q #Apple #iWatch #AppleWatch #apps #fashion http://t.co/lgv6MNbe3p
p63
aV#Watch #Wearable \u2013 Exclusive Apple Watch Sport\u2026 http://t.co/fGwTLBgNGH #Apple #iWatch #AppleWatch #apps #fashion http://t.co/7eTVPVYhOg
p64
aVI earn from the internet http://t.co/c8YlhMMJxy #GalaxyS6 #AppleWatch #Apple #VuzuRichKids #GoodWork #GamerGate #freetomove #MakeInIndia
p65
aVCheck this out! #CrowdDeal #AppleWatch http://t.co/cAqwB9qygS
p66
aV@jerols @tapityapps First #AppleWatch app that I\u2019ll be trying after UPS comes a knockin\u2019! #hoursapp http://t.co/O61JbeK0wr
p67
aVMy Bluetooth Watch is here! It's no #AppleWatch but it bought it at #DHgateBI for under $50 http://t.co/dJUMVg4QTi http://t.co/ZqZrTc2NDS
p68
aVRT @mmoorrggaan: If I had a dollar for every time I checked my #AppleWatch order status I would be able to purchase the edition model.
p69
aV#Tempo Smart #Calendar #app gets smarter for #AppleWatch http://t.co/cqRM7FfROy
p70
aVNewsMayotte: NewsMayotte: tmlevelx101x: \u5f88\u597d\u7684\u4e00\u7bc7\u6587\u7ae0!\u000a#Apple #AppleWatch http://t.co/E16AGK23yi
p71
aVTake a look at just how terrific #Twitterrific for #AppleWatch is http://t.co/BUnWhzjiH2
p72
aVTake a look at just how terrific #Twitterrific for #AppleWatch is http://t.co/Rhn1LWGlAg
p73
aV#Tempo Smart #Calendar #app gets smarter for #AppleWatch http://t.co/N62fWMormy
p74
aVI got to try on the #AppleWatch today, and I can honestly say I love it! Thank you @tim_cook and all Apple employees! http://t.co/iYS12EUeB9
p75
aVRT @WOR710: What the #AppleWatch Would Have Looked Like in 1995 http://t.co/beUpQcCS3Q
p76
aViPhone\u5bb6\u5ead\u6559\u5e2b | \u30b9\u30de\u30c1\u30e5\u30fc.net\u000a\u000aApple\u30a6\u30a9\u30c3\u30c1\u3001\u82e5\u3044\u4e16\u4ee3\u306e\u95a2\u5fc3\u306f\u30a4\u30de\u30a4\u30c1\u306e\u3044\u3046\u3067\u3059\u306d\u3002\u000a\u000a#applewatch #iphone  http://t.co/UMVxJC94x1
p77
aVMore th  http://t.co/YuV7Z95HqZ  #apple #applestore #applewatch #ianbushphiladelphiacbs #sliceintelligence #watches
p78
aVRT @PhiladelphiaNqr: More th  http://t.co/YuV7Z95HqZ  #apple #applestore #applewatch #ianbushphiladelphiacbs #sliceintelligence #watches
p79
aVRT @kanetix: Tweet #kanetixgiveaway and let us know how you buy insurance for a chance to #WIN the #AppleWatch . Don't forget to Retweet &amp; \u2026
p80
aVTrying on 42mm Space Gray #AppleWatch Sport model at #AppleStore Town Square in Las Vegas. #ApplePay #PassBook http://t.co/6hGfZyqWPd
p81
aVReally excited for my #AppleWatch to come in. 42mm Stainless Steel. Thank you @Snodea! You're the best \U0001f491
p82
aVApplewatch\u89e6\u3063\u305f\u000a\u30ac\u30b8\u30a7\u30c3\u30c8\u597d\u304d\u306b\u306f\u305f\u307e\u3089\u306a\u3044\u306d http://t.co/CPUnCNFQoZ
p83
aV\u30b9\u30de\u30d5\u30a9\u3067\u6642\u9593\u3092\u78ba\u8a8d\u2192\u300c\u8a71\u4e2d\u306b\u30b1\u30fc\u30bf\u30a4\u3067\u53cb\u9054\u3068\u30e1\u30fc\u30eb\u306f\u3084\u3081\u308d\u300d\u000a\u30b9\u30de\u30d5\u30a9\u3067\u30e1\u30e2\u3092\u8ffd\u52a0\u2192\u300c\u8a71\u4e2d\u306b\u30c4\u30a4\u30c3\u30bf\u30fc\u3059\u308b\u306a\u300d\u000a\u30b9\u30de\u30d5\u30a9\u3067\u30c4\u30a4\u30c3\u30bf\u30fc\u2192\u8fd1\u304f\u6b69\u3044\u3066\u305f\u4eba\u300c\u52dd\u624b\u306b\u5199\u771f\u64ae\u3063\u3066\u30cd\u30c3\u30c8\u306b\u3042\u3052\u306a\u3044\u3067\u304f\u3060\u3055\u3044\u8b66\u5bdf\u547c\u3073\u307e\u3059\u3088\u300d\u000a\u000a\u3053\u308c\u3089\u306e\u554f\u984c\u3092\u5168\u3066\u89e3\u6c7a\u3002\u000a\u305d\u3046\u3001#AppleWatch \u306a\u3089\u306d\u263a\ufe0f
p84
aVCM\u3063\u3066\u3059\u3054\u3044\u3002\u6b32\u3057\u304f\u306a\u3063\u305f\u3002#applewatch
p85
aVSo excited for my #AppleWatch to come in! Thank you @Snodea! You're the best :) I love you. \U0001f491 #Happy4th
p86
aV\u904e\u53bb\u8a18\u4e8b\u767a\u6398\uff01\u27a1\ufe0f: \u3053\u3046\u3044\u3046\u306e\u304c\u6b32\u3057\u304b\u3063\u305f\uff01AppleWatch\u7528\u30d0\u30c3\u30c6\u30ea\u30fc\u5185\u8535\u578b\u30d0\u30f3\u30c9\u304c\u767b\u5834\uff01\uff01 http://t.co/QkZBHic7Th #Apple #AppleWatch
p87
aV@ken_sugar AppleWatch\u3069\u3053\u308d\u304b\u30b1\u30fc\u30bf\u30a4\u3082\u30ce\u30fc\u30c8PC\u3082\u6301\u3063\u3066\u304a\u3089\u305a\u89aa\u306b\u8cb7\u3063\u3066\u3082\u3089\u3063\u305f20\u5e74\u524d\u306e\u30d1\u30bd\u30b3\u30f3\u4f7f\u3063\u3066\u308bKen Sugar\u3055\u3093\u3053\u3093\u306b\u3061\u308f\u263a\ufe0f
p88
aViPhone\u5bb6\u5ead\u6559\u5e2b | \u30b9\u30de\u30c1\u30e5\u30fc.net\u000a\u000a\u3082\u30571980\u5e74\u306bApple\u30a6\u30a9\u30c3\u30c1\u304c\u767a\u58f2\u3055\u308c\u3066\u3044\u305f\u3089\uff01\uff1f\u000a\u000a#applewatch #iphone  http://t.co/uHj8lngIE7
p89
aVRT @WatchAware: Fun Fact:The first mobile payment app for #AppleWatch is not Paypal or Square. It\u2019s @alipay http://t.co/3Cfez5Xs2Z http://t\u2026
p90
aVApple Watch\u000a#applestore #applewatch #colors #cortemadera https://t.co/xXzpCo2J1Z
p91
aVRT @brannongillis: #Apple hasn\u2019t made it very easy for developers in regards to the #AppleWatch. Difficult to build and test something you \u2026
p92
aVRT @animeonly1234: Applewatch\u89e6\u3063\u305f\u000a\u30ac\u30b8\u30a7\u30c3\u30c8\u597d\u304d\u306b\u306f\u305f\u307e\u3089\u306a\u3044\u306d http://t.co/CPUnCNFQoZ
p93
aVRT @smatunet: iPhone\u5bb6\u5ead\u6559\u5e2b | \u30b9\u30de\u30c1\u30e5\u30fc.net\u000a\u000a\u3082\u30571980\u5e74\u306bApple\u30a6\u30a9\u30c3\u30c1\u304c\u767a\u58f2\u3055\u308c\u3066\u3044\u305f\u3089\uff01\uff1f\u000a\u000a#applewatch #iphone  http://t.co/uHj8lngIE7
p94
aViPhone\u5bb6\u5ead\u6559\u5e2b | \u30b9\u30de\u30c1\u30e5\u30fc.net\u000a\u000a\u9a5a\u7570\u306e\u4eba\u6c17\u3076\u308a\u3067\u3059\u306d\u3002\u000a1\u65e5\u3067\u8d85\u3048\u308b\u3068\u306f\u3002\u000a#applewatch #iphone http://t.co/rGJrv3rIxt
p95
aVWhat the AppleWatch could be  Apple should leverage IBMs Watson for natural language Siri queries http://t.co/CPY1Zmk9KS
p96
aVSix Reasons Not To Buy an #AppleWatch Just Yet http://t.co/UER6GgBkHr http://t.co/98CrWAONZk
p97
aVAppleWatch\u4e88\u7d04\u5b8c\u4e86\u8a18\u5ff5\u3002 http://t.co/jOexwsgNnW
p98
aVApplewatch\u304c\u898b\u308b\u3060\u3051\u3067\u3082\u884c\u5217\u306a\u306e\u3092\u6a2a\u76ee\u306b\u624b\u5dfb\u304d\u5f0f\u306e\u6642\u8a08\u3092\u8cfc\u5165\u3002\u203c http://t.co/dAIQTSow27
p99
aVAppleWatch\u306b\u7761\u7720\u91dd\u4ed5\u8fbc\u3093\u3067\u4f1a\u8b70\u4e2d\u306b\u4e0a\u53f8\u306b\u5411\u3051\u3066\u767a\u5c04\u3057\u3066\u4e0a\u53f8\u306e\u58f0\u3067\u300c\u72af\u4eba\u306f\u3053\u306e\u4e2d\u306b\u3044\u307e\u3059\u300d\u3063\u3066\u3084\u308a\u305f\u3044
p100
a.