(lp0
V#Watch #Wearable \u2013 Esteemed Apple blogger: Third-party Apple Watch\u2026 http://t.co/MFeO7APKLo #Apple #iWatch #AppleWatch #apps #BothGruber
p1
aVApple Watch apps \u2018suck\u2019 and are \u2018really slow\u2019 Third-party http://t.co/4UyOSvtMKp #Apple #iWatch #AppleWatch #apps #BothGruber
p2
aV#Watch #Wearable \u2013 Esteemed Apple blogger: Third-party Apple Watch\u2026 http://t.co/9cti6u1mku #Apple #iWatch #AppleWatch #apps #BothGruber
p3
aVApple Watch apps \u2018suck\u2019 and are \u2018really slow\u2019 Third-party http://t.co/8YOEJ1Am0Q #Apple #iWatch #AppleWatch #apps #BothGruber
p4
aV#Watch #Wearable \u2013 Esteemed Apple blogger: Third-party Apple Watch\u2026 http://t.co/NBsi8xNlIb #Apple #iWatch #AppleWatch #apps #BothGruber
p5
aVApple Watch apps \u2018suck\u2019 and are \u2018really slow\u2019 Third-party http://t.co/dawTa2ivvu #Apple #iWatch #AppleWatch #apps #BothGruber
p6
aV#Watch #Wearable \u2013 Esteemed Apple blogger: Third-party Apple Watch\u2026 http://t.co/FbxyX2AZPS #Apple #iWatch #AppleWatch #apps #BothGruber
p7
aV#Watch #Wearable \u2013 Esteemed Apple blogger: Third-party Apple Watch\u2026 http://t.co/NDlpUc4UdK #Apple #iWatch #AppleWatch #apps #BothGruber
p8
aV#Watch #Wearable \u2013 Esteemed Apple blogger: Third-party Apple Watch\u2026 http://t.co/xQfaegnNG8 #Apple #iWatch #AppleWatch #apps #BothGruber
p9
aV#Watch #Wearable \u2013 Esteemed Apple blogger: Third-party Apple Watch\u2026 http://t.co/mQB3di0vU7 #Apple #iWatch #AppleWatch #apps #BothGruber
p10
aV#Watch #Wearable \u2013 Esteemed Apple blogger: Third-party Apple Watch\u2026 http://t.co/iIlAWBhdgV #Apple #iWatch #AppleWatch #apps #BothGruber
p11
aV#Watch #Wearable \u2013 Esteemed Apple blogger: Third-party Apple Watch\u2026 http://t.co/6rsUIfyOTd #Apple #iWatch #AppleWatch #apps #BothGruber
p12
aVApple Watch apps \u2018suck\u2019 and are \u2018really slow\u2019 Third-party http://t.co/qN0xBJRhs7 #Apple #iWatch #AppleWatch #apps #BothGruber
p13
aV#Watch #Wearable \u2013 Esteemed Apple blogger: Third-party Apple Watch\u2026 http://t.co/K35ZhNVfSC #Apple #iWatch #AppleWatch #apps #BothGruber
p14
aV#Watch #Wearable \u2013 Esteemed Apple blogger: Third-party Apple Watch\u2026 http://t.co/3Xq2Lv2wCQ #Apple #iWatch #AppleWatch #apps #BothGruber
p15
aV#Watch #Wearable \u2013 Esteemed Apple blogger: Third-party Apple Watch\u2026 http://t.co/eXtw784Znm #Apple #iWatch #AppleWatch #apps #BothGruber
p16
aV#Watch #Wearable \u2013 Esteemed Apple blogger: Third-party Apple Watch\u2026 http://t.co/IDhqBogNmL #Apple #iWatch #AppleWatch #apps #BothGruber
p17
aV#Watch #Wearable \u2013 Esteemed Apple blogger: Third-party Apple Watch\u2026 http://t.co/GfHHpmYZFd #Apple #iWatch #AppleWatch #apps #BothGruber
p18
aV#Watch #Wearable \u2013 Esteemed Apple blogger: Third-party Apple Watch\u2026 http://t.co/4GetaY0IGf #Apple #iWatch #AppleWatch #apps #BothGruber
p19
aVApple Watch apps \u2018suck\u2019 and are \u2018really slow\u2019 Third-party http://t.co/0RHlRzku1n #Apple #iWatch #AppleWatch #apps #BothGruber
p20
aV#Watch #Wearable \u2013 Esteemed Apple blogger: Third-party Apple Watch\u2026 http://t.co/X4dUQRdoyO #Apple #iWatch #AppleWatch #apps #BothGruber
p21
aV#Watch #Wearable \u2013 Esteemed Apple blogger: Third-party Apple Watch\u2026 http://t.co/72giDWYtDj #Apple #iWatch #AppleWatch #apps #BothGruber
p22
aV#Watch #Wearable \u2013 Esteemed Apple blogger: Third-party Apple Watch\u2026 http://t.co/teXxV4gfW6 #Apple #iWatch #AppleWatch #apps #BothGruber
p23
aV#Watch #Wearable \u2013 Esteemed Apple blogger: Third-party Apple Watch\u2026 http://t.co/ezZSfR3fii #Apple #iWatch #AppleWatch #apps #BothGruber
p24
aV#Watch #Wearable \u2013 Esteemed Apple blogger: Third-party Apple Watch\u2026 http://t.co/d3V6pnsFUM #Apple #iWatch #AppleWatch #apps #BothGruber
p25
aVThank you @TVGuide for brining your app to Apple Watch! #AppleWatch #WhatsOnTV
p26
aV#Watch #Wearable \u2013 Esteemed Apple blogger: Third-party Apple Watch\u2026 http://t.co/3cqQiLDxzf #Apple #iWatch #AppleWatch #apps #BothGruber
p27
aVApple Watch apps \u2018suck\u2019 and are \u2018really slow\u2019 Third-party http://t.co/42S5L8V4un #Apple #iWatch #AppleWatch #apps #BothGruber
p28
aV#Watch #Wearable \u2013 Esteemed Apple blogger: Third-party Apple Watch\u2026 http://t.co/tSRabellHr #Apple #iWatch #AppleWatch #apps #BothGruber
p29
aV#Watch #Wearable \u2013 Esteemed Apple blogger: Third-party Apple Watch\u2026 http://t.co/qRSa0r9S3i #Apple #iWatch #AppleWatch #apps #BothGruber
p30
aV#Watch #Wearable \u2013 Esteemed Apple blogger: Third-party Apple Watch\u2026 http://t.co/bT1A5p7r4o #Apple #iWatch #AppleWatch #apps #BothGruber
p31
aV#Watch #Wearable \u2013 Esteemed Apple blogger: Third-party Apple Watch\u2026 http://t.co/WJ0ZFB35m4 #Apple #iWatch #AppleWatch #apps #BothGruber
p32
aV#Watch #Wearable \u2013 Esteemed Apple blogger: Third-party Apple Watch\u2026 http://t.co/p3B2FTUetN #Apple #iWatch #AppleWatch #apps #BothGruber
p33
aV#Watch #Wearable \u2013 Esteemed Apple blogger: Third-party Apple Watch\u2026 http://t.co/5oD5IfHL2E #Apple #iWatch #AppleWatch #apps #BothGruber
p34
aV#Watch #Wearable \u2013 Esteemed Apple blogger: Third-party Apple Watch\u2026 http://t.co/q0j9pPgg2E #Apple #iWatch #AppleWatch #apps #BothGruber
p35
aVApple Watch apps \u2018suck\u2019 and are \u2018really slow\u2019 Third-party http://t.co/XdRouWA1pJ #Apple #iWatch #AppleWatch #apps #BothGruber
p36
aV#Watch #Wearable \u2013 Esteemed Apple blogger: Third-party Apple Watch\u2026 http://t.co/u9mAK5mC5Q #Apple #iWatch #AppleWatch #apps #BothGruber
p37
aV#Watch #Wearable \u2013 Esteemed Apple blogger: Third-party Apple Watch\u2026 http://t.co/AUBF8FwdTZ #Apple #iWatch #AppleWatch #apps #BothGruber
p38
aV#Watch #Wearable \u2013 Esteemed Apple blogger: Third-party Apple Watch\u2026 http://t.co/OGGvJYTBw7 #Apple #iWatch #AppleWatch #apps #BothGruber
p39
aV#Watch #Wearable \u2013 Esteemed Apple blogger: Third-party Apple Watch\u2026 http://t.co/ixyowjQW54 #Apple #iWatch #AppleWatch #apps #BothGruber
p40
aV#Watch #Wearable \u2013 Esteemed Apple blogger: Third-party Apple Watch\u2026 http://t.co/V4pcWVm2P5 #Apple #iWatch #AppleWatch #apps #BothGruber
p41
aV#Watch #Wearable \u2013 Esteemed Apple blogger: Third-party Apple Watch\u2026 http://t.co/7mHbU1mro5 #Apple #iWatch #AppleWatch #apps #BothGruber
p42
aV#Watch #Wearable \u2013 Esteemed Apple blogger: Third-party Apple Watch\u2026 http://t.co/QQyakZBOrX #Apple #iWatch #AppleWatch #apps #BothGruber
p43
aVApple Watch apps \u2018suck\u2019 and are \u2018really slow\u2019 Third-party http://t.co/inK2NYIILe #Apple #iWatch #AppleWatch #apps #BothGruber
p44
aV#Watch #Wearable \u2013 Esteemed Apple blogger: Third-party Apple Watch\u2026 http://t.co/7mHbU14Qwx #Apple #iWatch #AppleWatch #apps #BothGruber
p45
aV#Watch #Wearable \u2013 Esteemed Apple blogger: Third-party Apple Watch\u2026 http://t.co/UY79mQMpFg #Apple #iWatch #AppleWatch #apps #BothGruber
p46
aV#Watch #Wearable \u2013 Esteemed Apple blogger: Third-party Apple Watch\u2026 http://t.co/0NYKqsHbum #Apple #iWatch #AppleWatch #apps #BothGruber
p47
aV#Watch #Wearable \u2013 Esteemed Apple blogger: Third-party Apple Watch\u2026 http://t.co/kX2eaDPiZR #Apple #iWatch #AppleWatch #apps #BothGruber
p48
aVApple Watch apps \u2018suck\u2019 and are \u2018really slow\u2019 Third-party http://t.co/JnN0kfjJ8a #Apple #iWatch #AppleWatch #apps #BothGruber
p49
aV#Watch #Wearable \u2013 Esteemed Apple blogger: Third-party Apple Watch\u2026 http://t.co/AZqk0IH4p4 #Apple #iWatch #AppleWatch #apps #BothGruber
p50
aV#Watch #Wearable \u2013 Esteemed Apple blogger: Third-party Apple Watch\u2026 http://t.co/zAhkVP8jBA #Apple #iWatch #AppleWatch #apps #BothGruber
p51
aV#Watch #Wearable \u2013 Esteemed Apple blogger: Third-party Apple Watch\u2026 http://t.co/WNd2oqIp6l #Apple #iWatch #AppleWatch #apps #BothGruber
p52
aV#Watch #Wearable \u2013 Esteemed Apple blogger: Third-party Apple Watch\u2026 http://t.co/z6USH6oZPi #Apple #iWatch #AppleWatch #apps #BothGruber
p53
aVApple Watch apps \u2018suck\u2019 and are \u2018really slow\u2019 Third-party http://t.co/Slp8dwajPs #Apple #iWatch #AppleWatch #apps #BothGruber
p54
aV#Watch #Wearable \u2013 Esteemed Apple blogger: Third-party Apple Watch\u2026 http://t.co/gR0oXblXYa #Apple #iWatch #AppleWatch #apps #BothGruber
p55
aV#Watch #Wearable \u2013 Esteemed Apple blogger: Third-party Apple Watch\u2026 http://t.co/xLMZCM4D1E #Apple #iWatch #AppleWatch #apps #BothGruber
p56
aV#Watch #Wearable \u2013 Esteemed Apple blogger: Third-party Apple Watch\u2026 http://t.co/uhNq2Q44mp #Apple #iWatch #AppleWatch #apps #BothGruber
p57
aV#Watch #Wearable \u2013 Esteemed Apple blogger: Third-party Apple Watch\u2026 http://t.co/bMDpRk64BA #Apple #iWatch #AppleWatch #apps #BothGruber
p58
aV#Watch #Wearable \u2013 Esteemed Apple blogger: Third-party Apple Watch\u2026 http://t.co/j9P5zYS1pq #Apple #iWatch #AppleWatch #apps #BothGruber
p59
aV#Watch #Wearable \u2013 Esteemed Apple blogger: Third-party Apple Watch\u2026 http://t.co/9T5TImUh6R #Apple #iWatch #AppleWatch #apps #BothGruber
p60
aVApple Watch apps \u2018suck\u2019 and are \u2018really slow\u2019 Third-party http://t.co/EQCILezoux #Apple #iWatch #AppleWatch #apps #BothGruber
p61
aV#Watch #Wearable \u2013 Esteemed Apple blogger: Third-party Apple Watch\u2026 http://t.co/hf6uqWJkik #Apple #iWatch #AppleWatch #apps #BothGruber
p62
aV#Watch #Wearable \u2013 Esteemed Apple blogger: Third-party Apple Watch\u2026 http://t.co/4DVg3C2DTB #Apple #iWatch #AppleWatch #apps #BothGruber
p63
aV#Watch #Wearable \u2013 Esteemed Apple blogger: Third-party Apple Watch\u2026 http://t.co/6WT7uhcwRm #Apple #iWatch #AppleWatch #apps #BothGruber
p64
aV#Watch #Wearable \u2013 Esteemed Apple blogger: Third-party Apple Watch\u2026 http://t.co/PsF1PzYl8E #Apple #iWatch #AppleWatch #apps #BothGruber
p65
aV#Watch #Wearable \u2013 Esteemed Apple blogger: Third-party Apple Watch\u2026 http://t.co/6xMs0hTQno #Apple #iWatch #AppleWatch #apps #BothGruber
p66
aV#Watch #Wearable \u2013 Esteemed Apple blogger: Third-party Apple Watch\u2026 http://t.co/XH4dYNhB1a #Apple #iWatch #AppleWatch #apps #BothGruber
p67
aVApple Watch apps \u2018suck\u2019 and are \u2018really slow\u2019 Third-party http://t.co/sv1wnyHV3z #Apple #iWatch #AppleWatch #apps #BothGruber
p68
aV#Watch #Wearable \u2013 Esteemed Apple blogger: Third-party Apple Watch\u2026 http://t.co/yLQicUEe8O #Apple #iWatch #AppleWatch #apps #BothGruber
p69
aV#Watch #Wearable \u2013 Esteemed Apple blogger: Third-party Apple Watch\u2026 http://t.co/fUg8MA5IvR #Apple #iWatch #AppleWatch #apps #BothGruber
p70
aVApple Watch apps \u2018suck\u2019 and are \u2018really slow\u2019 Third-party http://t.co/zvjq513wVo #Apple #iWatch #AppleWatch #apps #BothGruber
p71
aV#Watch #Wearable \u2013 Esteemed Apple blogger: Third-party Apple Watch\u2026 http://t.co/7G9teWISnN #Apple #iWatch #AppleWatch #apps #BothGruber
p72
aV#Watch #Wearable \u2013 Esteemed Apple blogger: Third-party Apple Watch\u2026 http://t.co/evGgGZXPm4 #Apple #iWatch #AppleWatch #apps #BothGruber
p73
aV#Watch #Wearable \u2013 Esteemed Apple blogger: Third-party Apple Watch\u2026 http://t.co/xFQtB3AEPv #Apple #iWatch #AppleWatch #apps #BothGruber
p74
aV#Watch #Wearable \u2013 Esteemed Apple blogger: Third-party Apple Watch\u2026 http://t.co/RVoNuQoDgA #Apple #iWatch #AppleWatch #apps #BothGruber
p75
aV#Watch #Wearable \u2013 Esteemed Apple blogger: Third-party Apple Watch\u2026 http://t.co/f7b6tgDZgM #Apple #iWatch #AppleWatch #apps #BothGruber
p76
aVApple Watch apps \u2018suck\u2019 and are \u2018really slow\u2019 Third-party http://t.co/U53IZajlBM #Apple #iWatch #AppleWatch #apps #BothGruber
p77
aV#Watch #Wearable \u2013 Esteemed Apple blogger: Third-party Apple Watch\u2026 http://t.co/sJvUFyDWHD #Apple #iWatch #AppleWatch #apps #BothGruber
p78
aVApple Watch apps \u2018suck\u2019 and are \u2018really slow\u2019 Third-party http://t.co/Qnf7BD3gnU #Apple #iWatch #AppleWatch #apps #BothGruber
p79
aV#Watch #Wearable \u2013 Esteemed Apple blogger: Third-party Apple Watch\u2026 http://t.co/lLLW6EGbJI #Apple #iWatch #AppleWatch #apps #BothGruber
p80
aVIt's an #AppleWatch giveaway! Choose your model, too! Sign up:  https://t.co/ztpG829UtH via @StackSocial
p81
aV#Watch #Wearable \u2013 Esteemed Apple blogger: Third-party Apple Watch\u2026 http://t.co/sJvUFyVy6d #Apple #iWatch #AppleWatch #apps #BothGruber
p82
aV#Watch #Wearable \u2013 Esteemed Apple blogger: Third-party Apple Watch\u2026 http://t.co/6246QLCSHo #Apple #iWatch #AppleWatch #apps #BothGruber
p83
aV#Watch #Wearable \u2013 Esteemed Apple blogger: Third-party Apple Watch\u2026 http://t.co/1ZQQx9z3ZQ #Apple #iWatch #AppleWatch #apps #BothGruber
p84
aV#Watch #Wearable \u2013 Esteemed Apple blogger: Third-party Apple Watch\u2026 http://t.co/KvcBjLq67h #Apple #iWatch #AppleWatch #apps #BothGruber
p85
aV#Watch #Wearable \u2013 Esteemed Apple blogger: Third-party Apple Watch\u2026 http://t.co/nGJmuJqCqC #Apple #iWatch #AppleWatch #apps #BothGruber
p86
aV#Watch #Wearable \u2013 Esteemed Apple blogger: Third-party Apple Watch\u2026 http://t.co/JVklmA6AeW #Apple #iWatch #AppleWatch #apps #BothGruber
p87
aV#Watch #Wearable \u2013 Esteemed Apple blogger: Third-party Apple Watch\u2026 http://t.co/mqBAxzKw1V #Apple #iWatch #AppleWatch #apps #BothGruber
p88
aV#Watch #Wearable \u2013 Esteemed Apple blogger: Third-party Apple Watch\u2026 http://t.co/sP2xtxmn8f #Apple #iWatch #AppleWatch #apps #BothGruber
p89
aV#Watch #Wearable \u2013 Esteemed Apple blogger: Third-party Apple Watch\u2026 http://t.co/MG8sNk5ulS #Apple #iWatch #AppleWatch #apps #BothGruber
p90
aV#Watch #Wearable \u2013 Esteemed Apple blogger: Third-party Apple Watch\u2026 http://t.co/SvxN4p2Xkk #Apple #iWatch #AppleWatch #apps #BothGruber
p91
aV#Watch #Wearable \u2013 Esteemed Apple blogger: Third-party Apple Watch\u2026 http://t.co/Jjc3YG46Ou #Apple #iWatch #AppleWatch #apps #BothGruber
p92
aV#Watch #Wearable \u2013 Esteemed Apple blogger: Third-party Apple Watch\u2026 http://t.co/uvHZcNRtME #Apple #iWatch #AppleWatch #apps #BothGruber
p93
aV#Watch #Wearable \u2013 Esteemed Apple blogger: Third-party Apple Watch\u2026 http://t.co/sYzbPj3inF #Apple #iWatch #AppleWatch #apps #BothGruber
p94
aVApple Watch apps \u2018suck\u2019 and are \u2018really slow\u2019 Third-party http://t.co/FmOL2gvHuz #Apple #iWatch #AppleWatch #apps #BothGruber
p95
aV#Watch #Wearable \u2013 Esteemed Apple blogger: Third-party Apple Watch\u2026 http://t.co/qZFOZTmxvd #Apple #iWatch #AppleWatch #apps #BothGruber
p96
aV#Watch #Wearable \u2013 Esteemed Apple blogger: Third-party Apple Watch\u2026 http://t.co/RnqwxmSiHV #Apple #iWatch #AppleWatch #apps #BothGruber
p97
aV#Watch #Wearable \u2013 Esteemed Apple blogger: Third-party Apple Watch\u2026 http://t.co/yRrn1Yf7DW #Apple #iWatch #AppleWatch #apps #BothGruber
p98
aV#Watch #Wearable \u2013 Esteemed Apple blogger: Third-party Apple Watch\u2026 http://t.co/J8twd8jG2w #Apple #iWatch #AppleWatch #apps #BothGruber
p99
aV#Watch #Wearable \u2013 Esteemed Apple blogger: Third-party Apple Watch\u2026 http://t.co/YG0ORxaX03 #Apple #iWatch #AppleWatch #apps #BothGruber
p100
a.