(lp0
V#Watch #Wearable \u2013 Esteemed Apple blogger: Third-party Apple Watch\u2026 http://t.co/V2pZyUDuLF #Apple #iWatch #AppleWatch #apps #BothGruber
p1
aV#Watch #Wearable \u2013 Esteemed Apple blogger: Third-party Apple Watch\u2026 http://t.co/xMhdVXyCJ4 #Apple #iWatch #AppleWatch #apps #BothGruber
p2
aV#Watch #Wearable \u2013 Esteemed Apple blogger: Third-party Apple Watch\u2026 http://t.co/XbeB0qr6km #Apple #iWatch #AppleWatch #apps #BothGruber
p3
aV#Watch #Wearable \u2013 Esteemed Apple blogger: Third-party Apple Watch\u2026 http://t.co/pHtTBo8TVf #Apple #iWatch #AppleWatch #apps #BothGruber
p4
aV#Watch #Wearable \u2013 Esteemed Apple blogger: Third-party Apple Watch\u2026 http://t.co/6D58xVFile #Apple #iWatch #AppleWatch #apps #BothGruber
p5
aV#Watch #Wearable \u2013 Esteemed Apple blogger: Third-party Apple Watch\u2026 http://t.co/f8TiRh1Hxr #Apple #iWatch #AppleWatch #apps #BothGruber
p6
aV#Watch #Wearable \u2013 Esteemed Apple blogger: Third-party Apple Watch\u2026 http://t.co/YmVEOIO2n9 #Apple #iWatch #AppleWatch #apps #BothGruber
p7
aV#Watch #Wearable \u2013 Esteemed Apple blogger: Third-party Apple Watch\u2026 http://t.co/AjwbzQrTUQ #Apple #iWatch #AppleWatch #apps #BothGruber
p8
aV#Watch #Wearable \u2013 Esteemed Apple blogger: Third-party Apple Watch\u2026 http://t.co/x7ju4EHX5K #Apple #iWatch #AppleWatch #apps #BothGruber
p9
aV#Watch #Wearable \u2013 Esteemed Apple blogger: Third-party Apple Watch\u2026 http://t.co/KS1hp5QYK1 #Apple #iWatch #AppleWatch #apps #BothGruber
p10
aV#Watch #Wearable \u2013 Esteemed Apple blogger: Third-party Apple Watch\u2026 http://t.co/4jxRaEp9ZH #Apple #iWatch #AppleWatch #apps #BothGruber
p11
aV#Watch #Wearable \u2013 Esteemed Apple blogger: Third-party Apple Watch\u2026 http://t.co/2TPKWjmPSY #Apple #iWatch #AppleWatch #apps #BothGruber
p12
aV#Watch #Wearable \u2013 Esteemed Apple blogger: Third-party Apple Watch\u2026 http://t.co/FA2o3DLKpf #Apple #iWatch #AppleWatch #apps #BothGruber
p13
aV#Watch #Wearable \u2013 Esteemed Apple blogger: Third-party Apple Watch\u2026 http://t.co/45Yp5SMN5J #Apple #iWatch #AppleWatch #apps #BothGruber
p14
aV#Watch #Wearable \u2013 Esteemed Apple blogger: Third-party Apple Watch\u2026 http://t.co/0WgeaCDUzL #Apple #iWatch #AppleWatch #apps #BothGruber
p15
aV#Watch #Wearable \u2013 Esteemed Apple blogger: Third-party Apple Watch\u2026 http://t.co/P8nvqZyoWo #Apple #iWatch #AppleWatch #apps #BothGruber
p16
aV#Watch #Wearable \u2013 Esteemed Apple blogger: Third-party Apple Watch\u2026 http://t.co/DaRjDIwRsf #Apple #iWatch #AppleWatch #apps #BothGruber
p17
aV#Watch #Wearable \u2013 Esteemed Apple blogger: Third-party Apple Watch\u2026 http://t.co/mAP6Hdf59U #Apple #iWatch #AppleWatch #apps #BothGruber
p18
aV#Watch #Wearable \u2013 Esteemed Apple blogger: Third-party Apple Watch\u2026 http://t.co/w47JIaA4NU #Apple #iWatch #AppleWatch #apps #BothGruber
p19
aV#Watch #Wearable \u2013 Esteemed Apple blogger: Third-party Apple Watch\u2026 http://t.co/RbWuWvErWG #Apple #iWatch #AppleWatch #apps #BothGruber
p20
aV#Watch #Wearable \u2013 Esteemed Apple blogger: Third-party Apple Watch\u2026 http://t.co/JPq0fP2Rp6 #Apple #iWatch #AppleWatch #apps #BothGruber
p21
aVApple Watch apps \u2018suck\u2019 and are \u2018really slow\u2019 Third-party http://t.co/uOk60Qbntw #Apple #iWatch #AppleWatch #apps #BothGruber
p22
aV#Watch #Wearable \u2013 Esteemed Apple blogger: Third-party Apple Watch\u2026 http://t.co/XZJgmTJEVH #Apple #iWatch #AppleWatch #apps #BothGruber
p23
aV#Watch #Wearable \u2013 Esteemed Apple blogger: Third-party Apple Watch\u2026 http://t.co/9m0G2bzxKV #Apple #iWatch #AppleWatch #apps #BothGruber
p24
aVApple Watch apps \u2018suck\u2019 and are \u2018really slow\u2019 Third-party http://t.co/TmJUdHPUtr #Apple #iWatch #AppleWatch #apps #BothGruber
p25
aVApple Watch apps \u2018suck\u2019 and are \u2018really slow\u2019 Third-party http://t.co/mPWQXctvWg #Apple #iWatch #AppleWatch #apps #BothGruber
p26
aV#Watch #Wearable \u2013 Esteemed Apple blogger: Third-party Apple Watch\u2026 http://t.co/qL0tRUbvjo #Apple #iWatch #AppleWatch #apps #BothGruber
p27
aV#Watch #Wearable \u2013 Esteemed Apple blogger: Third-party Apple Watch\u2026 http://t.co/ySFmN4st3J #Apple #iWatch #AppleWatch #apps #BothGruber
p28
aV#Watch #Wearable \u2013 Esteemed Apple blogger: Third-party Apple Watch\u2026 http://t.co/wWXYfAOePv #Apple #iWatch #AppleWatch #apps #BothGruber
p29
aV#Watch #Wearable \u2013 Esteemed Apple blogger: Third-party Apple Watch\u2026 http://t.co/Rssh0yvHNg #Apple #iWatch #AppleWatch #apps #BothGruber
p30
aV#Watch #Wearable \u2013 Esteemed Apple blogger: Third-party Apple Watch\u2026 http://t.co/wWXYfB5Qe5 #Apple #iWatch #AppleWatch #apps #BothGruber
p31
aV#Watch #Wearable \u2013 Esteemed Apple blogger: Third-party Apple Watch\u2026 http://t.co/FsssI3mtxY #Apple #iWatch #AppleWatch #apps #BothGruber
p32
aVApple Watch apps \u2018suck\u2019 and are \u2018really slow\u2019 Third-party http://t.co/Gc2fE0oarn #Apple #iWatch #AppleWatch #apps #BothGruber
p33
aV#Watch #Wearable \u2013 Esteemed Apple blogger: Third-party Apple Watch\u2026 http://t.co/QXIAGcBdpa #Apple #iWatch #AppleWatch #apps #BothGruber
p34
aV#Watch #Wearable \u2013 Esteemed Apple blogger: Third-party Apple Watch\u2026 http://t.co/4RtTWadz7Q #Apple #iWatch #AppleWatch #apps #BothGruber
p35
aV#Watch #Wearable \u2013 Esteemed Apple blogger: Third-party Apple Watch\u2026 http://t.co/YoohMAjEh0 #Apple #iWatch #AppleWatch #apps #BothGruber
p36
aV#Watch #Wearable \u2013 Esteemed Apple blogger: Third-party Apple Watch\u2026 http://t.co/CLVyoZrD12 #Apple #iWatch #AppleWatch #apps #BothGruber
p37
aV#Watch #Wearable \u2013 Esteemed Apple blogger: Third-party Apple Watch\u2026 http://t.co/OCnYgq9gLu #Apple #iWatch #AppleWatch #apps #BothGruber
p38
aV#Watch #Wearable \u2013 Esteemed Apple blogger: Third-party Apple Watch\u2026 http://t.co/PJ1fKs9M5j #Apple #iWatch #AppleWatch #apps #BothGruber
p39
aV#Watch #Wearable \u2013 Esteemed Apple blogger: Third-party Apple Watch\u2026 http://t.co/8zghAbEEqI #Apple #iWatch #AppleWatch #apps #BothGruber
p40
aV#Watch #Wearable \u2013 Esteemed Apple blogger: Third-party Apple Watch\u2026 http://t.co/QXIAGcSONK #Apple #iWatch #AppleWatch #apps #BothGruber
p41
aV#Watch #Wearable \u2013 Esteemed Apple blogger: Third-party Apple Watch\u2026 http://t.co/qQQWr7hlnr #Apple #iWatch #AppleWatch #apps #BothGruber
p42
aV#Watch #Wearable \u2013 Esteemed Apple blogger: Third-party Apple Watch\u2026 http://t.co/9Ug1xeHXec #Apple #iWatch #AppleWatch #apps #BothGruber
p43
aV#Watch #Wearable \u2013 Esteemed Apple blogger: Third-party Apple Watch\u2026 http://t.co/RzpQItp3Wr #Apple #iWatch #AppleWatch #apps #BothGruber
p44
aV#Watch #Wearable \u2013 Esteemed Apple blogger: Third-party Apple Watch\u2026 http://t.co/Bkw82PCvy9 #Apple #iWatch #AppleWatch #apps #BothGruber
p45
aV#Watch #Wearable \u2013 Esteemed Apple blogger: Third-party Apple Watch\u2026 http://t.co/fJN10PtkTd #Apple #iWatch #AppleWatch #apps #BothGruber
p46
aV#Watch #Wearable \u2013 Esteemed Apple blogger: Third-party Apple Watch\u2026 http://t.co/sIZL2cSf2j #Apple #iWatch #AppleWatch #apps #BothGruber
p47
aV#Watch #Wearable \u2013 Esteemed Apple blogger: Third-party Apple Watch\u2026 http://t.co/DpnSxZxG5H #Apple #iWatch #AppleWatch #apps #BothGruber
p48
aV#Watch #Wearable \u2013 Esteemed Apple blogger: Third-party Apple Watch\u2026 http://t.co/0JZEkyONqf #Apple #iWatch #AppleWatch #apps #BothGruber
p49
aV#Watch #Wearable \u2013 Esteemed Apple blogger: Third-party Apple Watch\u2026 http://t.co/t5LREbyFwP #Apple #iWatch #AppleWatch #apps #BothGruber
p50
aVApple Watch apps \u2018suck\u2019 and are \u2018really slow\u2019 Third-party http://t.co/ciGOQnwvTP #Apple #iWatch #AppleWatch #apps #BothGruber
p51
aV#Watch #Wearable \u2013 Esteemed Apple blogger: Third-party Apple Watch\u2026 http://t.co/IIR14eG3og #Apple #iWatch #AppleWatch #apps #BothGruber
p52
aV#Watch #Wearable \u2013 Esteemed Apple blogger: Third-party Apple Watch\u2026 http://t.co/kZT9JPV4Uy #Apple #iWatch #AppleWatch #apps #BothGruber
p53
aV#Watch #Wearable \u2013 Esteemed Apple blogger: Third-party Apple Watch\u2026 http://t.co/cEZpR6mFPS #Apple #iWatch #AppleWatch #apps #BothGruber
p54
aVApple Watch apps \u2018suck\u2019 and are \u2018really slow\u2019 Third-party http://t.co/cnqxwPDfRf #Apple #iWatch #AppleWatch #apps #BothGruber
p55
aV#Watch #Wearable \u2013 Esteemed Apple blogger: Third-party Apple Watch\u2026 http://t.co/jORKRSzT63 #Apple #iWatch #AppleWatch #apps #BothGruber
p56
aV#Watch #Wearable \u2013 Esteemed Apple blogger: Third-party Apple Watch\u2026 http://t.co/XLK6CRwMxO #Apple #iWatch #AppleWatch #apps #BothGruber
p57
aV\u3053\u3046\u3044\u3046\u8b70\u8ad6\u3082AppleWatch\u306e\u8cfc\u8cb7\u3078\u306e\u5e03\u77f3\u306b\u3057\u304b\u898b\u3048\u306a\u3044(^^;\u201d\u300c\u30b9\u30de\u30db\u3067\u6642\u9593\u78ba\u8a8d\u300d\u306f\u9867\u5ba2\u306b\u5931\u793c\u306a\u306e\u304b \u300c\u793e\u4f1a\u4eba\u306a\u3093\u3060\u304b\u3089\u8155\u6642\u8a08\u3050\u3089\u3044\u3057\u306a\u3055\u3044\u300d\u306e\u58f0\u3082 - \u30a8\u30ad\u30b5\u30a4\u30c8\u30cb\u30e5\u30fc\u30b9 http://t.co/tZlNgte1lX
p58
aVRT @IBMbigdata: Your #AppleWatch health data will assist clinical care in the future http://t.co/3xLRTSh8fb http://t.co/zvFkQn4dFl
p59
aV\u9280\u5ea7\u306eApple\u5e97\u3067AppleWatch\u3092\u521d\u4f53\u9a13\u3057\u3066\u307f\u305f^_^\u219338mm.  \u219348mm\u3067\u3059^_^\u5b9f\u969b\u306b\u753b\u9762\u3092\u78ba\u304b\u3081\u308b\u3068\u5927\u304d\u3055\u304c\u5206\u304b\u308a\u307e\u3059\u3002 http://t.co/XlmB6HRphQ
p60
aVRT @WatchAware: The #AppleWatch app for @CNET is sleek,beautiful, and packs a ton of information into 1.5" http://t.co/ZlFKBX8tzl http://t.\u2026
p61
aVApple Watch il dispositivo pronto per il Salone del Mobile http://t.co/JK4tbsuGBg #newsonline #applewatch
p62
aVAppleWatch\u3068\u30e1\u30fc\u30e9\u30fc\u306e\u7d44\u307f\u5408\u308f\u305b\u306f\u8272\u3005\u30a2\u30a4\u30c7\u30a2\u3092\u51fa\u305b\u305d\u3046\u306a\u6c17\u304c\u3059\u308b\u306a\u3042\u3002\u30c1\u30e9\u898b\u2192\u4ed5\u5206\u3051\u30a2\u30af\u30b7\u30e7\u30f3\u3068\u304b\u3002\u81ea\u52d5\u4ed5\u5206\u3051\u3058\u3083\u306a\u3044\u3068\u3053\u304c\u30df\u30bd\u3002 https://t.co/IAXXOeMQR1
p63
aV#Watch #Wearable \u2013 Esteemed Apple blogger: Third-party Apple Watch\u2026 http://t.co/AJCdfo8gHS #Apple #iWatch #AppleWatch #apps #BothGruber
p64
aVhttp://t.co/AtCbxIBedV AppleWatch\u304c\u5973\u6027\u306b\u3074\u3063\u305f\u308a\u306a\u30a2\u30a4\u30c6\u30e0\u3067\u3057\u305f?
p65
aVRT @Zumbergfey: #Watch #Wearable \u2013 Esteemed Apple blogger: Third-party Apple Watch\u2026 http://t.co/AJCdfo8gHS #Apple #iWatch #AppleWatch #apps\u2026
p66
aV\u5fd8\u308c\u3061\u3083\u3044\u3051\u306a\u3044AppleWatch\u8a66\u7740
p67
aV#Watch #Wearable \u2013 Esteemed Apple blogger: Third-party Apple Watch\u2026 http://t.co/lMFKFhqHCB #Apple #iWatch #AppleWatch #apps #BothGruber
p68
aV#Watch #Wearable \u2013 Esteemed Apple blogger: Third-party Apple Watch\u2026 http://t.co/SrcE8GD6ua #Apple #iWatch #AppleWatch #apps #BothGruber
p69
aVFinally got to try an #AppleWatch on! Thank you @jerm_li for making the appointment \u231a\ufe0f @ Apple Store,\u2026 https://t.co/cnldrEEtFa
p70
aVWin an #AppleWatch from http://t.co/o0HJi1SxJt #contest #painrelief @lakotaherbs Enter here: http://t.co/z6v4CHdtWI
p71
aVWin an #AppleWatch from http://t.co/o0HJi1SxJt #contest #painrelief @lakotaherbs Enter here: http://t.co/CpSKYkGcv4
p72
aVWin an #AppleWatch from http://t.co/o0HJi1SxJt #contest #painrelief @lakotaherbs Enter here: http://t.co/eZ75GdwsCx
p73
aVWin an #AppleWatch from http://t.co/o0HJi1SxJt #contest #painrelief @lakotaherbs Enter here: http://t.co/omYaoX2P3H
p74
aVWin an #AppleWatch from http://t.co/o0HJi1SxJt #contest #painrelief @lakotaherbs Enter here: http://t.co/3dlZtfEPb7
p75
aVWin an #AppleWatch from http://t.co/o0HJi1SxJt #contest #painrelief @lakotaherbs Enter here: http://t.co/jLooPVlpdM
p76
aVWin an #AppleWatch from http://t.co/o0HJi1SxJt #contest #painrelief @lakotaherbs Enter here: http://t.co/NOGZhPtpBK
p77
aVWin an #AppleWatch from http://t.co/o0HJi1SxJt #contest #painrelief @lakotaherbs Enter here: http://t.co/AIPopejhU5
p78
aVWin an #AppleWatch from http://t.co/o0HJi1SxJt #contest #painrelief @lakotaherbs Enter here: http://t.co/isep8ogwu3
p79
aVWin an #AppleWatch from http://t.co/o0HJi1SxJt #contest #painrelief @lakotaherbs Enter here: http://t.co/sYAPBnaDSx
p80
aVWin an #AppleWatch from http://t.co/o0HJi1SxJt #contest #painrelief @lakotaherbs Enter here: http://t.co/fohtUOj7ZI
p81
aVWin an #AppleWatch from http://t.co/o0HJi1SxJt #contest #painrelief @lakotaherbs Enter here: http://t.co/HqflJLL4ar
p82
aVWin an #AppleWatch from http://t.co/o0HJi1SxJt #contest #painrelief @lakotaherbs Enter here: http://t.co/fV1QBP8cC4
p83
aVWin an #AppleWatch from http://t.co/o0HJi1SxJt #contest #painrelief @lakotaherbs Enter here: http://t.co/eUgSou7JYj
p84
aVWin an #AppleWatch from http://t.co/o0HJi1SxJt #contest #painrelief @lakotaherbs Enter here: http://t.co/rvTc7s3le4
p85
aVRT @forakerlabs: Curious what it\u2019s like to build an app for #AppleWatch? Learn all about it in @Hunter's latest blog post: http://t.co/AuJC\u2026
p86
aVRT @pschiller: Accessibility built-in\u000ahttp://t.co/7U0GhO1kN6\u000a#AppleWatch
p87
aV\u9280\u5ea7Apple\u5e97\u3067AppleWatch\u3092\u521d\u4f53\u9a13\u3057\u3066\u307f\u305f\u7b2c\u4e8c\u5f3e^ ^\u52d5\u753b\u7248\u3067\u3059\u3002 http://t.co/QzloN58fcE
p88
aVRT @kurioso: He hecho la comparativa que todos estabais esperando... #AppleWatch http://t.co/wSAGQpIWEi
p89
aV\u9280\u5ea7Apple\u5e97\u3067AppleWatch\u3092\u521d\u4f53\u9a13^ ^\u7b2c\u4e8c\u5f3e^ ^\u52d5\u753b\u7248\u3067\u3059\U0001f60a http://t.co/4iJe0Sk6Ct
p90
aVRT @ChloeGMoretz: Let's see what this #AppleWatch can do ! So excited http://t.co/P6ZEPubzoC
p91
aVRT @cgledhill: Australians will be able to do their banking on the @commbank #AppleWatch app\u231a\u000a\u000a http://t.co/OjmNCE5AFJ #fintech http://t.co\u2026
p92
aVJony Ive and Marc Newson reveal special #AppleWatch Sport Band colors at Milan gala http://t.co/YBqnHxbvZR http://t.co/VhG3v4KDxh
p93
aVhttp://t.co/YTLiq5n7zJ #AppleWatch Apple Loop: iOS 8 3 Bugs Break Touch ID, Build Your Own Apple Watch, The \u2607   90
p94
aV#Win an Apple Watch with Lowdown via @Lowdownapps  #AppleWatch #Contest #Giveaway #Tech\u000ahttp://t.co/E20gFInjJC
p95
aVRT @cgledhill: Australians will be able to do their banking on the @commbank #AppleWatch app\u231a\u000a\u000a http://t.co/OjmNCE5AFJ #fintech http://t.co\u2026
p96
aV#Win an #AppleWatch from http://t.co/JLn4KGqiNg #contest #painrelief @lakotaherbs #Tech #Giveaway #Apple  #AppleWatch\u000ahttp://t.co/8cB047BO2V
p97
aVMore #AppleWatch apps! http://t.co/oMFGnjYWNn
p98
aVRT @elevenjames: Gold &amp; Diamonds $163K #AppleWatch http://t.co/yoexsSEG0R @luxurylaunches #luxury http://t.co/wwTrywM2fZ
p99
aVAppleWatch\u306e\u4ea4\u63db\u30d0\u30f3\u30c9\u3001\u6db2\u6676\u4fdd\u8b77\u30d7\u30ed\u30c6\u30af\u30bf\u30fc\u767a\u58f2\uff01\uff01\u8155\u6642\u8a08\u306b\u6db2\u6676\u30d7\u30ed\u30c6\u30af\u30bf\u30fc\u3068\u304b\u30d0\u30ab\u3060\u308dwwww http://t.co/FqQXbFm3Wx #2ch #2ch\u307e\u3068\u3081 #2\u3061\u3083\u3093\u306d\u308b
p100
a.