(lp0
VTo use Apple Watch This awesome infographic\u2026 http://t.co/bEub0k0Kum #Apple #iWatch #applestore #AppleWatch #apps http://t.co/S5yBNp7bmY
p1
aVTo use Apple Watch This awesome infographic\u2026 http://t.co/G08fEvswWP #Apple #iWatch #applestore #AppleWatch #apps http://t.co/cAyb1GB7vt
p2
aV#Watch #Wearable \u2013 This awesome infographic\u2026 http://t.co/EdfwWNr3cx #Apple #iWatch #applestore #AppleWatch #apps http://t.co/iOqoc5rho8
p3
aV#Watch #Wearable \u2013 This awesome infographic\u2026 http://t.co/oLRv6k6R5b #Apple #iWatch #applestore #AppleWatch #apps http://t.co/EFcryD1kOf
p4
aV#Watch #Wearable \u2013 This awesome infographic\u2026 http://t.co/8100y0bVK6 #Apple #iWatch #applestore #AppleWatch #apps http://t.co/w3xPwHqZFV
p5
aV#Watch #Wearable \u2013 This awesome infographic\u2026 http://t.co/L4ny2JtmTq #Apple #iWatch #applestore #AppleWatch #apps http://t.co/Q966bgAlwM
p6
aV#Watch #Wearable \u2013 This awesome infographic tells you every Apple\u2026 http://t.co/swfqbJ15AX #Apple #iWatch #applestore #AppleWatch #apps
p7
aV#Watch #Wearable \u2013 This awesome infographic\u2026 http://t.co/Vk0juVpaPh #Apple #iWatch #applestore #AppleWatch #apps http://t.co/4frRXcfvuV
p8
aV#Watch #Wearable \u2013 This awesome infographic\u2026 http://t.co/lkqPj591NZ #Apple #iWatch #applestore #AppleWatch #apps http://t.co/OlsA5WdXIM
p9
aVTo use Apple Watch This awesome infographic\u2026 http://t.co/ezVD3BVguk #Apple #iWatch #applestore #AppleWatch #apps http://t.co/jqdFJFub64
p10
aV#Watch #Wearable \u2013 This awesome infographic\u2026 http://t.co/bbveFA91lR #Apple #iWatch #applestore #AppleWatch #apps http://t.co/yjIOZTSAW0
p11
aV#Watch #Wearable \u2013 This awesome infographic\u2026 http://t.co/KEIdabf5Jt #Apple #iWatch #applestore #AppleWatch #apps http://t.co/o7O4BMBvvk
p12
aV#Watch #Wearable \u2013 This awesome infographic\u2026 http://t.co/qpZLflCNEm #Apple #iWatch #applestore #AppleWatch #apps http://t.co/96iDi0Kx2E
p13
aV#Watch #Wearable \u2013 This awesome infographic\u2026 http://t.co/mGqlZA9eZL #Apple #iWatch #applestore #AppleWatch #apps http://t.co/XuSnBy0ws7
p14
aV#Watch #Wearable \u2013 This awesome infographic tells you every Apple\u2026 http://t.co/MliPnfMTZ0 #Apple #iWatch #applestore #AppleWatch #apps
p15
aV#Watch #Wearable \u2013 This awesome infographic\u2026 http://t.co/WAZA836l52 #Apple #iWatch #applestore #AppleWatch #apps http://t.co/aacd9jwE5u
p16
aV#Watch #Wearable \u2013 This awesome infographic\u2026 http://t.co/8dzv1JInMc #Apple #iWatch #applestore #AppleWatch #apps http://t.co/9tmSx8vxEc
p17
aV#Watch #Wearable \u2013 This awesome infographic\u2026 http://t.co/e0fvGghDoG #Apple #iWatch #applestore #AppleWatch #apps http://t.co/nTdz5vG2T9
p18
aV#Watch #Wearable \u2013 This awesome infographic\u2026 http://t.co/KZLDqqiwA7 #Apple #iWatch #applestore #AppleWatch #apps http://t.co/C0LggtK9AA
p19
aVTo use Apple Watch This awesome infographic\u2026 http://t.co/xxFhaP8emj #Apple #iWatch #applestore #AppleWatch #apps http://t.co/BDEAQPvFWI
p20
aV#Watch #Wearable \u2013 This awesome infographic\u2026 http://t.co/tGfWUazYRD #Apple #iWatch #applestore #AppleWatch #apps http://t.co/1UvMReU4W1
p21
aV#Watch #Wearable \u2013 This awesome infographic\u2026 http://t.co/khHqA8FIhC #Apple #iWatch #applestore #AppleWatch #apps http://t.co/9x5D2bx9Hi
p22
aV#Watch #Wearable \u2013 This awesome infographic\u2026 http://t.co/swfqbJ15AX #Apple #iWatch #applestore #AppleWatch #apps http://t.co/IR2C1Hx2mw
p23
aV#Watch #Wearable \u2013 This awesome infographic\u2026 http://t.co/dtAVeGBiTy #Apple #iWatch #applestore #AppleWatch #apps http://t.co/6cN7F7YkL6
p24
aVTo use Apple Watch This awesome infographic\u2026 http://t.co/7tcFxqLxGv #Apple #iWatch #applestore #AppleWatch #apps http://t.co/8bpfOkvJoe
p25
aV#Watch #Wearable \u2013 This awesome infographic\u2026 http://t.co/0qU9ADTetn #Apple #iWatch #applestore #AppleWatch #apps http://t.co/AtHkkMhsTt
p26
aV#Watch #Wearable \u2013 This awesome infographic\u2026 http://t.co/Wu5esghkCi #Apple #iWatch #applestore #AppleWatch #apps http://t.co/PYtvubSR4b
p27
aV#Watch #Wearable \u2013 This awesome infographic\u2026 http://t.co/qpZLflCNEm #Apple #iWatch #applestore #AppleWatch #apps http://t.co/duBC0018mk
p28
aV#Watch #Wearable \u2013 This awesome infographic tells you every Apple\u2026 http://t.co/h72ZRAqHWu #Apple #iWatch #applestore #AppleWatch #apps
p29
aV#Watch #Wearable \u2013 This awesome infographic\u2026 http://t.co/BlZvUXc4Fl #Apple #iWatch #applestore #AppleWatch #apps http://t.co/3PBVq2vIgl
p30
aV#Watch #Wearable \u2013 This awesome infographic\u2026 http://t.co/2mNXvkU2mB #Apple #iWatch #applestore #AppleWatch #apps http://t.co/MnWOMOG2PW
p31
aV#Watch #Wearable \u2013 This awesome infographic tells you every Apple\u2026 http://t.co/MWeCUpAtSI #Apple #iWatch #applestore #AppleWatch #apps
p32
aV#Watch #Wearable \u2013 This awesome infographic tells you every Apple\u2026 http://t.co/RJCwnpOMIz #Apple #iWatch #applestore #AppleWatch #apps
p33
aV#Watch #Wearable \u2013 This awesome infographic\u2026 http://t.co/mmtP1bMhB8 #Apple #iWatch #applestore #AppleWatch #apps http://t.co/kdKRpiCEiP
p34
aV#Watch #Wearable \u2013 This awesome infographic tells you every Apple\u2026 http://t.co/MWw599KJWN #Apple #iWatch #applestore #AppleWatch #apps
p35
aV#Watch #Wearable \u2013 This awesome infographic tells you every Apple\u2026 http://t.co/yThvCa9x45 #Apple #iWatch #applestore #AppleWatch #apps
p36
aV#Watch #Wearable \u2013 This awesome infographic\u2026 http://t.co/ABPUgveh0z #Apple #iWatch #applestore #AppleWatch #apps http://t.co/dAxToZS4u1
p37
aV#Watch #Wearable \u2013 This awesome infographic\u2026 http://t.co/9Ur5CxxSsQ #Apple #iWatch #applestore #AppleWatch #apps http://t.co/IJXEH4piJi
p38
aV#Watch #Wearable \u2013 This awesome infographic tells you every Apple\u2026 http://t.co/VcfZ9qoPqQ #Apple #iWatch #applestore #AppleWatch #apps
p39
aV#Watch #Wearable \u2013 This awesome infographic\u2026 http://t.co/h72ZRAqHWu #Apple #iWatch #applestore #AppleWatch #apps http://t.co/gUQGWaY6Ql
p40
aVTo use Apple Watch This awesome infographic tells you every gesture\u2026 http://t.co/S3hfI68xt5 #Apple #iWatch #applestore #AppleWatch #apps
p41
aV#Watch #Wearable \u2013 This awesome infographic tells you every Apple\u2026 http://t.co/yXBOMi3UNR #Apple #iWatch #applestore #AppleWatch #apps
p42
aV#Watch #Wearable \u2013 This awesome infographic\u2026 http://t.co/YqajCcSKuy #Apple #iWatch #applestore #AppleWatch #apps http://t.co/noeit7NI8q
p43
aV#Watch #Wearable \u2013 This awesome infographic\u2026 http://t.co/MliPnfMTZ0 #Apple #iWatch #applestore #AppleWatch #apps http://t.co/nKekLPotuw
p44
aV#Watch #Wearable \u2013 This awesome infographic\u2026 http://t.co/MWeCUpAtSI #Apple #iWatch #applestore #AppleWatch #apps http://t.co/b0dnAJDdO6
p45
aV#Watch #Wearable \u2013 This awesome infographic\u2026 http://t.co/jvYjmddXpF #Apple #iWatch #applestore #AppleWatch #apps http://t.co/B80WD0bKEb
p46
aV#Watch #Wearable \u2013 This awesome infographic\u2026 http://t.co/VcfZ9qoPqQ #Apple #iWatch #applestore #AppleWatch #apps http://t.co/CcslvFsHV9
p47
aV#Watch #Wearable \u2013 This awesome infographic tells you every Apple\u2026 http://t.co/zro9s8hlou #Apple #iWatch #applestore #AppleWatch #apps
p48
aV#Watch #Wearable \u2013 This awesome infographic\u2026 http://t.co/jvcDGwoINp #Apple #iWatch #applestore #AppleWatch #apps http://t.co/VGJSVNov47
p49
aV#Watch #Wearable \u2013 This awesome infographic\u2026 http://t.co/RJCwnpOMIz #Apple #iWatch #applestore #AppleWatch #apps http://t.co/gKIjHxsWPw
p50
aVTo use Apple Watch This awesome infographic tells you every gesture\u2026 http://t.co/nV2bEXT1N2 #Apple #iWatch #applestore #AppleWatch #apps
p51
aV#Watch #Wearable \u2013 This awesome infographic\u2026 http://t.co/nlKRFYpPJi #Apple #iWatch #applestore #AppleWatch #apps http://t.co/8HqNEtjtnW
p52
aV#Watch #Wearable \u2013 This awesome infographic\u2026 http://t.co/3Y3dPml2rk #Apple #iWatch #applestore #AppleWatch #apps http://t.co/2qyLzseWAD
p53
aV#Watch #Wearable \u2013 This awesome infographic tells you every Apple\u2026 http://t.co/qtGlBKz9rV #Apple #iWatch #applestore #AppleWatch #apps
p54
aV#Watch #Wearable \u2013 This awesome infographic\u2026 http://t.co/yThvCa9x45 #Apple #iWatch #applestore #AppleWatch #apps http://t.co/oB7bP4iQmX
p55
aV#Watch #Wearable \u2013 This awesome infographic tells you every Apple\u2026 http://t.co/zvUAMlenm1 #Apple #iWatch #applestore #AppleWatch #apps
p56
aV#Watch #Wearable \u2013 This awesome infographic\u2026 http://t.co/MWw599KJWN #Apple #iWatch #applestore #AppleWatch #apps http://t.co/NBrjDwAGWn
p57
aV#Watch #Wearable \u2013 This awesome infographic tells you every Apple\u2026 http://t.co/M12P5PFvDh #Apple #iWatch #applestore #AppleWatch #apps
p58
aVTo use Apple Watch This awesome infographic\u2026 http://t.co/S3hfI68xt5 #Apple #iWatch #applestore #AppleWatch #apps http://t.co/YH1VFVjTaG
p59
aV#Watch #Wearable \u2013 This awesome infographic\u2026 http://t.co/qtGlBKz9rV #Apple #iWatch #applestore #AppleWatch #apps http://t.co/fbPDWpxeVf
p60
aV#Watch #Wearable \u2013 This awesome infographic\u2026 http://t.co/yXBOMi3UNR #Apple #iWatch #applestore #AppleWatch #apps http://t.co/UqBX4oewFi
p61
aV#Watch #Wearable \u2013 This awesome infographic tells you every Apple\u2026 http://t.co/eHzKwLfRBA #Apple #iWatch #applestore #AppleWatch #apps
p62
aV#Watch #Wearable \u2013 This awesome infographic tells you every Apple\u2026 http://t.co/2SjexQ8aWg #Apple #iWatch #applestore #AppleWatch #apps
p63
aV#Watch #Wearable \u2013 This awesome infographic\u2026 http://t.co/zvUAMlenm1 #Apple #iWatch #applestore #AppleWatch #apps http://t.co/wHHm0Kxu2t
p64
aV#Watch #Wearable \u2013 This awesome infographic tells you every Apple\u2026 http://t.co/BqksyYKXs5 #Apple #iWatch #applestore #AppleWatch #apps
p65
aV#Watch #Wearable \u2013 This awesome infographic tells you every Apple\u2026 http://t.co/bOnoECqdqw #Apple #iWatch #applestore #AppleWatch #apps
p66
aVTo use Apple Watch This awesome infographic\u2026 http://t.co/nV2bEXT1N2 #Apple #iWatch #applestore #AppleWatch #apps http://t.co/xUzF5hDXNE
p67
aV#Watch #Wearable \u2013 This awesome infographic\u2026 http://t.co/zro9s8hlou #Apple #iWatch #applestore #AppleWatch #apps http://t.co/5nEtefCDvv
p68
aV#Watch #Wearable \u2013 This awesome infographic tells you every Apple\u2026 http://t.co/uiSKRBFVfX #Apple #iWatch #applestore #AppleWatch #apps
p69
aV#Watch #Wearable \u2013 This awesome infographic tells you every Apple\u2026 http://t.co/RNjylZnHYo #Apple #iWatch #applestore #AppleWatch #apps
p70
aV#Watch #Wearable \u2013 This awesome infographic\u2026 http://t.co/eHzKwLfRBA #Apple #iWatch #applestore #AppleWatch #apps http://t.co/uPZp7qJAh1
p71
aV#Watch #Wearable \u2013 This awesome infographic tells you every Apple\u2026 http://t.co/JcdXXybHHq #Apple #iWatch #applestore #AppleWatch #apps
p72
aV#Watch #Wearable \u2013 This awesome infographic tells you every Apple\u2026 http://t.co/92gu8OBHJa #Apple #iWatch #applestore #AppleWatch #apps
p73
aV#Watch #Wearable \u2013 This awesome infographic\u2026 http://t.co/2SjexQ8aWg #Apple #iWatch #applestore #AppleWatch #apps http://t.co/orperIyopw
p74
aV#Watch #Wearable \u2013 This awesome infographic tells you every Apple\u2026 http://t.co/Ul40in1rqk #Apple #iWatch #applestore #AppleWatch #apps
p75
aV#Watch #Wearable \u2013 This awesome infographic tells you every Apple\u2026 http://t.co/VaRLIPuDCE #Apple #iWatch #applestore #AppleWatch #apps
p76
aV#Watch #Wearable \u2013 This awesome infographic tells you every Apple\u2026 http://t.co/CPXTDzVlY7 #Apple #iWatch #applestore #AppleWatch #apps
p77
aV#Watch #Wearable \u2013 This awesome infographic tells you every Apple\u2026 http://t.co/TTI4fxvIyf #Apple #iWatch #applestore #AppleWatch #apps
p78
aV#Watch #Wearable \u2013 This awesome infographic\u2026 http://t.co/M12P5PFvDh #Apple #iWatch #applestore #AppleWatch #apps http://t.co/fH9yfmWOe7
p79
aV#Watch #Wearable \u2013 This awesome infographic tells you every Apple\u2026 http://t.co/XXlTTbiwTu #Apple #iWatch #applestore #AppleWatch #apps
p80
aV#Watch #Wearable \u2013 This awesome infographic\u2026 http://t.co/uiSKRBFVfX #Apple #iWatch #applestore #AppleWatch #apps http://t.co/HBWRkqxRRX
p81
aVTo use Apple Watch This awesome infographic tells you every gesture\u2026 http://t.co/86EofqFtxz #Apple #iWatch #applestore #AppleWatch #apps
p82
aV#Watch #Wearable \u2013 This awesome infographic\u2026 http://t.co/KglYrV2UUg #Apple #iWatch #applestore #AppleWatch #apps http://t.co/06RGiSDQAc
p83
aV#Watch #Wearable \u2013 This awesome infographic\u2026 http://t.co/JcdXXybHHq #Apple #iWatch #applestore #AppleWatch #apps http://t.co/NPzpvOAryb
p84
aV#Watch #Wearable \u2013 This awesome infographic\u2026 http://t.co/CPXTDzVlY7 #Apple #iWatch #applestore #AppleWatch #apps http://t.co/83i8yG4J1d
p85
aV#Watch #Wearable \u2013 This awesome infographic\u2026 http://t.co/92gu8OBHJa #Apple #iWatch #applestore #AppleWatch #apps http://t.co/ytLk7XOdW3
p86
aV#Watch #Wearable \u2013 This awesome infographic tells you every Apple\u2026 http://t.co/caAee1dcti #Apple #iWatch #applestore #AppleWatch #apps
p87
aV#Watch #Wearable \u2013 This awesome infographic tells you every Apple\u2026 http://t.co/VlOsDKs1mz #Apple #iWatch #applestore #AppleWatch #apps
p88
aV#Watch #Wearable \u2013 This awesome infographic\u2026 http://t.co/bOnoECqdqw #Apple #iWatch #applestore #AppleWatch #apps http://t.co/rELkasu96P
p89
aV#Watch #Wearable \u2013 This awesome infographic\u2026 http://t.co/BqksyYKXs5 #Apple #iWatch #applestore #AppleWatch #apps http://t.co/rF8uwl3edb
p90
aV#Watch #Wearable \u2013 This awesome infographic tells you every Apple\u2026 http://t.co/LLmzanAMUA #Apple #iWatch #applestore #AppleWatch #apps
p91
aV#Watch #Wearable \u2013 This awesome infographic\u2026 http://t.co/TTI4fxvIyf #Apple #iWatch #applestore #AppleWatch #apps http://t.co/8jEFQi786M
p92
aV#Watch #Wearable \u2013 This awesome infographic\u2026 http://t.co/zWFwM3s2ZE #Apple #iWatch #applestore #AppleWatch #apps http://t.co/1srN2wrXcW
p93
aV#Watch #Wearable \u2013 This awesome infographic tells you every Apple\u2026 http://t.co/jJxdTtnxUe #Apple #iWatch #applestore #AppleWatch #apps
p94
aV#Watch #Wearable \u2013 This awesome infographic\u2026 http://t.co/QB4aL7NyqP #Apple #iWatch #applestore #AppleWatch #apps http://t.co/2MgMt9RIrd
p95
aV#Watch #Wearable \u2013 This awesome infographic\u2026 http://t.co/caAee1dcti #Apple #iWatch #applestore #AppleWatch #apps http://t.co/jCFSuj4khO
p96
aVTo use Apple Watch This awesome infographic tells you every gesture\u2026 http://t.co/9vEsBfd08e #Apple #iWatch #applestore #AppleWatch #apps
p97
aV#Watch #Wearable \u2013 This awesome infographic\u2026 http://t.co/Ul40in1rqk #Apple #iWatch #applestore #AppleWatch #apps http://t.co/NcAqz6Q6rz
p98
aV#Watch #Wearable \u2013 This awesome infographic\u2026 http://t.co/VlOsDKs1mz #Apple #iWatch #applestore #AppleWatch #apps http://t.co/dnyuQQGC4j
p99
aV#Watch #Wearable \u2013 This awesome infographic\u2026 http://t.co/RNjylZnHYo #Apple #iWatch #applestore #AppleWatch #apps http://t.co/eEb8rU0xvw
p100
a.