(lp0
VLoving the @peeltv and #Pronto combo! Will the #AppleWatch app update be ready in time? :-)
p1
aVShould I buy or not? \u231a\ufe0f\u231a\ufe0f\u231a\ufe0f #applewatch #miansai #bracelet #instadfw #knoxstreet #VSCOcam @ Apple\u2026 https://t.co/8WnmNKdcrI
p2
aVI can't wait to get this #AppleWatch
p3
aV@OTKammah: Loving the @peeltv and @ProntoControl combo! Will the #AppleWatch app update be ready in time? :-)
p4
aVRT @Jessewelle: Look what came in the mail today. #AppleWatch http://t.co/SyFdaQKHGc
p5
aVanswer to http://t.co/0977bm8ozN \u000a#Apple #AppleWatch #innovation #startup #marketing #SilliconValley http://t.co/hPt2zeqEUL . 16.04 04:33
p6
aV#AppleWatch \u2014 Guided Tour: Maps http://t.co/VnlrWx3EHx
p7
aV#News for #Apple fans! The Mint app is available now for #AppleWatch, which hits stores 4/24: http://t.co/ErsLEEWdjv
p8
aVI bet her #AppleWatch makes it better  https://t.co/AQu5iFk8lW
p9
aV#AppleWatch \u2014 Guided Tour: Siri http://t.co/KhVIyyxdfk
p10
aV\u3010News\u3011\u25b6 \u30a2\u30c3\u30d7\u30eb\u30d5\u30a1\u30f3\u6b53\u559c\uff01\u3082\u305780\u5e74\u4ee3\u306bApple Watch\u304c\u3042\u3063\u305f\u3089\u3053\u3093\u306a\u98a8\u306b\u306a\u3063\u3066\u3044\u305f - http://t.co/q0MFgqxMF5 #AppleWatch #\u52d5\u753b
p11
aV17k for the apple watch I like? UM does it drive me around??? #AppleWatch #nothankyou
p12
aVApple Releases New GuidedTours for AppleWatch: Phone Calls, Siri, Maps, Music http://t.co/O64gXgcPKA
p13
aVI'm raising money for AppleWatch fund. Click to Donate: http://t.co/ApssbFDuPx
p14
aVRT @kasegu_knowhow: \u3010\u8a71\u984c\u306e\u753b\u50cf\u3011\u5996\u602a\u30a6\u30a9\u30c3\u30c1\u3068AppleWatch\u306e\u6bd4\u8f03
p15
aVRT @kasegu_knowhow: \u3010\u8a71\u984c\u306e\u753b\u50cf\u3011\u5996\u602a\u30a6\u30a9\u30c3\u30c1\u3068AppleWatch\u306e\u6bd4\u8f03
p16
aVRT @kasegu_knowhow: \u3010\u8a71\u984c\u306e\u753b\u50cf\u3011\u5996\u602a\u30a6\u30a9\u30c3\u30c1\u3068AppleWatch\u306e\u6bd4\u8f03
p17
aVRT @kasegu_knowhow: \u3010\u8a71\u984c\u306e\u753b\u50cf\u3011\u5996\u602a\u30a6\u30a9\u30c3\u30c1\u3068AppleWatch\u306e\u6bd4\u8f03
p18
aVRT @kasegu_knowhow: \u3010\u8a71\u984c\u306e\u753b\u50cf\u3011\u5996\u602a\u30a6\u30a9\u30c3\u30c1\u3068AppleWatch\u306e\u6bd4\u8f03
p19
aVRT @kasegu_knowhow: \u3010\u8a71\u984c\u306e\u753b\u50cf\u3011\u5996\u602a\u30a6\u30a9\u30c3\u30c1\u3068AppleWatch\u306e\u6bd4\u8f03
p20
aVRT @kasegu_knowhow: \u3010\u8a71\u984c\u306e\u753b\u50cf\u3011\u5996\u602a\u30a6\u30a9\u30c3\u30c1\u3068AppleWatch\u306e\u6bd4\u8f03
p21
aVRT @kasegu_knowhow: \u3010\u8a71\u984c\u306e\u753b\u50cf\u3011\u5996\u602a\u30a6\u30a9\u30c3\u30c1\u3068AppleWatch\u306e\u6bd4\u8f03
p22
aVRT @kasegu_knowhow: \u3010\u8a71\u984c\u306e\u753b\u50cf\u3011\u5996\u602a\u30a6\u30a9\u30c3\u30c1\u3068AppleWatch\u306e\u6bd4\u8f03
p23
aVRT @kasegu_knowhow: \u3010\u8a71\u984c\u306e\u753b\u50cf\u3011\u5996\u602a\u30a6\u30a9\u30c3\u30c1\u3068AppleWatch\u306e\u6bd4\u8f03
p24
aVRT @kasegu_knowhow: \u3010\u8a71\u984c\u306e\u753b\u50cf\u3011\u5996\u602a\u30a6\u30a9\u30c3\u30c1\u3068AppleWatch\u306e\u6bd4\u8f03
p25
aVRT @kasegu_knowhow: \u3010\u8a71\u984c\u306e\u753b\u50cf\u3011\u5996\u602a\u30a6\u30a9\u30c3\u30c1\u3068AppleWatch\u306e\u6bd4\u8f03
p26
aVRT @kasegu_knowhow: \u3010\u8a71\u984c\u306e\u753b\u50cf\u3011\u5996\u602a\u30a6\u30a9\u30c3\u30c1\u3068AppleWatch\u306e\u6bd4\u8f03
p27
aVRT @kasegu_knowhow: \u3010\u8a71\u984c\u306e\u753b\u50cf\u3011\u5996\u602a\u30a6\u30a9\u30c3\u30c1\u3068AppleWatch\u306e\u6bd4\u8f03
p28
aVRT @kasegu_knowhow: \u3010\u8a71\u984c\u306e\u753b\u50cf\u3011\u5996\u602a\u30a6\u30a9\u30c3\u30c1\u3068AppleWatch\u306e\u6bd4\u8f03
p29
aVRT @kasegu_knowhow: \u3010\u8a71\u984c\u306e\u753b\u50cf\u3011\u5996\u602a\u30a6\u30a9\u30c3\u30c1\u3068AppleWatch\u306e\u6bd4\u8f03
p30
aVRT @kasegu_knowhow: \u3010\u8a71\u984c\u306e\u753b\u50cf\u3011\u5996\u602a\u30a6\u30a9\u30c3\u30c1\u3068AppleWatch\u306e\u6bd4\u8f03
p31
aVRT @kasegu_knowhow: \u3010\u8a71\u984c\u306e\u753b\u50cf\u3011\u5996\u602a\u30a6\u30a9\u30c3\u30c1\u3068AppleWatch\u306e\u6bd4\u8f03
p32
aVRT @kasegu_knowhow: \u3010\u8a71\u984c\u306e\u753b\u50cf\u3011\u5996\u602a\u30a6\u30a9\u30c3\u30c1\u3068AppleWatch\u306e\u6bd4\u8f03
p33
aVRT @kasegu_knowhow: \u3010\u8a71\u984c\u306e\u753b\u50cf\u3011\u5996\u602a\u30a6\u30a9\u30c3\u30c1\u3068AppleWatch\u306e\u6bd4\u8f03
p34
aVRT @kasegu_knowhow: \u3010\u8a71\u984c\u306e\u753b\u50cf\u3011\u5996\u602a\u30a6\u30a9\u30c3\u30c1\u3068AppleWatch\u306e\u6bd4\u8f03
p35
aVRT @kasegu_knowhow: \u3010\u8a71\u984c\u306e\u753b\u50cf\u3011\u5996\u602a\u30a6\u30a9\u30c3\u30c1\u3068AppleWatch\u306e\u6bd4\u8f03
p36
aVRT @kasegu_knowhow: \u3010\u8a71\u984c\u306e\u753b\u50cf\u3011\u5996\u602a\u30a6\u30a9\u30c3\u30c1\u3068AppleWatch\u306e\u6bd4\u8f03
p37
aVRT @kasegu_knowhow: \u3010\u8a71\u984c\u306e\u753b\u50cf\u3011\u5996\u602a\u30a6\u30a9\u30c3\u30c1\u3068AppleWatch\u306e\u6bd4\u8f03
p38
aVRT @kasegu_knowhow: \u3010\u8a71\u984c\u306e\u753b\u50cf\u3011\u5996\u602a\u30a6\u30a9\u30c3\u30c1\u3068AppleWatch\u306e\u6bd4\u8f03
p39
aVRT @kasegu_knowhow: \u3010\u8a71\u984c\u306e\u753b\u50cf\u3011\u5996\u602a\u30a6\u30a9\u30c3\u30c1\u3068AppleWatch\u306e\u6bd4\u8f03
p40
aVRT @kasegu_knowhow: \u3010\u8a71\u984c\u306e\u753b\u50cf\u3011\u5996\u602a\u30a6\u30a9\u30c3\u30c1\u3068AppleWatch\u306e\u6bd4\u8f03
p41
aVRT @kasegu_knowhow: \u3010\u8a71\u984c\u306e\u753b\u50cf\u3011\u5996\u602a\u30a6\u30a9\u30c3\u30c1\u3068AppleWatch\u306e\u6bd4\u8f03
p42
aVRT @kasegu_knowhow: \u3010\u8a71\u984c\u306e\u753b\u50cf\u3011\u5996\u602a\u30a6\u30a9\u30c3\u30c1\u3068AppleWatch\u306e\u6bd4\u8f03
p43
aVRT @kasegu_knowhow: \u3010\u8a71\u984c\u306e\u753b\u50cf\u3011\u5996\u602a\u30a6\u30a9\u30c3\u30c1\u3068AppleWatch\u306e\u6bd4\u8f03
p44
aVRT @kasegu_knowhow: \u3010\u8a71\u984c\u306e\u753b\u50cf\u3011\u5996\u602a\u30a6\u30a9\u30c3\u30c1\u3068AppleWatch\u306e\u6bd4\u8f03
p45
aVRT @kasegu_knowhow: \u3010\u8a71\u984c\u306e\u753b\u50cf\u3011\u5996\u602a\u30a6\u30a9\u30c3\u30c1\u3068AppleWatch\u306e\u6bd4\u8f03
p46
aVRT @kasegu_knowhow: \u3010\u8a71\u984c\u306e\u753b\u50cf\u3011\u5996\u602a\u30a6\u30a9\u30c3\u30c1\u3068AppleWatch\u306e\u6bd4\u8f03
p47
aVRT @kasegu_knowhow: \u3010\u8a71\u984c\u306e\u753b\u50cf\u3011\u5996\u602a\u30a6\u30a9\u30c3\u30c1\u3068AppleWatch\u306e\u6bd4\u8f03
p48
aVRT @kasegu_knowhow: \u3010\u8a71\u984c\u306e\u753b\u50cf\u3011\u5996\u602a\u30a6\u30a9\u30c3\u30c1\u3068AppleWatch\u306e\u6bd4\u8f03
p49
aVRT @kasegu_knowhow: \u3010\u8a71\u984c\u306e\u753b\u50cf\u3011\u5996\u602a\u30a6\u30a9\u30c3\u30c1\u3068AppleWatch\u306e\u6bd4\u8f03
p50
aVRT @kasegu_knowhow: \u3010\u8a71\u984c\u306e\u753b\u50cf\u3011\u5996\u602a\u30a6\u30a9\u30c3\u30c1\u3068AppleWatch\u306e\u6bd4\u8f03
p51
aVRT @kasegu_knowhow: \u3010\u8a71\u984c\u306e\u753b\u50cf\u3011\u5996\u602a\u30a6\u30a9\u30c3\u30c1\u3068AppleWatch\u306e\u6bd4\u8f03
p52
aVRT @kasegu_knowhow: \u3010\u8a71\u984c\u306e\u753b\u50cf\u3011\u5996\u602a\u30a6\u30a9\u30c3\u30c1\u3068AppleWatch\u306e\u6bd4\u8f03
p53
aVRT @kasegu_knowhow: \u3010\u8a71\u984c\u306e\u753b\u50cf\u3011\u5996\u602a\u30a6\u30a9\u30c3\u30c1\u3068AppleWatch\u306e\u6bd4\u8f03
p54
aVRT @kasegu_knowhow: \u3010\u8a71\u984c\u306e\u753b\u50cf\u3011\u5996\u602a\u30a6\u30a9\u30c3\u30c1\u3068AppleWatch\u306e\u6bd4\u8f03
p55
aVRT @kasegu_knowhow: \u3010\u8a71\u984c\u306e\u753b\u50cf\u3011\u5996\u602a\u30a6\u30a9\u30c3\u30c1\u3068AppleWatch\u306e\u6bd4\u8f03
p56
aVRT @kasegu_knowhow: \u3010\u8a71\u984c\u306e\u753b\u50cf\u3011\u5996\u602a\u30a6\u30a9\u30c3\u30c1\u3068AppleWatch\u306e\u6bd4\u8f03
p57
aVRT @kasegu_knowhow: \u3010\u8a71\u984c\u306e\u753b\u50cf\u3011\u5996\u602a\u30a6\u30a9\u30c3\u30c1\u3068AppleWatch\u306e\u6bd4\u8f03
p58
aVRT @kasegu_knowhow: \u3010\u8a71\u984c\u306e\u753b\u50cf\u3011\u5996\u602a\u30a6\u30a9\u30c3\u30c1\u3068AppleWatch\u306e\u6bd4\u8f03
p59
aVRT @kasegu_knowhow: \u3010\u8a71\u984c\u306e\u753b\u50cf\u3011\u5996\u602a\u30a6\u30a9\u30c3\u30c1\u3068AppleWatch\u306e\u6bd4\u8f03
p60
aVRT @kasegu_knowhow: \u3010\u8a71\u984c\u306e\u753b\u50cf\u3011\u5996\u602a\u30a6\u30a9\u30c3\u30c1\u3068AppleWatch\u306e\u6bd4\u8f03
p61
aVRT @kasegu_knowhow: \u3010\u8a71\u984c\u306e\u753b\u50cf\u3011\u5996\u602a\u30a6\u30a9\u30c3\u30c1\u3068AppleWatch\u306e\u6bd4\u8f03
p62
aVRT @kasegu_knowhow: \u3010\u8a71\u984c\u306e\u753b\u50cf\u3011\u5996\u602a\u30a6\u30a9\u30c3\u30c1\u3068AppleWatch\u306e\u6bd4\u8f03
p63
aVRT @kasegu_knowhow: \u3010\u8a71\u984c\u306e\u753b\u50cf\u3011\u5996\u602a\u30a6\u30a9\u30c3\u30c1\u3068AppleWatch\u306e\u6bd4\u8f03
p64
aVRT @kasegu_knowhow: \u3010\u8a71\u984c\u306e\u753b\u50cf\u3011\u5996\u602a\u30a6\u30a9\u30c3\u30c1\u3068AppleWatch\u306e\u6bd4\u8f03
p65
aVRT @kasegu_knowhow: \u3010\u8a71\u984c\u306e\u753b\u50cf\u3011\u5996\u602a\u30a6\u30a9\u30c3\u30c1\u3068AppleWatch\u306e\u6bd4\u8f03
p66
aVRT @kasegu_knowhow: \u3010\u8a71\u984c\u306e\u753b\u50cf\u3011\u5996\u602a\u30a6\u30a9\u30c3\u30c1\u3068AppleWatch\u306e\u6bd4\u8f03
p67
aVRT @kasegu_knowhow: \u3010\u8a71\u984c\u306e\u753b\u50cf\u3011\u5996\u602a\u30a6\u30a9\u30c3\u30c1\u3068AppleWatch\u306e\u6bd4\u8f03
p68
aVRT @kasegu_knowhow: \u3010\u8a71\u984c\u306e\u753b\u50cf\u3011\u5996\u602a\u30a6\u30a9\u30c3\u30c1\u3068AppleWatch\u306e\u6bd4\u8f03
p69
aVRT @kasegu_knowhow: \u3010\u8a71\u984c\u306e\u753b\u50cf\u3011\u5996\u602a\u30a6\u30a9\u30c3\u30c1\u3068AppleWatch\u306e\u6bd4\u8f03
p70
aVRT @kasegu_knowhow: \u3010\u8a71\u984c\u306e\u753b\u50cf\u3011\u5996\u602a\u30a6\u30a9\u30c3\u30c1\u3068AppleWatch\u306e\u6bd4\u8f03
p71
aVRT @kasegu_knowhow: \u3010\u8a71\u984c\u306e\u753b\u50cf\u3011\u5996\u602a\u30a6\u30a9\u30c3\u30c1\u3068AppleWatch\u306e\u6bd4\u8f03
p72
aVRT @kasegu_knowhow: \u3010\u8a71\u984c\u306e\u753b\u50cf\u3011\u5996\u602a\u30a6\u30a9\u30c3\u30c1\u3068AppleWatch\u306e\u6bd4\u8f03
p73
aVRT @kasegu_knowhow: \u3010\u8a71\u984c\u306e\u753b\u50cf\u3011\u5996\u602a\u30a6\u30a9\u30c3\u30c1\u3068AppleWatch\u306e\u6bd4\u8f03
p74
aVRT @kasegu_knowhow: \u3010\u8a71\u984c\u306e\u753b\u50cf\u3011\u5996\u602a\u30a6\u30a9\u30c3\u30c1\u3068AppleWatch\u306e\u6bd4\u8f03
p75
aVRT @kasegu_knowhow: \u3010\u8a71\u984c\u306e\u753b\u50cf\u3011\u5996\u602a\u30a6\u30a9\u30c3\u30c1\u3068AppleWatch\u306e\u6bd4\u8f03
p76
aVRT @kasegu_knowhow: \u3010\u8a71\u984c\u306e\u753b\u50cf\u3011\u5996\u602a\u30a6\u30a9\u30c3\u30c1\u3068AppleWatch\u306e\u6bd4\u8f03
p77
aVRT @kasegu_knowhow: \u3010\u8a71\u984c\u306e\u753b\u50cf\u3011\u5996\u602a\u30a6\u30a9\u30c3\u30c1\u3068AppleWatch\u306e\u6bd4\u8f03
p78
aVRT @kasegu_knowhow: \u3010\u8a71\u984c\u306e\u753b\u50cf\u3011\u5996\u602a\u30a6\u30a9\u30c3\u30c1\u3068AppleWatch\u306e\u6bd4\u8f03
p79
aVRT @kasegu_knowhow: \u3010\u8a71\u984c\u306e\u753b\u50cf\u3011\u5996\u602a\u30a6\u30a9\u30c3\u30c1\u3068AppleWatch\u306e\u6bd4\u8f03
p80
aVRT @kasegu_knowhow: \u3010\u8a71\u984c\u306e\u753b\u50cf\u3011\u5996\u602a\u30a6\u30a9\u30c3\u30c1\u3068AppleWatch\u306e\u6bd4\u8f03
p81
aVRT @kasegu_knowhow: \u3010\u8a71\u984c\u306e\u753b\u50cf\u3011\u5996\u602a\u30a6\u30a9\u30c3\u30c1\u3068AppleWatch\u306e\u6bd4\u8f03
p82
aVhttp://t.co/ZHD2wRt3XY iPhone\u30e6\u30fc\u30b6\u30fc\u5fc5\u898b\u300cApplewatch\u3067\u4f55\u304c\u51fa\u6765\u308b\u306e\uff1f\u300d
p83
aVRT @ReutersBiz: EXCLUSIVE: About 6 percent of Americans plan to buy an #AppleWatch, according to poll: http://t.co/qfYWoR5rPH http://t.co/8\u2026
p84
aVRT @hunterwt94: I bet her #AppleWatch makes it better  https://t.co/AQu5iFk8lW
p85
aVReTw lexinerus: ReTw lexinerus: ReTw DrTeslaSagan: Why we irrationally crave new and useless gadgets http://t.co/BWPqOflkiU #AppleWatch
p86
aV@THAjustinwest #AppleWatch
p87
aVRT @pschiller: Watch more tours\u000ahttp://t.co/TYKpRKTZRE\u000a#applewatch
p88
aVI need help left or right? #applewatch https://t.co/6uIwt27t7s
p89
aVRT @STcom: 6% of US adults plan to buy #AppleWatch: Reuters poll  http://t.co/0GkK9heb7z http://t.co/QPYtnFIYfp
p90
aV\u3044\u307eAppleWatch\u3092\u6ce8\u6587\u3059\u308b\u30685\u6708\u672b\u304f\u3089\u3044\u304b\u2026\u3042\u3041\u30e4\u30d0\u3044\u30e4\u30d0\u3044\u611f\u3058\u306b\u306a\u3063\u3066\u304d\u305f
p91
aVLove It Or Hate It, #AppleWatch Is Here http://t.co/5avT1vDHFc @VincentOrleck  http://t.co/Q5umppeq35
p92
aVRT @AmerBanker: Small Banks Get Surprising Headstart on #AppleWatch\u000ahttp://t.co/3LKudPsNt2\u000afrom @MaryMWisniewski http://t.co/BpQWqIlSic
p93
aVApple Watch? Whatever. Reviewing the Timex Datalink, the world\u2019s first smartwatch #applewatch #iwatch http://t.co/UIVSvbpl0f via @GeekWire
p94
aVRT @adamlrutledge: Apple Watch? Whatever. Reviewing the Timex Datalink, the world\u2019s first smartwatch #applewatch #iwatch http://t.co/UIVSvb\u2026
p95
aV@RenTo_2525 Applewatch\u306b\u3057\u3088\u3046\uff08\u7b11\uff09
p96
aVApple Watch Rocks With Soaring Pre-Orders #applewatch, #apple, #watchpreorders,#applewatchrocks http://t.co/htQCpnEknF
p97
aVApple Watch Rocks With Soaring Pre-Orders #applewatch, #apple, #watchpreorders,#applewatchrocks http://t.co/SnBe3WbKwK
p98
aVApple Watch Rocks With Soaring Pre-Orders #applewatch, #apple, #watchpreorders,#applewatchrocks http://t.co/OpU5k3OP7J
p99
aVApple Watch Rocks With Soaring Pre-Orders #applewatch, #apple, #watchpreorders,#applewatchrocks http://t.co/8hoPTlFe3U
p100
a.