(lp0
VWell done #HoraceDediu | The Watch | Asymco #AppleWatch http://t.co/IO9N9xHS7y
p1
aV\u3010\u52d5\u753b\u3011AppleWatch\u306b\u3064\u3044\u3066\u601d\u3046\u3053\u3068 http://t.co/02ppx7CfLl \u3092\u6295\u7a3f\u3057\u307e\u3057\u305f\u3002 #sm26024590
p2
aV#Glide #iOS #AppleWatch \u2013 Glide for iOS update brings live video messaging to the Apple Watch:\u2026 http://t.co/93ETKi2VoB #iWatch #Apple
p3
aV#Glide #iOS #AppleWatch \u2013 Glide for iOS update brings live video\u2026 http://t.co/KIO3UizlV5 #iWatch #Apple #AppleWatch #applewatch #Download
p4
aV#Glide #iOS #AppleWatch \u2013 Glide for iOS update brings live video\u2026 http://t.co/Cia7kkpN0p #iWatch #Apple #AppleWatch #applewatch #Download
p5
aV#Glide #iOS #AppleWatch \u2013 Glide for iOS update brings live video messaging to the Apple Watch:\u2026 http://t.co/6f7CTQesin #iWatch #Apple
p6
aV#Glide #iOS #AppleWatch \u2013 Glide for iOS update brings live video\u2026 http://t.co/WSTbbZzhgx #iWatch #Apple #AppleWatch #applewatch #Download
p7
aV#Glide #iOS #AppleWatch \u2013 Glide for iOS update brings live video\u2026 http://t.co/KeZdjQcYmN #iWatch #Apple #AppleWatch #applewatch #Download
p8
aV#Glide #iOS #AppleWatch \u2013 Glide for iOS update brings live video messaging to the Apple Watch:\u2026 http://t.co/ymx81n9onZ #iWatch #Apple
p9
aV#Glide #iOS #AppleWatch \u2013 Glide for iOS update brings live video\u2026 http://t.co/cRXCt5X3nj #iWatch #Apple #AppleWatch #applewatch #Download
p10
aV#Glide #iOS #AppleWatch \u2013 Glide for iOS update brings live video messaging to the Apple Watch:\u2026 http://t.co/XqYtpAHahR #iWatch #Apple
p11
aV#Glide #iOS #AppleWatch \u2013 Glide for iOS update brings live video\u2026 http://t.co/n8CP0UcKgR #iWatch #Apple #AppleWatch #applewatch #Download
p12
aV#Glide #iOS #AppleWatch \u2013 Glide for iOS update brings live video\u2026 http://t.co/EfYh9e14Nd #iWatch #Apple #AppleWatch #applewatch #Download
p13
aV#Glide #iOS #AppleWatch \u2013 Glide for iOS update brings live video\u2026 http://t.co/5nFfEN5iHh #iWatch #Apple #AppleWatch #applewatch #Download
p14
aV#Glide #iOS #AppleWatch \u2013 Glide for iOS update brings live video\u2026 http://t.co/GIIPmiIg0T #iWatch #Apple #AppleWatch #applewatch #Download
p15
aV#Glide #iOS #AppleWatch \u2013 Glide for iOS update brings live video\u2026 http://t.co/33JQF3ujAK #iWatch #Apple #AppleWatch #applewatch #Download
p16
aV#Glide #iOS #AppleWatch \u2013 Glide for iOS update brings live video\u2026 http://t.co/l1oTGWaEQh #iWatch #Apple #AppleWatch #applewatch #Download
p17
aV#Glide #iOS #AppleWatch \u2013 Glide for iOS update brings live video\u2026 http://t.co/h7jQDaGiXV #iWatch #Apple #AppleWatch #applewatch #Download
p18
aV#Glide #iOS #AppleWatch \u2013 Glide for iOS update brings live video messaging to the Apple Watch:\u2026 http://t.co/3utRXCP9gG #iWatch #Apple
p19
aV#Glide #iOS #AppleWatch \u2013 Glide for iOS update brings live video\u2026 http://t.co/zW3zg6SVyR #iWatch #Apple #AppleWatch #applewatch #Download
p20
aV#Glide #iOS #AppleWatch \u2013 Glide for iOS update brings live video\u2026 http://t.co/JkeD2wim8B #iWatch #Apple #AppleWatch #applewatch #Download
p21
aV#Glide #iOS #AppleWatch \u2013 Glide for iOS update brings live video messaging to the Apple Watch:\u2026 http://t.co/eDtxVBAVFr #iWatch #Apple
p22
aV#Glide #iOS #AppleWatch \u2013 Glide for iOS update brings live video messaging to the Apple Watch:\u2026 http://t.co/FFry3eqX9C #iWatch #Apple
p23
aV#Glide #iOS #AppleWatch \u2013 Glide for iOS update brings live video messaging to the Apple Watch:\u2026 http://t.co/h2hwExbfbv #iWatch #Apple
p24
aV#Glide #iOS #AppleWatch \u2013 Glide for iOS update brings live video\u2026 http://t.co/GifkMcOccW #iWatch #Apple #AppleWatch #applewatch #Download
p25
aV#Glide #iOS #AppleWatch \u2013 Glide for iOS update brings live video messaging to the Apple Watch:\u2026 http://t.co/I7f3nSh0FL #iWatch #Apple
p26
aV#Glide #iOS #AppleWatch \u2013 Glide for iOS update brings live video messaging to the Apple Watch:\u2026 http://t.co/D6ZwHT9Ols #iWatch #Apple
p27
aV#Glide #iOS #AppleWatch \u2013 Glide for iOS update brings live video\u2026 http://t.co/iWGPfLrCUk #iWatch #Apple #AppleWatch #applewatch #Download
p28
aV#Glide #iOS #AppleWatch \u2013 Glide for iOS update brings live video\u2026 http://t.co/c94Q4ClBIP #iWatch #Apple #AppleWatch #applewatch #Download
p29
aV#Glide #iOS #AppleWatch \u2013 Glide for iOS update brings live video\u2026 http://t.co/4L0JdVgrpI #iWatch #Apple #AppleWatch #applewatch #Download
p30
aV#Glide #iOS #AppleWatch \u2013 Glide for iOS update brings live video\u2026 http://t.co/ThB1E0Z5QE #iWatch #Apple #AppleWatch #applewatch #Download
p31
aV#Glide #iOS #AppleWatch \u2013 Glide for iOS update brings live video\u2026 http://t.co/qpncSSW9Sf #iWatch #Apple #AppleWatch #applewatch #Download
p32
aV#Glide #iOS #AppleWatch \u2013 Glide for iOS update brings live video\u2026 http://t.co/FnnPDnnGwj #iWatch #Apple #AppleWatch #applewatch #Download
p33
aV#Glide #iOS #AppleWatch \u2013 Glide for iOS update brings live video\u2026 http://t.co/arrZbi7vXM #iWatch #Apple #AppleWatch #applewatch #Download
p34
aV#Glide #iOS #AppleWatch \u2013 Glide for iOS update brings live video messaging to the Apple Watch:\u2026 http://t.co/bTMfetfNHx #iWatch #Apple
p35
aV#Glide #iOS #AppleWatch \u2013 Glide for iOS update brings live video\u2026 http://t.co/Umz6kGaPsU #iWatch #Apple #AppleWatch #applewatch #Download
p36
aV#Glide #iOS #AppleWatch \u2013 Glide for iOS update brings live video\u2026 http://t.co/whleYCEmRC #iWatch #Apple #AppleWatch #applewatch #Download
p37
aV#Glide #iOS #AppleWatch \u2013 Glide for iOS update brings live video\u2026 http://t.co/sUbbvnO6Iq #iWatch #Apple #AppleWatch #applewatch #Download
p38
aV#Glide #iOS #AppleWatch \u2013 Glide for iOS update brings live video messaging to the Apple Watch:\u2026 http://t.co/9XGvczrMYf #iWatch #Apple
p39
aV#Glide #iOS #AppleWatch \u2013 Glide for iOS update brings live video messaging to the Apple Watch:\u2026 http://t.co/TW8z1XNehW #iWatch #Apple
p40
aV#Glide #iOS #AppleWatch \u2013 Glide for iOS update brings live video messaging to the Apple Watch:\u2026 http://t.co/tTvsgnR87J #iWatch #Apple
p41
aV#Glide #iOS #AppleWatch \u2013 Glide for iOS update brings live video messaging to the Apple Watch:\u2026 http://t.co/yWzkr4FCKl #iWatch #Apple
p42
aV#Glide #iOS #AppleWatch \u2013 Glide for iOS update brings live video\u2026 http://t.co/twBD623RtD #iWatch #Apple #AppleWatch #applewatch #Download
p43
aV#Glide #iOS #AppleWatch \u2013 Glide for iOS update brings live video messaging to the Apple Watch:\u2026 http://t.co/5DuGHWChrW #iWatch #Apple
p44
aVRT @tony_sheffler: Decided not to preorder #AppleWatch and now a bit worried that their wont be launch day stock. thoughts?  @tim_cook @cue\u2026
p45
aVFive security questions you should be asking about the Apple Watch #security #applewatch http://t.co/wIrgjJabc6
p46
aVRT @cherylfuerte: #YesStyle is giving away an #iPhone6 and an #AppleWatch. No purchase necessary to join http://t.co/x6s23mGdM9 @Cheapskat \u2026
p47
aV#AppleWatch beat #Android smartwatch annually sales in ONE day! See details here http://t.co/k6Q5gKuGG8 http://t.co/NiW4bTOUi9
p48
aVRT @foreverttao: #Afternoon #Shopping #AppleWatch #PreOrder #Clocked @clockedteam @coupla_app #London #RegentStreet\u2026 https://t.co/JnesOGnMyT
p49
aVFive security questions you should be asking about the Apple Watch http://t.co/17Rp0nYxi1 #AppleWatch
p50
aV#AppleWatch sold out in 30 minutes! WOW
p51
aV3 things we discovered while making the Spire #AppleWatch App http://t.co/B3P7OmPeWz
p52
aVGizmode -  \u968f\u6642\u66f4\u65b0\uff01 Apple Watch\u306b\u5bfe\u5fdc\u3059\u308b\u30a2\u30d7\u30ea\u307e\u3068\u3081: Apple Watch\u3067\u3067\u304d\u308b\u3053\u3068\u3001\u5897\u3048\u3066\u304d\u3066\u3044\u307e\u3059\u3002\u2026 http://t.co/9u45mY3Y0X #AppleWatch #\u30a6\u30a7\u30a2\u30e9\u30d6\u30eb
p53
aVAppleWatch\u304c\u96fb\u6c60\u6301\u30612\u500d\u306b\u306a\u308b\u4e0a\u306b\u7b4b\u30c8\u30ec\u3082\u3067\u304d\u308b\uff01\u3000\u5916\u90e8\u30d0\u30c3\u30c6\u30ea\u30fc\u767a\u58f2 http://t.co/wwcyntpRON http://t.co/6D7pJrMAUt
p54
aVInvencible. #AppleWatch\u200b \u25ba http://t.co/EECNXPd0uB http://t.co/okEyVM3ivn
p55
aVGet ready for more #fitnessapps on your #AppleWatch than you\u2019ll know what to do with http://t.co/ewGMvvwDrp http://t.co/4NpQq9c62x
p56
aVRT @Mindinventory: Present Status of #appdevelopment for #AppleWatch #blog \u000a@Mindinventory http://t.co/FUnx3KhhLv http://t.co/uwey8chURj
p57
aV#applewatch #continents #applewatchnastia
p58
aVKind of want an #applewatch , kind of don't... Do I have the money #yes but not for the crazy 18 carat gold one \U0001f602 #lol #whatdoto
p59
aVRT @rwguinee: Do I spy an #AppleWatch on @tinkerguyarhub? #1MCLR #WearableTech http://t.co/QvvidyY8Zk
p60
aV@LeifNamah thanks for the tweet. Just published w/link to you at @TwineSocial http://t.co/kf8zZ5lnON
p61
aV@Pulso_Urbano Love it! Featured your post on http://t.co/eg4zdGaLtj
p62
aV@KeithBakerLXVI saved your tweet! Featured up at @TwineSocial http://t.co/fK7dtwQkOp
p63
aV@AidemDigital thx...you are featured at @TwineSocial http://t.co/BuQiZMSZP4
p64
aVRT @AnthonyCDavison: My son wanted an #AppleWatch, so I obliged.  They`re not doing much though.  I`ll keep you posted. http://t.co/FVWUKzh\u2026
p65
aVCheck out the 70s inspired #AppleWatch: http://t.co/tVuuTbyvFY
p66
aVRT @cherylfuerte: #YesStyle is giving away an #iPhone6 and an #AppleWatch. No purchase necessary to join http://t.co/x6s23mGdM9 @Cheapskat \u2026
p67
aV\u201cConfused by the Apple Watch user interface? Here\u2019s your handy quick-start guide http://t.co/k445CJhH7g http://t.co/vaZDQuW1Kg\u201d #AppleWatch
p68
aV#Glide #iOS #AppleWatch \u2013 Glide for iOS update brings live video messaging\u2026 http://t.co/HNKnhAjsB8 #iWatch #Apple http://t.co/8Fh1dJoCfh
p69
aV#Glide #iOS #AppleWatch \u2013 Glide for iOS\u2026 http://t.co/rTpUlImRr2 #iWatch #Apple #AppleWatch #applewatch #Download http://t.co/n9fKKPEvOK
p70
aV#Glide #iOS #AppleWatch \u2013 Glide for iOS\u2026 http://t.co/6kD7hxc0kx #iWatch #Apple #AppleWatch #applewatch #Download http://t.co/2CwrgfceNd
p71
aV#Glide #iOS #AppleWatch \u2013 Glide for iOS\u2026 http://t.co/De5Txlz0Wk #iWatch #Apple #AppleWatch #applewatch #Download http://t.co/YV0QR1J77y
p72
aV#Glide #iOS #AppleWatch \u2013 Glide for iOS update brings live video messaging\u2026 http://t.co/27R68OdUQI #iWatch #Apple http://t.co/DjzAjCMcnJ
p73
aV#Glide #iOS #AppleWatch \u2013 Glide for iOS\u2026 http://t.co/Eel5NoJul7 #iWatch #Apple #AppleWatch #applewatch #Download http://t.co/GEebLGTQ1N
p74
aV#Glide #iOS #AppleWatch \u2013 Glide for iOS\u2026 http://t.co/XcdC5fSWun #iWatch #Apple #AppleWatch #applewatch #Download http://t.co/1KZ7Z6zZ47
p75
aV#Glide #iOS #AppleWatch \u2013 Glide for iOS\u2026 http://t.co/eQaP1ip6yl #iWatch #Apple #AppleWatch #applewatch #Download http://t.co/rZGe2n4gr4
p76
aV#Glide #iOS #AppleWatch \u2013 Glide for iOS\u2026 http://t.co/5KN73tT4t8 #iWatch #Apple #AppleWatch #applewatch #Download http://t.co/eAQNV21G5e
p77
aV#Glide #iOS #AppleWatch \u2013 Glide for iOS update brings live video messaging\u2026 http://t.co/Hx1Zo9Zu9I #iWatch #Apple http://t.co/obiY3ojR0X
p78
aV#Glide #iOS #AppleWatch \u2013 Glide for iOS update brings live video messaging\u2026 http://t.co/ttNv2tj5KZ #iWatch #Apple http://t.co/HI7uc8eR8p
p79
aV#Glide #iOS #AppleWatch \u2013 Glide for iOS\u2026 http://t.co/RK2Iy2mLkW #iWatch #Apple #AppleWatch #applewatch #Download http://t.co/XldbmECChI
p80
aV#Glide #iOS #AppleWatch \u2013 Glide for iOS update brings live video messaging\u2026 http://t.co/mytet7HLNH #iWatch #Apple http://t.co/Y7yBuhuVh1
p81
aV#Glide #iOS #AppleWatch \u2013 Glide for iOS\u2026 http://t.co/8D2b3QCzgf #iWatch #Apple #AppleWatch #applewatch #Download http://t.co/KPgaDVMHKj
p82
aVAppleWatch\u304c\u96fb\u6c60\u6301\u30612\u500d\u306b\u306a\u308b\u4e0a\u306b\u7b4b\u30c8\u30ec\u3082\u3067\u304d\u308b\uff01\u3000\u5916\u90e8\u30d0\u30c3\u30c6\u30ea\u30fc\u767a\u58f2 http://t.co/do7sA1QzUW #IT\u6295\u8cc7
p83
aV#Glide #iOS #AppleWatch \u2013 Glide for iOS update brings live video messaging\u2026 http://t.co/Xc8TS7Ky4B #iWatch #Apple http://t.co/Qfr2QlRWHf
p84
aV#Glide #iOS #AppleWatch \u2013 Glide for iOS update brings live video messaging\u2026 http://t.co/MGsKs8lPIo #iWatch #Apple http://t.co/4v0739rt1b
p85
aV#Glide #iOS #AppleWatch \u2013 Glide for iOS\u2026 http://t.co/pIHd8hVrkn #iWatch #Apple #AppleWatch #applewatch #Download http://t.co/YxMxSHU222
p86
aV#Glide #iOS #AppleWatch \u2013 Glide for iOS\u2026 http://t.co/jnogCSWA0C #iWatch #Apple #AppleWatch #applewatch #Download http://t.co/ZbFOeh4XA8
p87
aV#Glide #iOS #AppleWatch \u2013 Glide for iOS update brings live video messaging\u2026 http://t.co/ds90NjTJqI #iWatch #Apple http://t.co/T8KU7pBPtx
p88
aV#Glide #iOS #AppleWatch \u2013 Glide for iOS update brings live video messaging\u2026 http://t.co/QRu5GwwkGc #iWatch #Apple http://t.co/5cAEBeGBxp
p89
aV#Glide #iOS #AppleWatch \u2013 Glide for iOS update brings live video messaging\u2026 http://t.co/vDaLCa6Vq4 #iWatch #Apple http://t.co/a6zFRmSSfu
p90
aV#Glide #iOS #AppleWatch \u2013 Glide for iOS update brings live video messaging\u2026 http://t.co/jEhZRlM2oK #iWatch #Apple http://t.co/PHqoaadmlR
p91
aV#Glide #iOS #AppleWatch \u2013 Glide for iOS\u2026 http://t.co/cjVGl4l3FL #iWatch #Apple #AppleWatch #applewatch #Download http://t.co/uLzT8JAHYA
p92
aV#Glide #iOS #AppleWatch \u2013 Glide for iOS\u2026 http://t.co/evQmsUf31c #iWatch #Apple #AppleWatch #applewatch #Download http://t.co/41DDOu60La
p93
aVAquesta tira dedicada als companys de @mossegalapoma ;) https://t.co/tyCIgqytiZ
p94
aV#Glide #iOS #AppleWatch \u2013 Glide for iOS update brings live video messaging\u2026 http://t.co/zN0Jdxfh8B #iWatch #Apple http://t.co/7gV4FM3Kok
p95
aV#Glide #iOS #AppleWatch \u2013 Glide for iOS update brings live video messaging\u2026 http://t.co/8Qi3FKU3zY #iWatch #Apple http://t.co/VL53o7dVGZ
p96
aV#Glide #iOS #AppleWatch \u2013 Glide for iOS\u2026 http://t.co/lqzD6uXQnZ #iWatch #Apple #AppleWatch #applewatch #Download http://t.co/LTRelZgluA
p97
aVWin an #AppleWatch from http://t.co/UDvRwdtC8w #contest #painrelief @lakotaherbs Enter here: http://t.co/c166VGE87a
p98
aVWhy Apple doesn't do minimum viable product http://t.co/NgmGxZ8IcE #AppleWatch #apple
p99
aV#iPhone Killer: The Secret History of the #AppleWatch  (by @Wired)\u000ahttp://t.co/LExga6BS3u\u000a#7MarketingMedia
p100
a.