(lp0
V#Watch #Wearable \u2013 This awesome infographic tells you every Apple\u2026 http://t.co/Odcx2TeiHP #Apple #iWatch #applestore #AppleWatch #apps
p1
aV#Watch #Wearable \u2013 This awesome infographic\u2026 http://t.co/XXlTTbiwTu #Apple #iWatch #applestore #AppleWatch #apps http://t.co/fVyEgC0Qa4
p2
aV#Watch #Wearable \u2013 This awesome infographic\u2026 http://t.co/GHd2IgQYwW #Apple #iWatch #applestore #AppleWatch #apps http://t.co/GPMd5FgySg
p3
aV#Watch #Wearable \u2013 This awesome infographic\u2026 http://t.co/VaRLIPuDCE #Apple #iWatch #applestore #AppleWatch #apps http://t.co/j5FALL1cik
p4
aV#Watch #Wearable \u2013 This awesome infographic tells you every Apple\u2026 http://t.co/BTTg8DwQYj #Apple #iWatch #applestore #AppleWatch #apps
p5
aV#Watch #Wearable \u2013 This awesome infographic\u2026 http://t.co/LLmzanAMUA #Apple #iWatch #applestore #AppleWatch #apps http://t.co/Qm7mkyivMT
p6
aV#Watch #Wearable \u2013 This awesome infographic tells you every Apple\u2026 http://t.co/MA04yUjroM #Apple #iWatch #applestore #AppleWatch #apps
p7
aVTo use Apple Watch This awesome infographic\u2026 http://t.co/86EofqFtxz #Apple #iWatch #applestore #AppleWatch #apps http://t.co/zCLJGgJA5M
p8
aV#Watch #Wearable \u2013 This awesome infographic tells you every Apple\u2026 http://t.co/yDbxLifqds #Apple #iWatch #applestore #AppleWatch #apps
p9
aV#Watch #Wearable \u2013 This awesome infographic tells you every Apple\u2026 http://t.co/TD04nAPUjm #Apple #iWatch #applestore #AppleWatch #apps
p10
aV#Watch #Wearable \u2013 This awesome infographic tells you every Apple\u2026 http://t.co/LRxw0qBl0H #Apple #iWatch #applestore #AppleWatch #apps
p11
aV#Watch #Wearable \u2013 This awesome infographic\u2026 http://t.co/Odcx2TeiHP #Apple #iWatch #applestore #AppleWatch #apps http://t.co/Iq1fE8VcKs
p12
aV#Watch #Wearable \u2013 This awesome infographic tells you every Apple\u2026 http://t.co/MwuTUvkK1g #Apple #iWatch #applestore #AppleWatch #apps
p13
aV#Watch #Wearable \u2013 This awesome infographic tells you every Apple\u2026 http://t.co/O0UbTNlQmh #Apple #iWatch #applestore #AppleWatch #apps
p14
aV#Watch #Wearable \u2013 This awesome infographic tells you every Apple\u2026 http://t.co/KsGI9FL3OZ #Apple #iWatch #applestore #AppleWatch #apps
p15
aVTo use Apple Watch This awesome infographic tells you every gesture\u2026 http://t.co/bOrv6x86Zq #Apple #iWatch #applestore #AppleWatch #apps
p16
aV#Watch #Wearable \u2013 This awesome infographic tells you every Apple\u2026 http://t.co/ovszgfT0Zi #Apple #iWatch #applestore #AppleWatch #apps
p17
aV#Watch #Wearable \u2013 This awesome infographic tells you every Apple\u2026 http://t.co/IIKqe2nHQ7 #Apple #iWatch #applestore #AppleWatch #apps
p18
aV#Watch #Wearable \u2013 This awesome infographic\u2026 http://t.co/jJxdTtnxUe #Apple #iWatch #applestore #AppleWatch #apps http://t.co/j7ne1ecuot
p19
aVTo use Apple Watch This awesome infographic\u2026 http://t.co/9vEsBfd08e #Apple #iWatch #applestore #AppleWatch #apps http://t.co/nHhZM67cJB
p20
aV#Watch #Wearable \u2013 This awesome infographic\u2026 http://t.co/BTTg8DwQYj #Apple #iWatch #applestore #AppleWatch #apps http://t.co/eJY8J5TZnE
p21
aV#Watch #Wearable \u2013 This awesome infographic\u2026 http://t.co/ec3iYtPJ29 #Apple #iWatch #applestore #AppleWatch #apps http://t.co/Y9sOQWbini
p22
aVTo use Apple Watch This awesome infographic tells you every gesture\u2026 http://t.co/wArPjUgeBb #Apple #iWatch #applestore #AppleWatch #apps
p23
aV#Watch #Wearable \u2013 This awesome infographic tells you every Apple\u2026 http://t.co/8xBskbG8IX #Apple #iWatch #applestore #AppleWatch #apps
p24
aV#Watch #Wearable \u2013 This awesome infographic\u2026 http://t.co/ovszgfT0Zi #Apple #iWatch #applestore #AppleWatch #apps http://t.co/BjDs56f45D
p25
aV#Watch #Wearable \u2013 This awesome infographic\u2026 http://t.co/O0UbTNlQmh #Apple #iWatch #applestore #AppleWatch #apps http://t.co/f38YoH7QvF
p26
aV#Watch #Wearable \u2013 This awesome infographic tells you every Apple\u2026 http://t.co/bUi7wxnohB #Apple #iWatch #applestore #AppleWatch #apps
p27
aV#Watch #Wearable \u2013 This awesome infographic tells you every Apple\u2026 http://t.co/83S2GEtJN6 #Apple #iWatch #applestore #AppleWatch #apps
p28
aV#Watch #Wearable \u2013 This awesome infographic\u2026 http://t.co/LRxw0qBl0H #Apple #iWatch #applestore #AppleWatch #apps http://t.co/1ZbKiTnOUO
p29
aV#Watch #Wearable \u2013 This awesome infographic tells you every Apple\u2026 http://t.co/W0hmLvOVRP #Apple #iWatch #applestore #AppleWatch #apps
p30
aV#Watch #Wearable \u2013 This awesome infographic\u2026 http://t.co/IIKqe2nHQ7 #Apple #iWatch #applestore #AppleWatch #apps http://t.co/flkgt43Zek
p31
aV#Watch #Wearable \u2013 This awesome infographic\u2026 http://t.co/MA04yUjroM #Apple #iWatch #applestore #AppleWatch #apps http://t.co/e8FoAuEfqw
p32
aV#Watch #Wearable \u2013 This awesome infographic tells you every Apple\u2026 http://t.co/RMN2LCVbcT #Apple #iWatch #applestore #AppleWatch #apps
p33
aV#Watch #Wearable \u2013 This awesome infographic tells you every Apple\u2026 http://t.co/BZS3afdyVp #Apple #iWatch #applestore #AppleWatch #apps
p34
aV#Watch #Wearable \u2013 This awesome infographic tells you every Apple\u2026 http://t.co/dVhcOZ77rg #Apple #iWatch #applestore #AppleWatch #apps
p35
aV#Watch #Wearable \u2013 This awesome infographic\u2026 http://t.co/8xBskbG8IX #Apple #iWatch #applestore #AppleWatch #apps http://t.co/2HfCjtKIYu
p36
aV#Watch #Wearable \u2013 This awesome infographic tells you every Apple\u2026 http://t.co/IeS1Fe1Q0W #Apple #iWatch #applestore #AppleWatch #apps
p37
aV#Watch #Wearable \u2013 This awesome infographic tells you every Apple\u2026 http://t.co/GiiT1xwtrd #Apple #iWatch #applestore #AppleWatch #apps
p38
aV#Watch #Wearable \u2013 This awesome infographic tells you every Apple\u2026 http://t.co/CVAtJhiwzG #Apple #iWatch #applestore #AppleWatch #apps
p39
aVTo use Apple Watch This awesome infographic tells you every gesture\u2026 http://t.co/Lv4x9A8BHU #Apple #iWatch #applestore #AppleWatch #apps
p40
aV#Watch #Wearable \u2013 This awesome infographic tells you every Apple\u2026 http://t.co/4DRyNEYtvy #Apple #iWatch #applestore #AppleWatch #apps
p41
aV#Watch #Wearable \u2013 This awesome infographic\u2026 http://t.co/TD04nAPUjm #Apple #iWatch #applestore #AppleWatch #apps http://t.co/kR7cKZ9pMO
p42
aV#Watch #Wearable \u2013 This awesome infographic\u2026 http://t.co/MwuTUvkK1g #Apple #iWatch #applestore #AppleWatch #apps http://t.co/GqFshySMJl
p43
aVTo use Apple Watch This awesome infographic tells you every gesture\u2026 http://t.co/fHX8clBn2P #Apple #iWatch #applestore #AppleWatch #apps
p44
aV#Watch #Wearable \u2013 This awesome infographic\u2026 http://t.co/KsGI9FL3OZ #Apple #iWatch #applestore #AppleWatch #apps http://t.co/gQ7Md4g0Dq
p45
aV#Watch #Wearable \u2013 This awesome infographic tells you every Apple\u2026 http://t.co/QMXeYB4YqJ #Apple #iWatch #applestore #AppleWatch #apps
p46
aV#Watch #Wearable \u2013 This awesome infographic\u2026 http://t.co/eUUnhhTCGK #Apple #iWatch #applestore #AppleWatch #apps http://t.co/YXltojHs7r
p47
aV#Watch #Wearable \u2013 This awesome infographic tells you every Apple\u2026 http://t.co/KHwPM43CuJ #Apple #iWatch #applestore #AppleWatch #apps
p48
aV#Watch #Wearable \u2013 This awesome infographic\u2026 http://t.co/yOLhdd7UVd #Apple #iWatch #applestore #AppleWatch #apps http://t.co/9j5TKDcsJk
p49
aV#Watch #Wearable \u2013 This awesome infographic tells you every Apple\u2026 http://t.co/J9fDBs0W5x #Apple #iWatch #applestore #AppleWatch #apps
p50
aVTo use Apple Watch This awesome infographic\u2026 http://t.co/bOrv6x86Zq #Apple #iWatch #applestore #AppleWatch #apps http://t.co/4YLEB846mm
p51
aV#Watch #Wearable \u2013 This awesome infographic\u2026 http://t.co/83S2GEtJN6 #Apple #iWatch #applestore #AppleWatch #apps http://t.co/Crfv3RCfHD
p52
aV#Watch #Wearable \u2013 This awesome infographic\u2026 http://t.co/yDbxLifqds #Apple #iWatch #applestore #AppleWatch #apps http://t.co/SgyLtI9z13
p53
aV#Watch #Wearable \u2013 This awesome infographic tells you every Apple\u2026 http://t.co/tyIUecy7Qd #Apple #iWatch #applestore #AppleWatch #apps
p54
aV#Watch #Wearable \u2013 This awesome infographic\u2026 http://t.co/W0hmLvOVRP #Apple #iWatch #applestore #AppleWatch #apps http://t.co/iCHA8gNjWK
p55
aV#Watch #Wearable \u2013 This awesome infographic\u2026 http://t.co/BZS3afdyVp #Apple #iWatch #applestore #AppleWatch #apps http://t.co/xC30xblJQB
p56
aV#Watch #Wearable \u2013 This awesome infographic\u2026 http://t.co/QxfK9ks5DF #Apple #iWatch #applestore #AppleWatch #apps http://t.co/4iEcG9fo5z
p57
aV#Watch #Wearable \u2013 This awesome infographic\u2026 http://t.co/bUi7wxnohB #Apple #iWatch #applestore #AppleWatch #apps http://t.co/vgnUWly2yz
p58
aVTo use Apple Watch This awesome infographic\u2026 http://t.co/wArPjUgeBb #Apple #iWatch #applestore #AppleWatch #apps http://t.co/GlokswW1vw
p59
aV#Watch #Wearable \u2013 This awesome infographic tells you every Apple\u2026 http://t.co/d5W2ZIF7zx #Apple #iWatch #applestore #AppleWatch #apps
p60
aV#Watch #Wearable \u2013 This awesome infographic\u2026 http://t.co/CVAtJhiwzG #Apple #iWatch #applestore #AppleWatch #apps http://t.co/Ryb7qsRQds
p61
aV#Watch #Wearable \u2013 This awesome infographic\u2026 http://t.co/6QxznT07GL #Apple #iWatch #applestore #AppleWatch #apps http://t.co/tU88PO8qlk
p62
aV#Watch #Wearable \u2013 This awesome infographic tells you every Apple\u2026 http://t.co/Lrrup9nsDA #Apple #iWatch #applestore #AppleWatch #apps
p63
aV#Watch #Wearable \u2013 This awesome infographic\u2026 http://t.co/dVhcOZ77rg #Apple #iWatch #applestore #AppleWatch #apps http://t.co/MUfRkmu2sk
p64
aV#Watch #Wearable \u2013 This awesome infographic\u2026 http://t.co/QMXeYB4YqJ #Apple #iWatch #applestore #AppleWatch #apps http://t.co/220XdQ283U
p65
aV#Watch #Wearable \u2013 This awesome infographic tells you every Apple\u2026 http://t.co/wS4nk2McuF #Apple #iWatch #applestore #AppleWatch #apps
p66
aV#Watch #Wearable \u2013 This awesome infographic\u2026 http://t.co/4DRyNEYtvy #Apple #iWatch #applestore #AppleWatch #apps http://t.co/d94xFAmPkz
p67
aVTo use Apple Watch This awesome infographic\u2026 http://t.co/Lv4x9A8BHU #Apple #iWatch #applestore #AppleWatch #apps http://t.co/3Spiko5hpd
p68
aV#Watch #Wearable \u2013 This awesome infographic\u2026 http://t.co/GiiT1xeSzF #Apple #iWatch #applestore #AppleWatch #apps http://t.co/7qce5yNOX6
p69
aV#Watch #Wearable \u2013 This awesome infographic tells you every Apple\u2026 http://t.co/7kyBDKMUE6 #Apple #iWatch #applestore #AppleWatch #apps
p70
aVTo use Apple Watch This awesome infographic tells you every gesture\u2026 http://t.co/T2vqyYRp5I #Apple #iWatch #applestore #AppleWatch #apps
p71
aV#Watch #Wearable \u2013 This awesome infographic tells you every Apple\u2026 http://t.co/of1pUDxU0h #Apple #iWatch #applestore #AppleWatch #apps
p72
aV#Watch #Wearable \u2013 This awesome infographic\u2026 http://t.co/tyIUecy7Qd #Apple #iWatch #applestore #AppleWatch #apps http://t.co/un2eiPbrnP
p73
aV#Watch #Wearable \u2013 This awesome infographic tells you every Apple\u2026 http://t.co/x1aASF0Pip #Apple #iWatch #applestore #AppleWatch #apps
p74
aV#Watch #Wearable \u2013 This awesome infographic tells you every Apple\u2026 http://t.co/Po4mVLfRge #Apple #iWatch #applestore #AppleWatch #apps
p75
aV#Watch #Wearable \u2013 This awesome infographic\u2026 http://t.co/d5W2ZIF7zx #Apple #iWatch #applestore #AppleWatch #apps http://t.co/NKickXKOiY
p76
aV#Watch #Wearable \u2013 This awesome infographic\u2026 http://t.co/RMN2LCVbcT #Apple #iWatch #applestore #AppleWatch #apps http://t.co/Yl2tjtYcKb
p77
aV#Watch #Wearable \u2013 This awesome infographic tells you every Apple\u2026 http://t.co/te6qts4dAU #Apple #iWatch #applestore #AppleWatch #apps
p78
aV#Watch #Wearable \u2013 This awesome infographic tells you every Apple\u2026 http://t.co/4PdJImJ8Cx #Apple #iWatch #applestore #AppleWatch #apps
p79
aVTo use Apple Watch This awesome infographic\u2026 http://t.co/fHX8clBn2P #Apple #iWatch #applestore #AppleWatch #apps http://t.co/4tQtDerq8j
p80
aV#Watch #Wearable \u2013 This awesome infographic\u2026 http://t.co/KHwPM43CuJ #Apple #iWatch #applestore #AppleWatch #apps http://t.co/bmQaz1GhS2
p81
aV\u30e8\u30df\u30a6\u30ea\u30fb\u30aa\u30f3\u30e9\u30a4\u30f3\u306b\u3001\u3042\u306e #\u30a2\u30c3\u30d7\u30eb\u30a6\u30aa\u30c3\u30c1 \u306e\u52d5\u753b\u5e83\u544a\u304c\u63b2\u8f09\u3055\u308c\u3066\u3044\u307e\u3059\uff01\u767a\u58f2\u306f4/24\u3067\u3059\u304c\u3001\u73fe\u5728\u4e88\u7d04\u53d7\u4ed8\u4e2d\u3002\u3053\u308c\u306f\u898b\u9003\u305b\u306a\u3044\u3002http://t.co/n1XmoJvWgE\uff08\u203b\u4e00\u90e8\u95b2\u89a7\u3067\u304d\u306a\u3044\u30c7\u30d0\u30a4\u30b9\u304c\u3042\u308a\u307e\u3059\uff09\u000a#AppleWatch #Apple #\u8aad\u58f2\u65b0\u805e
p82
aV#Watch #Wearable \u2013 This awesome infographic\u2026 http://t.co/J9fDBs0W5x #Apple #iWatch #applestore #AppleWatch #apps http://t.co/2aSkLC4QZI
p83
aV#Watch #Wearable \u2013 This awesome infographic tells you every Apple\u2026 http://t.co/aUT8rUZEXA #Apple #iWatch #applestore #AppleWatch #apps
p84
aV#Watch #Wearable \u2013 This awesome infographic\u2026 http://t.co/IeS1Fe1Q0W #Apple #iWatch #applestore #AppleWatch #apps http://t.co/48eURLaRGp
p85
aV#Watch #Wearable \u2013 This awesome infographic tells you every Apple\u2026 http://t.co/Vw9q4EumKz #Apple #iWatch #applestore #AppleWatch #apps
p86
aV#Watch #Wearable \u2013 This awesome infographic tells you every Apple\u2026 http://t.co/gXzgWAmzDC #Apple #iWatch #applestore #AppleWatch #apps
p87
aV#Watch #Wearable \u2013 This awesome infographic\u2026 http://t.co/Lrrup9nsDA #Apple #iWatch #applestore #AppleWatch #apps http://t.co/6BN8lWGR5Q
p88
aV#Watch #Wearable \u2013 This awesome infographic tells you every Apple\u2026 http://t.co/UFD7vv5utN #Apple #iWatch #applestore #AppleWatch #apps
p89
aV#Watch #Wearable \u2013 This awesome infographic\u2026 http://t.co/7kyBDKMUE6 #Apple #iWatch #applestore #AppleWatch #apps http://t.co/HEXq3csHD3
p90
aV#Watch #Wearable \u2013 This awesome infographic tells you every Apple\u2026 http://t.co/MfcPONEUx7 #Apple #iWatch #applestore #AppleWatch #apps
p91
aV#Watch #Wearable \u2013 This awesome infographic\u2026 http://t.co/Po4mVLfRge #Apple #iWatch #applestore #AppleWatch #apps http://t.co/zOS1vYPd25
p92
aV#Watch #Wearable \u2013 This awesome infographic tells you every Apple\u2026 http://t.co/6oxiHNOrQK #Apple #iWatch #applestore #AppleWatch #apps
p93
aV#Watch #Wearable \u2013 This awesome infographic\u2026 http://t.co/te6qts4dAU #Apple #iWatch #applestore #AppleWatch #apps http://t.co/vRQlyQ1mEf
p94
aV#Watch #Wearable \u2013 This awesome infographic tells you every Apple\u2026 http://t.co/K6WodVvuGK #Apple #iWatch #applestore #AppleWatch #apps
p95
aVTo use Apple Watch This awesome infographic tells you every gesture\u2026 http://t.co/sYngTzSUk1 #Apple #iWatch #applestore #AppleWatch #apps
p96
aV#Watch #Wearable \u2013 This awesome infographic tells you every Apple\u2026 http://t.co/N1sCA70Z3h #Apple #iWatch #applestore #AppleWatch #apps
p97
aV#Watch #Wearable \u2013 This awesome infographic tells you every Apple\u2026 http://t.co/lCp8NJHOHB #Apple #iWatch #applestore #AppleWatch #apps
p98
aVTo use Apple Watch This awesome infographic\u2026 http://t.co/T2vqyYRp5I #Apple #iWatch #applestore #AppleWatch #apps http://t.co/6Jp2rajL3t
p99
aV#Watch #Wearable \u2013 This awesome infographic tells you every Apple\u2026 http://t.co/qvUCXDW579 #Apple #iWatch #applestore #AppleWatch #apps
p100
a.