(lp0
V#Watch #Wearable \u2013 This awesome infographic tells you every Apple\u2026 http://t.co/9MQNsxmiGS #Apple #iWatch #applestore #AppleWatch #apps
p1
aV#Watch #Wearable \u2013 This awesome infographic tells you every Apple\u2026 http://t.co/PN2LPhuIqF #Apple #iWatch #applestore #AppleWatch #apps
p2
aV#Watch #Wearable \u2013 This awesome infographic tells you every Apple\u2026 http://t.co/15kDyJJIS6 #Apple #iWatch #applestore #AppleWatch #apps
p3
aV#Watch #Wearable \u2013 This awesome infographic tells you every Apple\u2026 http://t.co/wmPfAm7W0g #Apple #iWatch #applestore #AppleWatch #apps
p4
aV#Watch #Wearable \u2013 This awesome infographic tells you every Apple\u2026 http://t.co/3u68WODfbL #Apple #iWatch #applestore #AppleWatch #apps
p5
aV#Watch #Wearable \u2013 This awesome infographic\u2026 http://t.co/IYXNaDQQuH #Apple #iWatch #applestore #AppleWatch #apps http://t.co/VDwollEcJu
p6
aV#Watch #Wearable \u2013 This awesome infographic tells you every Apple\u2026 http://t.co/1eYjAFBNLz #Apple #iWatch #applestore #AppleWatch #apps
p7
aV#Watch #Wearable \u2013 This awesome infographic\u2026 http://t.co/15kDyJJIS6 #Apple #iWatch #applestore #AppleWatch #apps http://t.co/WFIUalIiia
p8
aV#Watch #Wearable \u2013 This awesome infographic tells you every Apple\u2026 http://t.co/ofk5NRVPDv #Apple #iWatch #applestore #AppleWatch #apps
p9
aV#Watch #Wearable \u2013 This awesome infographic tells you every Apple\u2026 http://t.co/gu6ua4rjjV #Apple #iWatch #applestore #AppleWatch #apps
p10
aV#Watch #Wearable \u2013 This awesome infographic\u2026 http://t.co/PN2LPhuIqF #Apple #iWatch #applestore #AppleWatch #apps http://t.co/JesjuCwT0b
p11
aV#Watch #Wearable \u2013 This awesome infographic tells you every Apple\u2026 http://t.co/SIjPqBIY3X #Apple #iWatch #applestore #AppleWatch #apps
p12
aV#Watch #Wearable \u2013 This awesome infographic\u2026 http://t.co/txndVMRe86 #Apple #iWatch #applestore #AppleWatch #apps http://t.co/jk39wbN1Q3
p13
aV#Watch #Wearable \u2013 This awesome infographic tells you every Apple\u2026 http://t.co/xwDgflUmUg #Apple #iWatch #applestore #AppleWatch #apps
p14
aV#Watch #Wearable \u2013 This awesome infographic\u2026 http://t.co/ofwS3VL2KZ #Apple #iWatch #applestore #AppleWatch #apps http://t.co/s7SkaGycWj
p15
aV#Watch #Wearable \u2013 This awesome infographic tells you every Apple\u2026 http://t.co/hsUpVGBVAd #Apple #iWatch #applestore #AppleWatch #apps
p16
aV#Watch #Wearable \u2013 This awesome infographic\u2026 http://t.co/1eYjAFBNLz #Apple #iWatch #applestore #AppleWatch #apps http://t.co/x09NkrIvIv
p17
aV#Watch #Wearable \u2013 This awesome infographic\u2026 http://t.co/ofk5NRVPDv #Apple #iWatch #applestore #AppleWatch #apps http://t.co/jYHRRV4MUG
p18
aV#Watch #Wearable \u2013 This awesome infographic\u2026 http://t.co/wmPfAm7W0g #Apple #iWatch #applestore #AppleWatch #apps http://t.co/aWRS68a31P
p19
aV#Watch #Wearable \u2013 This awesome infographic tells you every Apple\u2026 http://t.co/T9Fz7KhkVd #Apple #iWatch #applestore #AppleWatch #apps
p20
aV#Watch #Wearable \u2013 This awesome infographic\u2026 http://t.co/9MQNsxmiGS #Apple #iWatch #applestore #AppleWatch #apps http://t.co/GSnawlzT13
p21
aV#Watch #Wearable \u2013 This awesome infographic tells you every Apple\u2026 http://t.co/Fdq0SRAZ40 #Apple #iWatch #applestore #AppleWatch #apps
p22
aV#Watch #Wearable \u2013 This awesome infographic\u2026 http://t.co/3u68WODfbL #Apple #iWatch #applestore #AppleWatch #apps http://t.co/JrmkgGauRx
p23
aV#Watch #Wearable \u2013 This awesome infographic tells you every Apple\u2026 http://t.co/CNn93fU2NP #Apple #iWatch #applestore #AppleWatch #apps
p24
aV#Watch #Wearable \u2013 This awesome infographic\u2026 http://t.co/F4Z3mS5xkD #Apple #iWatch #applestore #AppleWatch #apps http://t.co/VLpEvNul1t
p25
aV#Watch #Wearable \u2013 This awesome infographic tells you every Apple\u2026 http://t.co/beTB1wSfLV #Apple #iWatch #applestore #AppleWatch #apps
p26
aV#Watch #Wearable \u2013 This awesome infographic tells you every Apple\u2026 http://t.co/ENuT378Wpn #Apple #iWatch #applestore #AppleWatch #apps
p27
aV#Watch #Wearable \u2013 This awesome infographic tells you every Apple\u2026 http://t.co/xBelaswpD1 #Apple #iWatch #applestore #AppleWatch #apps
p28
aV#Watch #Wearable \u2013 This awesome infographic tells you every Apple\u2026 http://t.co/GSPti7qAAM #Apple #iWatch #applestore #AppleWatch #apps
p29
aV#Watch #Wearable \u2013 This awesome infographic tells you every Apple\u2026 http://t.co/m64L7e5J4U #Apple #iWatch #applestore #AppleWatch #apps
p30
aVTo use Apple Watch This awesome infographic tells you every gesture\u2026 http://t.co/2g79laJOBn #Apple #iWatch #applestore #AppleWatch #apps
p31
aV#Watch #Wearable \u2013 This awesome infographic tells you every Apple\u2026 http://t.co/0zorolNFUc #Apple #iWatch #applestore #AppleWatch #apps
p32
aVTo use Apple Watch This awesome infographic tells you every gesture\u2026 http://t.co/7mCmwmoBV7 #Apple #iWatch #applestore #AppleWatch #apps
p33
aV#Watch #Wearable \u2013 This awesome infographic tells you every Apple\u2026 http://t.co/1GdygmCmZn #Apple #iWatch #applestore #AppleWatch #apps
p34
aV#Watch #Wearable \u2013 This awesome infographic tells you every Apple\u2026 http://t.co/RsAPWHXyPD #Apple #iWatch #applestore #AppleWatch #apps
p35
aV#Watch #Wearable \u2013 This awesome infographic tells you every Apple\u2026 http://t.co/SK24ym9QIj #Apple #iWatch #applestore #AppleWatch #apps
p36
aV#Watch #Wearable \u2013 This awesome infographic tells you every Apple\u2026 http://t.co/uMB4HPPNVE #Apple #iWatch #applestore #AppleWatch #apps
p37
aV#Watch #Wearable \u2013 This awesome infographic tells you every Apple\u2026 http://t.co/mo9T3T3i0c #Apple #iWatch #applestore #AppleWatch #apps
p38
aV#Watch #Wearable \u2013 This awesome infographic tells you every Apple\u2026 http://t.co/HL0rsulaXf #Apple #iWatch #applestore #AppleWatch #apps
p39
aV#Watch #Wearable \u2013 This awesome infographic tells you every Apple\u2026 http://t.co/PQHGMAfYHu #Apple #iWatch #applestore #AppleWatch #apps
p40
aV#Watch #Wearable \u2013 This awesome infographic tells you every Apple\u2026 http://t.co/tMpRTqt6cZ #Apple #iWatch #applestore #AppleWatch #apps
p41
aV#Watch #Wearable \u2013 This awesome infographic tells you every Apple\u2026 http://t.co/xV8fpJwvos #Apple #iWatch #applestore #AppleWatch #apps
p42
aV#Watch #Wearable \u2013 This awesome infographic\u2026 http://t.co/cxs5bfgEEA #Apple #iWatch #applestore #AppleWatch #apps http://t.co/cCsFQaHiZn
p43
aV#Watch #Wearable \u2013 This awesome infographic tells you every Apple\u2026 http://t.co/9g6nhFy6OD #Apple #iWatch #applestore #AppleWatch #apps
p44
aV#Watch #Wearable \u2013 This awesome infographic\u2026 http://t.co/ENuT378Wpn #Apple #iWatch #applestore #AppleWatch #apps http://t.co/NqJneUsIB9
p45
aV#Watch #Wearable \u2013 This awesome infographic tells you every Apple\u2026 http://t.co/5gazLeWvGy #Apple #iWatch #applestore #AppleWatch #apps
p46
aV#Watch #Wearable \u2013 This awesome infographic tells you every Apple\u2026 http://t.co/qpZLflCNEm #Apple #iWatch #applestore #AppleWatch #apps
p47
aV#Watch #Wearable \u2013 This awesome infographic tells you every Apple\u2026 http://t.co/tGfWUazYRD #Apple #iWatch #applestore #AppleWatch #apps
p48
aVTo use Apple Watch This awesome infographic tells you every gesture\u2026 http://t.co/fdUMyh7hNo #Apple #iWatch #applestore #AppleWatch #apps
p49
aV#Watch #Wearable \u2013 This awesome infographic tells you every Apple\u2026 http://t.co/34saWZ73zc #Apple #iWatch #applestore #AppleWatch #apps
p50
aV#Watch #Wearable \u2013 This awesome infographic tells you every Apple\u2026 http://t.co/SQH3DbZ8Co #Apple #iWatch #applestore #AppleWatch #apps
p51
aV#Watch #Wearable \u2013 This awesome infographic tells you every Apple\u2026 http://t.co/JcZcsNusk8 #Apple #iWatch #applestore #AppleWatch #apps
p52
aV#Watch #Wearable \u2013 This awesome infographic\u2026 http://t.co/ufL9MiQjvV #Apple #iWatch #applestore #AppleWatch #apps http://t.co/KR4XyvEGD7
p53
aV#Watch #Wearable \u2013 This awesome infographic tells you every Apple\u2026 http://t.co/FcIlo8G3dM #Apple #iWatch #applestore #AppleWatch #apps
p54
aV#Watch #Wearable \u2013 This awesome infographic\u2026 http://t.co/IEZa53R37k #Apple #iWatch #applestore #AppleWatch #apps http://t.co/FfJHnq5sjg
p55
aV#Watch #Wearable \u2013 This awesome infographic tells you every Apple\u2026 http://t.co/HDmfvpuyAj #Apple #iWatch #applestore #AppleWatch #apps
p56
aV#Watch #Wearable \u2013 This awesome infographic tells you every Apple\u2026 http://t.co/Wu5esghkCi #Apple #iWatch #applestore #AppleWatch #apps
p57
aVTo use Apple Watch This awesome infographic tells you every gesture\u2026 http://t.co/ezVD3BVguk #Apple #iWatch #applestore #AppleWatch #apps
p58
aV#Watch #Wearable \u2013 This awesome infographic tells you every Apple\u2026 http://t.co/KZLDqqiwA7 #Apple #iWatch #applestore #AppleWatch #apps
p59
aV#Watch #Wearable \u2013 This awesome infographic\u2026 http://t.co/Dgaxz0pltb #Apple #iWatch #applestore #AppleWatch #apps http://t.co/itSzeXZOV1
p60
aV#Watch #Wearable \u2013 This awesome infographic tells you every Apple\u2026 http://t.co/2mNXvkU2mB #Apple #iWatch #applestore #AppleWatch #apps
p61
aV#Watch #Wearable \u2013 This awesome infographic\u2026 http://t.co/beTB1wSfLV #Apple #iWatch #applestore #AppleWatch #apps http://t.co/G29N2RMyFY
p62
aV#Watch #Wearable \u2013 This awesome infographic tells you every Apple\u2026 http://t.co/3Y3dPml2rk #Apple #iWatch #applestore #AppleWatch #apps
p63
aV#Watch #Wearable \u2013 This awesome infographic tells you every Apple\u2026 http://t.co/mGqlZA9eZL #Apple #iWatch #applestore #AppleWatch #apps
p64
aV#Watch #Wearable \u2013 This awesome infographic\u2026 http://t.co/o2sZI5AW5K #Apple #iWatch #applestore #AppleWatch #apps http://t.co/Ut3K42rzgJ
p65
aVTo use Apple Watch This awesome infographic tells you every gesture\u2026 http://t.co/bEub0k0Kum #Apple #iWatch #applestore #AppleWatch #apps
p66
aV#Watch #Wearable \u2013 This awesome infographic\u2026 http://t.co/1O0s7yMNoB #Apple #iWatch #applestore #AppleWatch #apps http://t.co/Hi3Qk3Qjjv
p67
aV#Watch #Wearable \u2013 This awesome infographic\u2026 http://t.co/sowC8jw3OE #Apple #iWatch #applestore #AppleWatch #apps http://t.co/My6JXGQeHg
p68
aV#Watch #Wearable \u2013 This awesome infographic\u2026 http://t.co/xBelaswpD1 #Apple #iWatch #applestore #AppleWatch #apps http://t.co/Hc9sYDJlrv
p69
aVTo use Apple Watch This awesome infographic tells you every gesture\u2026 http://t.co/G08fEvswWP #Apple #iWatch #applestore #AppleWatch #apps
p70
aV#Watch #Wearable \u2013 This awesome infographic\u2026 http://t.co/WmKFesCOLF #Apple #iWatch #applestore #AppleWatch #apps http://t.co/36lhBb9ESh
p71
aVTo use Apple Watch This awesome infographic\u2026 http://t.co/T2dRWyLIoS #Apple #iWatch #applestore #AppleWatch #apps http://t.co/2uCpcNP6Du
p72
aV#Watch #Wearable \u2013 This awesome infographic tells you every Apple\u2026 http://t.co/l2nwXpIMIU #Apple #iWatch #applestore #AppleWatch #apps
p73
aV#Watch #Wearable \u2013 This awesome infographic tells you every Apple\u2026 http://t.co/dtAVeGBiTy #Apple #iWatch #applestore #AppleWatch #apps
p74
aV#Watch #Wearable \u2013 This awesome infographic tells you every Apple\u2026 http://t.co/bbveFA91lR #Apple #iWatch #applestore #AppleWatch #apps
p75
aV#Watch #Wearable \u2013 This awesome infographic tells you every Apple\u2026 http://t.co/9Ur5CxxSsQ #Apple #iWatch #applestore #AppleWatch #apps
p76
aV#Watch #Wearable \u2013 This awesome infographic tells you every Apple\u2026 http://t.co/jvYjmddXpF #Apple #iWatch #applestore #AppleWatch #apps
p77
aV#Watch #Wearable \u2013 This awesome infographic tells you every Apple\u2026 http://t.co/mmtP1bMhB8 #Apple #iWatch #applestore #AppleWatch #apps
p78
aV#Watch #Wearable \u2013 This awesome infographic\u2026 http://t.co/uKgnjYfDTk #Apple #iWatch #applestore #AppleWatch #apps http://t.co/QPSGDcRGky
p79
aV#Watch #Wearable \u2013 This awesome infographic tells you every Apple\u2026 http://t.co/BlZvUXc4Fl #Apple #iWatch #applestore #AppleWatch #apps
p80
aV#Watch #Wearable \u2013 This awesome infographic\u2026 http://t.co/5atE5LLhof #Apple #iWatch #applestore #AppleWatch #apps http://t.co/ZXwalEDRdW
p81
aV#Watch #Wearable \u2013 This awesome infographic\u2026 http://t.co/eLaGzjqQws #Apple #iWatch #applestore #AppleWatch #apps http://t.co/CJv5581XB7
p82
aV#Watch #Wearable \u2013 This awesome infographic tells you every Apple\u2026 http://t.co/Vk0juVpaPh #Apple #iWatch #applestore #AppleWatch #apps
p83
aV#Watch #Wearable \u2013 This awesome infographic\u2026 http://t.co/5gazLeWvGy #Apple #iWatch #applestore #AppleWatch #apps http://t.co/9LrTsvhg8l
p84
aV#Watch #Wearable \u2013 This awesome infographic tells you every Apple\u2026 http://t.co/0qU9ADTetn #Apple #iWatch #applestore #AppleWatch #apps
p85
aVTo use Apple Watch This awesome infographic tells you every gesture\u2026 http://t.co/xxFhaP8emj #Apple #iWatch #applestore #AppleWatch #apps
p86
aV#Watch #Wearable \u2013 This awesome infographic\u2026 http://t.co/dGgVz3MMjA #Apple #iWatch #applestore #AppleWatch #apps http://t.co/I4m8CQmcOB
p87
aV#Watch #Wearable \u2013 This awesome infographic\u2026 http://t.co/kDlDeUKckg #Apple #iWatch #applestore #AppleWatch #apps http://t.co/ERgFbmoURw
p88
aV#Watch #Wearable \u2013 This awesome infographic tells you every Apple\u2026 http://t.co/KEIdabf5Jt #Apple #iWatch #applestore #AppleWatch #apps
p89
aV#Watch #Wearable \u2013 This awesome infographic\u2026 http://t.co/ywuVOQNvzd #Apple #iWatch #applestore #AppleWatch #apps http://t.co/7xnPcNpHV6
p90
aV#Watch #Wearable \u2013 This awesome infographic\u2026 http://t.co/W3Wj4ozYrX #Apple #iWatch #applestore #AppleWatch #apps http://t.co/dxoJTjs6ri
p91
aV\u6642\u8a08\u8a55\u8ad6\u5bb6\u300cApple Watch\u3001\u56f0\u3063\u305f\u3053\u3068\u306b\u3001\u6642\u8a08\u3068\u3057\u3066\u3088\u304f\u3067\u304d\u3066\u308b\u300d - IT\u901f\u5831 http://t.co/V2ojW6RJnq\u000a\u30ed\u30ec\u30c3\u30af\u30b9\u306f\u5f8c\u7d99\u6a5f\u304c\u51fa\u3066\u3082\u5024\u6253\u3061\u3042\u308b\u3051\u3069\u3001AppleWatch\u306f\u5f8c\u7d99\u6a5f\u51fa\u305f\u3089\u4fa1\u5024\u304c\u30ac\u30bf\u843d\u3061\u3059\u308b\u306e\u306b\u4e00\u7dd2\u306b\u3057\u305f\u3089\u30c0\u30e1\u3060\u308d
p92
aVTo use Apple Watch This awesome infographic tells you every gesture\u2026 http://t.co/7tcFxqLxGv #Apple #iWatch #applestore #AppleWatch #apps
p93
aV#Watch #Wearable \u2013 This awesome infographic\u2026 http://t.co/YDbkzFs6fN #Apple #iWatch #applestore #AppleWatch #apps http://t.co/H9D8hm34qk
p94
aVTo use Apple Watch This awesome infographic\u2026 http://t.co/fdUMyh7hNo #Apple #iWatch #applestore #AppleWatch #apps http://t.co/5Wq9yZiQP9
p95
aV#Watch #Wearable \u2013 This awesome infographic\u2026 http://t.co/l2nwXpIMIU #Apple #iWatch #applestore #AppleWatch #apps http://t.co/gsS6nECbwt
p96
aV#Watch #Wearable \u2013 This awesome infographic tells you every Apple\u2026 http://t.co/YqajCcSKuy #Apple #iWatch #applestore #AppleWatch #apps
p97
aV#Watch #Wearable \u2013 This awesome infographic\u2026 http://t.co/34saWZ73zc #Apple #iWatch #applestore #AppleWatch #apps http://t.co/mcszj4T3d4
p98
aVTo use Apple Watch This awesome infographic\u2026 http://t.co/UYI9v4EWLY #Apple #iWatch #applestore #AppleWatch #apps http://t.co/iIZ70nnuvU
p99
aV#Watch #Wearable \u2013 This awesome infographic tells you every Apple\u2026 http://t.co/khHqA8FIhC #Apple #iWatch #applestore #AppleWatch #apps
p100
a.