(lp0
VRT @waros_waros: Apple Watch\u3001\u4f55\u306b\u4f3c\u3066\u308b\u304b\u3068\u601d\u3063\u305f\u3089DaftPunk\u306e\u53f3\u5074\u3060\u308f\u000ahttp://t.co/f3BGi1VmFu\u000a#AppleWatch #DuftPunk #\u30c0\u30d5\u30c8\u30d1\u30f3\u30af
p1
aVRT @waros_waros: Apple Watch\u3001\u4f55\u306b\u4f3c\u3066\u308b\u304b\u3068\u601d\u3063\u305f\u3089DaftPunk\u306e\u53f3\u5074\u3060\u308f\u000ahttp://t.co/f3BGi1VmFu\u000a#AppleWatch #DuftPunk #\u30c0\u30d5\u30c8\u30d1\u30f3\u30af
p2
aVRT @waros_waros: Apple Watch\u3001\u4f55\u306b\u4f3c\u3066\u308b\u304b\u3068\u601d\u3063\u305f\u3089DaftPunk\u306e\u53f3\u5074\u3060\u308f\u000ahttp://t.co/f3BGi1VmFu\u000a#AppleWatch #DuftPunk #\u30c0\u30d5\u30c8\u30d1\u30f3\u30af
p3
aVRT @iAmMaccing: Official Apple Watch accessibility page is up! #apple #AppleWatch \u000a\u000ahttp://t.co/p8ErsfN3m4 http://t.co/fTS2sJRZ98
p4
aVRT @waros_waros: Apple Watch\u3001\u4f55\u306b\u4f3c\u3066\u308b\u304b\u3068\u601d\u3063\u305f\u3089DaftPunk\u306e\u53f3\u5074\u3060\u308f\u000ahttp://t.co/f3BGi1VmFu\u000a#AppleWatch #DuftPunk #\u30c0\u30d5\u30c8\u30d1\u30f3\u30af
p5
aVRT @AppleWatchBot: \uff21\uff50\uff50\uff4c\uff45 \uff37\uff41\uff54\uff43\uff48\u3001\u521d\u65e5\u306e\u4e88\u7d04\uff11\uff10\uff10\u4e07\u53f0\u30fb\u30fb\uff21\uff4e\uff44\uff52\uff4f\uff49\uff44\u30b9\u30de\u30fc\u30c8\u30a6\u30a9\u30c3\u30c1\u306e\u5e74\u9593\u8ca9\u58f2\u6570\u4e0a\u56de\u308b http://t.co/wX9zIZjnHt #AppleWatch
p6
aVRT @AppleWatchED: iMagic Trick - Available for the iPhone and iPad. Soon for the... http://t.co/fUhK3x40wv #applewatch #apple #smartwatch #\u2026
p7
aVRT @waros_waros: Apple Watch\u3001\u4f55\u306b\u4f3c\u3066\u308b\u304b\u3068\u601d\u3063\u305f\u3089DaftPunk\u306e\u53f3\u5074\u3060\u308f\u000ahttp://t.co/f3BGi1VmFu\u000a#AppleWatch #DuftPunk #\u30c0\u30d5\u30c8\u30d1\u30f3\u30af
p8
aVRT @Paul_Sonnier: Consumers' #WearableTech Purchase Intention by Brand Name http://t.co/sDfUxve8Ho #DigitalHealth http://t.co/GfpjgvfiHD #A\u2026
p9
aVRT @waros_waros: Apple Watch\u3001\u4f55\u306b\u4f3c\u3066\u308b\u304b\u3068\u601d\u3063\u305f\u3089DaftPunk\u306e\u53f3\u5074\u3060\u308f\u000ahttp://t.co/f3BGi1VmFu\u000a#AppleWatch #DuftPunk #\u30c0\u30d5\u30c8\u30d1\u30f3\u30af
p10
aVRT @waros_waros: Apple Watch\u3001\u4f55\u306b\u4f3c\u3066\u308b\u304b\u3068\u601d\u3063\u305f\u3089DaftPunk\u306e\u53f3\u5074\u3060\u308f\u000ahttp://t.co/f3BGi1VmFu\u000a#AppleWatch #DuftPunk #\u30c0\u30d5\u30c8\u30d1\u30f3\u30af
p11
aVBroke down and got me a new #AppleWatch - what do you think? @ Apple Store, Irvine Spectrum Center https://t.co/AVhEttlzQH
p12
aV#AppleWatch for #free #contest #sweepstakes #giveaway #enter #pretty #sweet #gift to #win https://t.co/L6dEr5tcMp Ends 5/13/15
p13
aVRT @dfsoftwareinc: Things to do at #GIDS: 1. visit DreamFactory booth 2. learn how to develop apps faster 3. enter raffle for #AppleWatch 4\u2026
p14
aVAppleWatch\u304c\u3001\u300c\u96fb\u6c60\u304c\u4e09\u5e74\u3082\u3064\u305f\u3060\u306e\u8155\u6642\u8a08\u3060\u3063\u305f\u65b9\u304c\u58f2\u308c\u308b\u300d\u3068\u601d\u3063\u3066\u308b\u6642\u70b9\u3067\u3001\u304a\u3044\u3089\u306f\u8cb7\u308f\u306a\u3044\u306e\u3060\u3002
p15
aVApple Watch UI: Cool Technical Post\u000ahttp://t.co/NsKq37h6dU #AppleWatch
p16
aVApple Watch UI: Cool Technical Post\u000ahttp://t.co/GXZl9hzt7z #AppleWatch
p17
aVRT @waros_waros: Apple Watch\u3001\u4f55\u306b\u4f3c\u3066\u308b\u304b\u3068\u601d\u3063\u305f\u3089DaftPunk\u306e\u53f3\u5074\u3060\u308f\u000ahttp://t.co/f3BGi1VmFu\u000a#AppleWatch #DuftPunk #\u30c0\u30d5\u30c8\u30d1\u30f3\u30af
p18
aV5 Insane Devices for Monitoring Your Kids... Why no just RFID your kids?\u000ahttp://t.co/mrFxFIaHoJ #nannystate #AppleWatch @reason
p19
aVRT @waros_waros: Apple Watch\u3001\u4f55\u306b\u4f3c\u3066\u308b\u304b\u3068\u601d\u3063\u305f\u3089DaftPunk\u306e\u53f3\u5074\u3060\u308f\u000ahttp://t.co/f3BGi1VmFu\u000a#AppleWatch #DuftPunk #\u30c0\u30d5\u30c8\u30d1\u30f3\u30af
p20
aVRT @waros_waros: Apple Watch\u3001\u4f55\u306b\u4f3c\u3066\u308b\u304b\u3068\u601d\u3063\u305f\u3089DaftPunk\u306e\u53f3\u5074\u3060\u308f\u000ahttp://t.co/f3BGi1VmFu\u000a#AppleWatch #DuftPunk #\u30c0\u30d5\u30c8\u30d1\u30f3\u30af
p21
aVRT @waros_waros: Apple Watch\u3001\u4f55\u306b\u4f3c\u3066\u308b\u304b\u3068\u601d\u3063\u305f\u3089DaftPunk\u306e\u53f3\u5074\u3060\u308f\u000ahttp://t.co/f3BGi1VmFu\u000a#AppleWatch #DuftPunk #\u30c0\u30d5\u30c8\u30d1\u30f3\u30af
p22
aVRT @news_pub: \u30bd\u30d5\u30c8\u30d0\u30f3\u30af\u8868\u53c2\u9053\uff1a Apple Watch\u8a66\u7740\u306b\u4e26\u3093\u3067\u3044\u307e\u3059 #AppleWatch #\u30ae\u30ba\u30e2\u30fc\u30c9 http://t.co/MZXNgoCq0Z #\u30cb\u30e5\u30fc\u30b9
p23
aVRT @waros_waros: Apple Watch\u3001\u4f55\u306b\u4f3c\u3066\u308b\u304b\u3068\u601d\u3063\u305f\u3089DaftPunk\u306e\u53f3\u5074\u3060\u308f\u000ahttp://t.co/f3BGi1VmFu\u000a#AppleWatch #DuftPunk #\u30c0\u30d5\u30c8\u30d1\u30f3\u30af
p24
aVRT @waros_waros: Apple Watch\u3001\u4f55\u306b\u4f3c\u3066\u308b\u304b\u3068\u601d\u3063\u305f\u3089DaftPunk\u306e\u53f3\u5074\u3060\u308f\u000ahttp://t.co/f3BGi1VmFu\u000a#AppleWatch #DuftPunk #\u30c0\u30d5\u30c8\u30d1\u30f3\u30af
p25
aV\u062e\u0628\u0631 \U0001f4f0 :\u000a\u000a\u062a\u0642\u0627\u0631\u064a\u0631 \u062c\u062f\u064a\u062f\u0647 \u062a\u0634\u064a\u0631 \u0627\u0644\u0649 \u0627\u0646 \u0627\u0644\u0637\u0644\u0628 \u0627\u0644\u0645\u0633\u0628\u0642 \u0639\u0644\u0649 \u0633\u0627\u0639\u0629 \u0627\u0628\u0644 \u0633\u064a\u0635\u0644 \u0627\u0644\u0649 2.3 \u0645\u0644\u064a\u0648\u0646 \u0633\u0627\u0639\u0629\u000a\u000a#AppleWatch\u000a- http://t.co/JYOc8IHuEy
p26
aVRT @i_Cydia: \u062e\u0628\u0631 \U0001f4f0 :\u000a\u000a\u062a\u0642\u0627\u0631\u064a\u0631 \u062c\u062f\u064a\u062f\u0647 \u062a\u0634\u064a\u0631 \u0627\u0644\u0649 \u0627\u0646 \u0627\u0644\u0637\u0644\u0628 \u0627\u0644\u0645\u0633\u0628\u0642 \u0639\u0644\u0649 \u0633\u0627\u0639\u0629 \u0627\u0628\u0644 \u0633\u064a\u0635\u0644 \u0627\u0644\u0649 2.3 \u0645\u0644\u064a\u0648\u0646 \u0633\u0627\u0639\u0629\u000a\u000a#AppleWatch\u000a- http://t.co/JYOc8IHuEy
p27
aVRT @waros_waros: Apple Watch\u3001\u4f55\u306b\u4f3c\u3066\u308b\u304b\u3068\u601d\u3063\u305f\u3089DaftPunk\u306e\u53f3\u5074\u3060\u308f\u000ahttp://t.co/f3BGi1VmFu\u000a#AppleWatch #DuftPunk #\u30c0\u30d5\u30c8\u30d1\u30f3\u30af
p28
aVRT @iAmMaccing: Official Apple Watch accessibility page is up! #apple #AppleWatch \u000a\u000ahttp://t.co/p8ErsfN3m4 http://t.co/fTS2sJRZ98
p29
aVRT @waros_waros: Apple Watch\u3001\u4f55\u306b\u4f3c\u3066\u308b\u304b\u3068\u601d\u3063\u305f\u3089DaftPunk\u306e\u53f3\u5074\u3060\u308f\u000ahttp://t.co/f3BGi1VmFu\u000a#AppleWatch #DuftPunk #\u30c0\u30d5\u30c8\u30d1\u30f3\u30af
p30
aVRT @waros_waros: Apple Watch\u3001\u4f55\u306b\u4f3c\u3066\u308b\u304b\u3068\u601d\u3063\u305f\u3089DaftPunk\u306e\u53f3\u5074\u3060\u308f\u000ahttp://t.co/f3BGi1VmFu\u000a#AppleWatch #DuftPunk #\u30c0\u30d5\u30c8\u30d1\u30f3\u30af
p31
aVRT @iAmMaccing: Official Apple Watch accessibility page is up! #apple #AppleWatch \u000a\u000ahttp://t.co/p8ErsfN3m4 http://t.co/fTS2sJRZ98
p32
aVRT @gregsiul: Tagbum by Tagamation\u000ahttps://t.co/KiCSCYHszk aplicacion para dispositivos de #Apple pronto #AppleWatch @gfrias @Paradigmafm @\u2026
p33
aVRT @waros_waros: Apple Watch\u3001\u4f55\u306b\u4f3c\u3066\u308b\u304b\u3068\u601d\u3063\u305f\u3089DaftPunk\u306e\u53f3\u5074\u3060\u308f\u000ahttp://t.co/f3BGi1VmFu\u000a#AppleWatch #DuftPunk #\u30c0\u30d5\u30c8\u30d1\u30f3\u30af
p34
aVRT @waros_waros: Apple Watch\u3001\u4f55\u306b\u4f3c\u3066\u308b\u304b\u3068\u601d\u3063\u305f\u3089DaftPunk\u306e\u53f3\u5074\u3060\u308f\u000ahttp://t.co/f3BGi1VmFu\u000a#AppleWatch #DuftPunk #\u30c0\u30d5\u30c8\u30d1\u30f3\u30af
p35
aVRT @iAmMaccing: Official Apple Watch accessibility page is up! #apple #AppleWatch \u000a\u000ahttp://t.co/p8ErsfN3m4 http://t.co/fTS2sJRZ98
p36
aVRT @waros_waros: Apple Watch\u3001\u4f55\u306b\u4f3c\u3066\u308b\u304b\u3068\u601d\u3063\u305f\u3089DaftPunk\u306e\u53f3\u5074\u3060\u308f\u000ahttp://t.co/f3BGi1VmFu\u000a#AppleWatch #DuftPunk #\u30c0\u30d5\u30c8\u30d1\u30f3\u30af
p37
aVApple watch preorders hit 2.3 million units - Taptic engine and OLED displays to blame for shortage: #AppleWatch  http://t.co/jL3XMIrfNi
p38
aVRT @waros_waros: Apple Watch\u3001\u4f55\u306b\u4f3c\u3066\u308b\u304b\u3068\u601d\u3063\u305f\u3089DaftPunk\u306e\u53f3\u5074\u3060\u308f\u000ahttp://t.co/f3BGi1VmFu\u000a#AppleWatch #DuftPunk #\u30c0\u30d5\u30c8\u30d1\u30f3\u30af
p39
aVRT @CharmingCharlie: We're giving away an #AppleWatch and some of our favorites right now -&gt; http://t.co/kTrH3QnHjJ http://t.co/l3TYl0MLHm
p40
aVRT @waros_waros: Apple Watch\u3001\u4f55\u306b\u4f3c\u3066\u308b\u304b\u3068\u601d\u3063\u305f\u3089DaftPunk\u306e\u53f3\u5074\u3060\u308f\u000ahttp://t.co/f3BGi1VmFu\u000a#AppleWatch #DuftPunk #\u30c0\u30d5\u30c8\u30d1\u30f3\u30af
p41
aVRT @waros_waros: Apple Watch\u3001\u4f55\u306b\u4f3c\u3066\u308b\u304b\u3068\u601d\u3063\u305f\u3089DaftPunk\u306e\u53f3\u5074\u3060\u308f\u000ahttp://t.co/f3BGi1VmFu\u000a#AppleWatch #DuftPunk #\u30c0\u30d5\u30c8\u30d1\u30f3\u30af
p42
aVRT @i_Cydia: \u062e\u0628\u0631 \U0001f4f0 :\u000a\u000a\u062a\u0642\u0627\u0631\u064a\u0631 \u062c\u062f\u064a\u062f\u0647 \u062a\u0634\u064a\u0631 \u0627\u0644\u0649 \u0627\u0646 \u0627\u0644\u0637\u0644\u0628 \u0627\u0644\u0645\u0633\u0628\u0642 \u0639\u0644\u0649 \u0633\u0627\u0639\u0629 \u0627\u0628\u0644 \u0633\u064a\u0635\u0644 \u0627\u0644\u0649 2.3 \u0645\u0644\u064a\u0648\u0646 \u0633\u0627\u0639\u0629\u000a\u000a#AppleWatch\u000a- http://t.co/JYOc8IHuEy
p43
aVRT @waros_waros: Apple Watch\u3001\u4f55\u306b\u4f3c\u3066\u308b\u304b\u3068\u601d\u3063\u305f\u3089DaftPunk\u306e\u53f3\u5074\u3060\u308f\u000ahttp://t.co/f3BGi1VmFu\u000a#AppleWatch #DuftPunk #\u30c0\u30d5\u30c8\u30d1\u30f3\u30af
p44
aVRT @iAmMaccing: Official Apple Watch accessibility page is up! #apple #AppleWatch \u000a\u000ahttp://t.co/p8ErsfN3m4 http://t.co/fTS2sJRZ98
p45
aVRT @KeigoTakeda: \u3042\u3093\u306a\u30c0\u30b5\u3044\u6642\u8a08\u306f\u3081\u305f\u3089\u624b\u9996\u304c\u8150\u308a\u307e\u3059\u3088\u3002RT @AQUOS_K: \u512a\u8d8a\u611f\u306e\u305f\u3081\u306b\u306fAppleWatch Edition\u3082\u5fc5\u8981\u3067\u3059\u3088\u306d\u3002\u3054\u4e88\u7d04\u304a\u3081\u3067\u3068\u3046\u3054\u3056\u3044\u307e\u3059\u3002\u3044\u3064\u5230\u7740\u4e88\u5b9a\u3067\u3059\uff1f  RT \u30b9\u30bf\u30d0\u3067\u53d6\u308a\u51fa\u3057\u305f\u6642\u306e\u5468\u56f2\u306e\u300c\u304a\u3063\u300d\u3068\u3044\u3046\u8996\u7dda\u304c\u3082\u305f\u2026
p46
aVRT @waros_waros: Apple Watch\u3001\u4f55\u306b\u4f3c\u3066\u308b\u304b\u3068\u601d\u3063\u305f\u3089DaftPunk\u306e\u53f3\u5074\u3060\u308f\u000ahttp://t.co/f3BGi1VmFu\u000a#AppleWatch #DuftPunk #\u30c0\u30d5\u30c8\u30d1\u30f3\u30af
p47
aVRT @waros_waros: Apple Watch\u3001\u4f55\u306b\u4f3c\u3066\u308b\u304b\u3068\u601d\u3063\u305f\u3089DaftPunk\u306e\u53f3\u5074\u3060\u308f\u000ahttp://t.co/f3BGi1VmFu\u000a#AppleWatch #DuftPunk #\u30c0\u30d5\u30c8\u30d1\u30f3\u30af
p48
aVRT @waros_waros: Apple Watch\u3001\u4f55\u306b\u4f3c\u3066\u308b\u304b\u3068\u601d\u3063\u305f\u3089DaftPunk\u306e\u53f3\u5074\u3060\u308f\u000ahttp://t.co/f3BGi1VmFu\u000a#AppleWatch #DuftPunk #\u30c0\u30d5\u30c8\u30d1\u30f3\u30af
p49
aVRT@pietrolisi Five things the #Pebble Time can do that the #AppleWatch can't (ZDNet) http://t.co/vY0MIOEhMA
p50
aV@polyGeek @joshtynjala one of the @sglansing attendees tomorrow, @brightdigit, made an #applewatch app already. He might be able to help.
p51
aVRT @waros_waros: Apple Watch\u3001\u4f55\u306b\u4f3c\u3066\u308b\u304b\u3068\u601d\u3063\u305f\u3089DaftPunk\u306e\u53f3\u5074\u3060\u308f\u000ahttp://t.co/f3BGi1VmFu\u000a#AppleWatch #DuftPunk #\u30c0\u30d5\u30c8\u30d1\u30f3\u30af
p52
aVRT @waros_waros: Apple Watch\u3001\u4f55\u306b\u4f3c\u3066\u308b\u304b\u3068\u601d\u3063\u305f\u3089DaftPunk\u306e\u53f3\u5074\u3060\u308f\u000ahttp://t.co/f3BGi1VmFu\u000a#AppleWatch #DuftPunk #\u30c0\u30d5\u30c8\u30d1\u30f3\u30af
p53
aVRT @waros_waros: Apple Watch\u3001\u4f55\u306b\u4f3c\u3066\u308b\u304b\u3068\u601d\u3063\u305f\u3089DaftPunk\u306e\u53f3\u5074\u3060\u308f\u000ahttp://t.co/f3BGi1VmFu\u000a#AppleWatch #DuftPunk #\u30c0\u30d5\u30c8\u30d1\u30f3\u30af
p54
aVRT @waros_waros: Apple Watch\u3001\u4f55\u306b\u4f3c\u3066\u308b\u304b\u3068\u601d\u3063\u305f\u3089DaftPunk\u306e\u53f3\u5074\u3060\u308f\u000ahttp://t.co/f3BGi1VmFu\u000a#AppleWatch #DuftPunk #\u30c0\u30d5\u30c8\u30d1\u30f3\u30af
p55
aVRT @appleinsider: Moto 360, other smartwatches get price cuts ahead of #AppleWatch launch http://t.co/4pNlB97oOb http://t.co/HCwD2DYgyW
p56
aVRT @waros_waros: Apple Watch\u3001\u4f55\u306b\u4f3c\u3066\u308b\u304b\u3068\u601d\u3063\u305f\u3089DaftPunk\u306e\u53f3\u5074\u3060\u308f\u000ahttp://t.co/f3BGi1VmFu\u000a#AppleWatch #DuftPunk #\u30c0\u30d5\u30c8\u30d1\u30f3\u30af
p57
aVRT @waros_waros: Apple Watch\u3001\u4f55\u306b\u4f3c\u3066\u308b\u304b\u3068\u601d\u3063\u305f\u3089DaftPunk\u306e\u53f3\u5074\u3060\u308f\u000ahttp://t.co/f3BGi1VmFu\u000a#AppleWatch #DuftPunk #\u30c0\u30d5\u30c8\u30d1\u30f3\u30af
p58
aVRT @waros_waros: Apple Watch\u3001\u4f55\u306b\u4f3c\u3066\u308b\u304b\u3068\u601d\u3063\u305f\u3089DaftPunk\u306e\u53f3\u5074\u3060\u308f\u000ahttp://t.co/f3BGi1VmFu\u000a#AppleWatch #DuftPunk #\u30c0\u30d5\u30c8\u30d1\u30f3\u30af
p59
aV\u305d\u308a\u3083\u3042\u8cb7\u3048\u306a\u3044\u308f\u3051\u3060\u308f\u3002\u3002\u000a-\u30a2\u30c3\u30d7\u30eb\u30a6\u30aa\u30c3\u30c1\u3001\u7c73\u6210\u4eba\u4eba\u53e3\u306e6\uff05\u304c\u8cfc\u5165\u3092\u691c\u8a0e\uff1d\u8abf\u67fb | Reuters #AppleWatch\u5165\u8377\u306f6\u6708  http://t.co/ZUIHFo9hlJ
p60
aVRT @waros_waros: Apple Watch\u3001\u4f55\u306b\u4f3c\u3066\u308b\u304b\u3068\u601d\u3063\u305f\u3089DaftPunk\u306e\u53f3\u5074\u3060\u308f\u000ahttp://t.co/f3BGi1VmFu\u000a#AppleWatch #DuftPunk #\u30c0\u30d5\u30c8\u30d1\u30f3\u30af
p61
aVRT @waros_waros: Apple Watch\u3001\u4f55\u306b\u4f3c\u3066\u308b\u304b\u3068\u601d\u3063\u305f\u3089DaftPunk\u306e\u53f3\u5074\u3060\u308f\u000ahttp://t.co/f3BGi1VmFu\u000a#AppleWatch #DuftPunk #\u30c0\u30d5\u30c8\u30d1\u30f3\u30af
p62
aVRT @Paul_Sonnier: Consumers' #WearableTech Purchase Intention by Brand Name http://t.co/sDfUxve8Ho #DigitalHealth http://t.co/GfpjgvfiHD #A\u2026
p63
aVRT @waros_waros: Apple Watch\u3001\u4f55\u306b\u4f3c\u3066\u308b\u304b\u3068\u601d\u3063\u305f\u3089DaftPunk\u306e\u53f3\u5074\u3060\u308f\u000ahttp://t.co/f3BGi1VmFu\u000a#AppleWatch #DuftPunk #\u30c0\u30d5\u30c8\u30d1\u30f3\u30af
p64
aVRT @waros_waros: Apple Watch\u3001\u4f55\u306b\u4f3c\u3066\u308b\u304b\u3068\u601d\u3063\u305f\u3089DaftPunk\u306e\u53f3\u5074\u3060\u308f\u000ahttp://t.co/f3BGi1VmFu\u000a#AppleWatch #DuftPunk #\u30c0\u30d5\u30c8\u30d1\u30f3\u30af
p65
aVRT @TNWDeals: Guess what? We're giving away the #AppleWatch! http://t.co/x5JdKt0jcn http://t.co/bi7jfFDQRP
p66
aVRT @waros_waros: Apple Watch\u3001\u4f55\u306b\u4f3c\u3066\u308b\u304b\u3068\u601d\u3063\u305f\u3089DaftPunk\u306e\u53f3\u5074\u3060\u308f\u000ahttp://t.co/f3BGi1VmFu\u000a#AppleWatch #DuftPunk #\u30c0\u30d5\u30c8\u30d1\u30f3\u30af
p67
aVApple Watch \u3053\u308f\u3044 http://t.co/alQXCk16Ht #AppleWatch
p68
aVApple Watch\u6700\u5927\u306e\u5f31\u70b9\u3092\u514b\u670d\uff01\u30d0\u30c3\u30c6\u30ea\u30fc\u5185\u8535\u30ea\u30b9\u30c8\u30d0\u30f3\u30c9 http://t.co/d59CZZmASr #AppleWatch
p69
aVApple Watch\u8a66\u7740\u5236\u5ea6\u306f\u306a\u304b\u306a\u304b\u8003\u3048\u3089\u308c\u3066\u3044\u308b http://t.co/4sPAEn6SWG #AppleWatch
p70
aVRT @waros_waros: Apple Watch\u3001\u4f55\u306b\u4f3c\u3066\u308b\u304b\u3068\u601d\u3063\u305f\u3089DaftPunk\u306e\u53f3\u5074\u3060\u308f\u000ahttp://t.co/f3BGi1VmFu\u000a#AppleWatch #DuftPunk #\u30c0\u30d5\u30c8\u30d1\u30f3\u30af
p71
aVRT @waros_waros: Apple Watch\u3001\u4f55\u306b\u4f3c\u3066\u308b\u304b\u3068\u601d\u3063\u305f\u3089DaftPunk\u306e\u53f3\u5074\u3060\u308f\u000ahttp://t.co/f3BGi1VmFu\u000a#AppleWatch #DuftPunk #\u30c0\u30d5\u30c8\u30d1\u30f3\u30af
p72
aVRT @waros_waros: Apple Watch\u3001\u4f55\u306b\u4f3c\u3066\u308b\u304b\u3068\u601d\u3063\u305f\u3089DaftPunk\u306e\u53f3\u5074\u3060\u308f\u000ahttp://t.co/f3BGi1VmFu\u000a#AppleWatch #DuftPunk #\u30c0\u30d5\u30c8\u30d1\u30f3\u30af
p73
aVRT @waros_waros: Apple Watch\u3001\u4f55\u306b\u4f3c\u3066\u308b\u304b\u3068\u601d\u3063\u305f\u3089DaftPunk\u306e\u53f3\u5074\u3060\u308f\u000ahttp://t.co/f3BGi1VmFu\u000a#AppleWatch #DuftPunk #\u30c0\u30d5\u30c8\u30d1\u30f3\u30af
p74
aVRT @mobileiron: NEW #RethinkCIO blog post: How to prepare for #AppleWatch coming to your organization by @RyanFaas #HIMSS15 https://t.co/Bd\u2026
p75
aVRT @waros_waros: Apple Watch\u3001\u4f55\u306b\u4f3c\u3066\u308b\u304b\u3068\u601d\u3063\u305f\u3089DaftPunk\u306e\u53f3\u5074\u3060\u308f\u000ahttp://t.co/f3BGi1VmFu\u000a#AppleWatch #DuftPunk #\u30c0\u30d5\u30c8\u30d1\u30f3\u30af
p76
aVRT @waros_waros: Apple Watch\u3001\u4f55\u306b\u4f3c\u3066\u308b\u304b\u3068\u601d\u3063\u305f\u3089DaftPunk\u306e\u53f3\u5074\u3060\u308f\u000ahttp://t.co/f3BGi1VmFu\u000a#AppleWatch #DuftPunk #\u30c0\u30d5\u30c8\u30d1\u30f3\u30af
p77
aVNew post: #1password #apple #AppleWatch #Apps 1Password Makes Its Way Onto the Apple Watch And Into Real Life http://t.co/t1NwJHovJ1
p78
aVRT @CharmingCharlie: We're giving away an #AppleWatch and some of our favorites right now -&gt; http://t.co/kTrH3QnHjJ http://t.co/l3TYl0MLHm
p79
aVRT @waros_waros: Apple Watch\u3001\u4f55\u306b\u4f3c\u3066\u308b\u304b\u3068\u601d\u3063\u305f\u3089DaftPunk\u306e\u53f3\u5074\u3060\u308f\u000ahttp://t.co/f3BGi1VmFu\u000a#AppleWatch #DuftPunk #\u30c0\u30d5\u30c8\u30d1\u30f3\u30af
p80
aVRT @waros_waros: Apple Watch\u3001\u4f55\u306b\u4f3c\u3066\u308b\u304b\u3068\u601d\u3063\u305f\u3089DaftPunk\u306e\u53f3\u5074\u3060\u308f\u000ahttp://t.co/f3BGi1VmFu\u000a#AppleWatch #DuftPunk #\u30c0\u30d5\u30c8\u30d1\u30f3\u30af
p81
aVRT @pschiller: Watch more tours\u000ahttp://t.co/TYKpRKTZRE\u000a#applewatch
p82
aVRT @waros_waros: Apple Watch\u3001\u4f55\u306b\u4f3c\u3066\u308b\u304b\u3068\u601d\u3063\u305f\u3089DaftPunk\u306e\u53f3\u5074\u3060\u308f\u000ahttp://t.co/f3BGi1VmFu\u000a#AppleWatch #DuftPunk #\u30c0\u30d5\u30c8\u30d1\u30f3\u30af
p83
aVRT @cfs_matt: Inconvenient Truths About The Apple Watch https://t.co/iBAvhoujRx - An honest article about #AppleWatch
p84
aVRT @waros_waros: Apple Watch\u3001\u4f55\u306b\u4f3c\u3066\u308b\u304b\u3068\u601d\u3063\u305f\u3089DaftPunk\u306e\u53f3\u5074\u3060\u308f\u000ahttp://t.co/f3BGi1VmFu\u000a#AppleWatch #DuftPunk #\u30c0\u30d5\u30c8\u30d1\u30f3\u30af
p85
aVRT @waros_waros: Apple Watch\u3001\u4f55\u306b\u4f3c\u3066\u308b\u304b\u3068\u601d\u3063\u305f\u3089DaftPunk\u306e\u53f3\u5074\u3060\u308f\u000ahttp://t.co/f3BGi1VmFu\u000a#AppleWatch #DuftPunk #\u30c0\u30d5\u30c8\u30d1\u30f3\u30af
p86
aVThe Apple Watch Wasn't the iWatch for One Strange Reason http://t.co/KqaHP5kfLF #Apple, #AppleWatch, #iWatch
p87
aVRT @wearableapps: RT@pietrolisi Five things the #Pebble Time can do that the #AppleWatch can't (ZDNet) http://t.co/vY0MIOEhMA
p88
aVRT @kevinfreitas: #AppleWatch review (or why I'm sticking with my @Pebble) http://t.co/28jgxKp7mi
p89
aVRT @waros_waros: Apple Watch\u3001\u4f55\u306b\u4f3c\u3066\u308b\u304b\u3068\u601d\u3063\u305f\u3089DaftPunk\u306e\u53f3\u5074\u3060\u308f\u000ahttp://t.co/f3BGi1VmFu\u000a#AppleWatch #DuftPunk #\u30c0\u30d5\u30c8\u30d1\u30f3\u30af
p90
aVAppleWatch\u300c\u8cb7\u3046\u6c17\u306a\u3057\u300d\u306e\u58f0\u591a\u6570\u3000AppleWatch\u306f\u3059\u3050\u306b\u6b21\u4e16\u4ee3\u6a5f\u304c\u767b\u5834\u3059\u308b\u306f\u305a\u2192\u8cb7\u308f\u305a\u306b\u501f\u308a\u308d\u3000Google\u306eMVNO\u306fNexus6\u3067\u672a\u6d88\u5316\u30c7\u30fc\u30bf\u901a\u4fe1\u306f\u6255\u3044\u623b\u3057\u5bfe\u5fdc\u2026 http://t.co/cyZ7lnqDA2 http://t.co/hXb2IRL9ec
p91
aVRT @waros_waros: Apple Watch\u3001\u4f55\u306b\u4f3c\u3066\u308b\u304b\u3068\u601d\u3063\u305f\u3089DaftPunk\u306e\u53f3\u5074\u3060\u308f\u000ahttp://t.co/f3BGi1VmFu\u000a#AppleWatch #DuftPunk #\u30c0\u30d5\u30c8\u30d1\u30f3\u30af
p92
aVJust saw the #AppleWatch commercial on tv for the first time. Makes me even more excited to get mine on May 13th! #Apple #Hype
p93
aVRT @waros_waros: Apple Watch\u3001\u4f55\u306b\u4f3c\u3066\u308b\u304b\u3068\u601d\u3063\u305f\u3089DaftPunk\u306e\u53f3\u5074\u3060\u308f\u000ahttp://t.co/f3BGi1VmFu\u000a#AppleWatch #DuftPunk #\u30c0\u30d5\u30c8\u30d1\u30f3\u30af
p94
aVRT @hehegui: \u305d\u308a\u3083\u3042\u8cb7\u3048\u306a\u3044\u308f\u3051\u3060\u308f\u3002\u3002\u000a-\u30a2\u30c3\u30d7\u30eb\u30a6\u30aa\u30c3\u30c1\u3001\u7c73\u6210\u4eba\u4eba\u53e3\u306e6\uff05\u304c\u8cfc\u5165\u3092\u691c\u8a0e\uff1d\u8abf\u67fb | Reuters #AppleWatch\u5165\u8377\u306f6\u6708  http://t.co/ZUIHFo9hlJ
p95
aVanswer to http://t.co/0977bm8ozN \u000a#Apple #AppleWatch #innovation #startup #marketing #SilliconValley http://t.co/XoKoLEw5dq . 16.04 03:23
p96
aV@Zervan AppleWatch\u306f\u3068\u3082\u304b\u304f\u3001Androidwear\u306b\u95a2\u3057\u3066\u306f\u8155\u6642\u8a08\u3067\u3042\u308b\u5fc5\u8981\u306f\u306a\u3055\u305d\u3046\u306a\u3093\u3067\u3059\u3088\u306d\u3002
p97
aVRT @waros_waros: Apple Watch\u3001\u4f55\u306b\u4f3c\u3066\u308b\u304b\u3068\u601d\u3063\u305f\u3089DaftPunk\u306e\u53f3\u5074\u3060\u308f\u000ahttp://t.co/f3BGi1VmFu\u000a#AppleWatch #DuftPunk #\u30c0\u30d5\u30c8\u30d1\u30f3\u30af
p98
aVRT @waros_waros: Apple Watch\u3001\u4f55\u306b\u4f3c\u3066\u308b\u304b\u3068\u601d\u3063\u305f\u3089DaftPunk\u306e\u53f3\u5074\u3060\u308f\u000ahttp://t.co/f3BGi1VmFu\u000a#AppleWatch #DuftPunk #\u30c0\u30d5\u30c8\u30d1\u30f3\u30af
p99
aVRT @waros_waros: Apple Watch\u3001\u4f55\u306b\u4f3c\u3066\u308b\u304b\u3068\u601d\u3063\u305f\u3089DaftPunk\u306e\u53f3\u5074\u3060\u308f\u000ahttp://t.co/f3BGi1VmFu\u000a#AppleWatch #DuftPunk #\u30c0\u30d5\u30c8\u30d1\u30f3\u30af
p100
a.