(lp0
V#AppleWatch #Italy #Wearable \u2013 Apple Watch to be showcased at Salone del\u2026 http://t.co/LCDxAq9T7N #iWatch #Apple #appleiwatch #AppleWatch
p1
aV#AppleWatch #Italy #Wearable \u2013 Apple Watch to be showcased at Salone del\u2026 http://t.co/cuyohBihtU #iWatch #Apple #appleiwatch #AppleWatch
p2
aV#AppleWatch #Italy #Wearable \u2013 Apple Watch to be showcased at Salone del Mobile in Milan Italy \u2013\u2026 http://t.co/BTnxVfTsGV #iWatch #Apple
p3
aV#AppleWatch #Italy #Wearable \u2013 Apple Watch to be showcased at Salone del\u2026 http://t.co/B7HgE7VC32 #iWatch #Apple #appleiwatch #AppleWatch
p4
aV#AppleWatch #Italy #Wearable \u2013 Apple Watch to be showcased at Salone del Mobile in Milan Italy \u2013\u2026 http://t.co/9ttUxD3Teo #iWatch #Apple
p5
aV#AppleWatch #Italy #Wearable \u2013 Apple Watch to be showcased at Salone del Mobile in Milan Italy \u2013\u2026 http://t.co/bc6JGkEBr1 #iWatch #Apple
p6
aV#AppleWatch #Italy #Wearable \u2013 Apple Watch to be showcased at Salone del Mobile in Milan Italy \u2013\u2026 http://t.co/savsbaUkDr #iWatch #Apple
p7
aV#AppleWatch #Italy #Wearable \u2013 Apple Watch to be showcased at Salone del\u2026 http://t.co/bsrfh1UCkx #iWatch #Apple #appleiwatch #AppleWatch
p8
aV#AppleWatch #Italy #Wearable \u2013 Apple Watch to be showcased at Salone del Mobile in Milan Italy \u2013\u2026 http://t.co/savsbaUkDr #iWatch #Apple
p9
aV#AppleWatch #Italy #Wearable \u2013 Apple Watch to be showcased at Salone del\u2026 http://t.co/7fA10Cwo8j #iWatch #Apple #appleiwatch #AppleWatch
p10
aV#AppleWatch #Italy #Wearable \u2013 Apple Watch to be showcased at Salone del Mobile in Milan Italy \u2013\u2026 http://t.co/RTT2PlMOR7 #iWatch #Apple
p11
aV#AppleWatch #Italy #Wearable \u2013 Apple Watch to be showcased at Salone del\u2026 http://t.co/4WcXTznrr8 #iWatch #Apple #appleiwatch #AppleWatch
p12
aV#AppleWatch #Italy #Wearable \u2013 Apple Watch to be showcased at Salone del Mobile in Milan Italy \u2013\u2026 http://t.co/Epyd6TMHYq #iWatch #Apple
p13
aV#AppleWatch #Italy #Wearable \u2013 Apple Watch to be showcased at Salone del Mobile in Milan Italy \u2013\u2026 http://t.co/V511zjrMSh #iWatch #Apple
p14
aV#AppleWatch #Italy #Wearable \u2013 Apple Watch to be showcased at Salone del Mobile in Milan Italy \u2013\u2026 http://t.co/mCTs81C2t1 #iWatch #Apple
p15
aV#AppleWatch #Italy #Wearable \u2013 Apple Watch to be showcased at Salone del\u2026 http://t.co/5a0D8ECX7m #iWatch #Apple #appleiwatch #AppleWatch
p16
aV#AppleWatch #Italy #Wearable \u2013 Apple Watch to be showcased at Salone del\u2026 http://t.co/FH903PfSqu #iWatch #Apple #appleiwatch #AppleWatch
p17
aV#AppleWatch #Italy #Wearable \u2013 Apple Watch to be showcased at Salone del\u2026 http://t.co/m4SGHl9tVO #iWatch #Apple #appleiwatch #AppleWatch
p18
aV#AppleWatch #Italy #Wearable \u2013 Apple Watch to be showcased at Salone del\u2026 http://t.co/CzDL95JaMR #iWatch #Apple #appleiwatch #AppleWatch
p19
aV#AppleWatch #Italy #Wearable \u2013 Apple Watch to be showcased at Salone del Mobile in Milan Italy \u2013\u2026 http://t.co/xUIRpF8UCR #iWatch #Apple
p20
aV#AppleWatch #Italy #Wearable \u2013 Apple Watch to be showcased at Salone del\u2026 http://t.co/FAqLAY9s5P #iWatch #Apple #appleiwatch #AppleWatch
p21
aV#AppleWatch #Italy #Wearable \u2013 Apple Watch to be showcased at Salone del Mobile in Milan Italy \u2013\u2026 http://t.co/k4fpcfoFBq #iWatch #Apple
p22
aV#AppleWatch #Italy #Wearable \u2013 Apple Watch to be showcased at Salone del\u2026 http://t.co/Xwsw7WGFme #iWatch #Apple #appleiwatch #AppleWatch
p23
aV#AppleWatch #Italy #Wearable \u2013 Apple Watch to be showcased at Salone del Mobile in Milan Italy \u2013\u2026 http://t.co/T967EPoFOk #iWatch #Apple
p24
aV#AppleWatch #Italy #Wearable \u2013 Apple Watch to be showcased at Salone del Mobile in Milan Italy \u2013\u2026 http://t.co/pRGyyQf0qX #iWatch #Apple
p25
aV#AppleWatch #Italy #Wearable \u2013 Apple Watch to be showcased at Salone del\u2026 http://t.co/jn4HrTpTC1 #iWatch #Apple #appleiwatch #AppleWatch
p26
aV#AppleWatch #Italy #Wearable \u2013 Apple Watch to be showcased at Salone del Mobile in Milan Italy \u2013\u2026 http://t.co/GEuLdWUYYq #iWatch #Apple
p27
aV#AppleWatch #Italy #Wearable \u2013 Apple Watch to be showcased at Salone del\u2026 http://t.co/IsPQri2ASl #iWatch #Apple #appleiwatch #AppleWatch
p28
aV#AppleWatch #Italy #Wearable \u2013 Apple Watch to be showcased at Salone del Mobile in Milan Italy \u2013\u2026 http://t.co/YNvbsILHld #iWatch #Apple
p29
aV#AppleWatch #Italy #Wearable \u2013 Apple Watch to be showcased at Salone del\u2026 http://t.co/ygIvbWEei2 #iWatch #Apple #appleiwatch #AppleWatch
p30
aV#AppleWatch #Italy #Wearable \u2013 Apple Watch to be showcased at Salone del Mobile in Milan Italy \u2013\u2026 http://t.co/OaLNpolhsI #iWatch #Apple
p31
aV#AppleWatch #Italy #Wearable \u2013 Apple Watch to be showcased at Salone del\u2026 http://t.co/nvtkyzVio4 #iWatch #Apple #appleiwatch #AppleWatch
p32
aV#AppleWatch #Italy #Wearable \u2013 Apple Watch to be showcased at Salone del Mobile in Milan Italy \u2013\u2026 http://t.co/mCoDm8gZ5e #iWatch #Apple
p33
aV#AppleWatch #Italy #Wearable \u2013 Apple Watch to be showcased at Salone del Mobile in Milan Italy \u2013\u2026 http://t.co/piGSZnbIuN #iWatch #Apple
p34
aV#AppleWatch #Italy #Wearable \u2013 Apple Watch to be showcased at Salone del Mobile in Milan Italy \u2013\u2026 http://t.co/JwBs0FjpPQ #iWatch #Apple
p35
aV#AppleWatch #Italy #Wearable \u2013 Apple Watch to be showcased at Salone del Mobile in Milan Italy \u2013\u2026 http://t.co/491frEt424 #iWatch #Apple
p36
aV#AppleWatch #Italy #Wearable \u2013 Apple Watch to be showcased at Salone del Mobile in Milan Italy \u2013\u2026 http://t.co/0G2Re7L79F #iWatch #Apple
p37
aV#AppleWatch #Italy #Wearable \u2013 Apple Watch to be showcased at Salone del\u2026 http://t.co/kg3j7bk1wn #iWatch #Apple #appleiwatch #AppleWatch
p38
aV#AppleWatch #Italy #Wearable \u2013 Apple Watch to be showcased at Salone del Mobile in Milan Italy \u2013\u2026 http://t.co/Xxk6X3anmd #iWatch #Apple
p39
aV#AppleWatch #Italy #Wearable \u2013 Apple Watch to be showcased at Salone del\u2026 http://t.co/kLm25tOS8v #iWatch #Apple #appleiwatch #AppleWatch
p40
aV#AppleWatch #Italy #Wearable \u2013 Apple Watch to be showcased at Salone del Mobile in Milan Italy \u2013\u2026 http://t.co/TxsXVVcfZU #iWatch #Apple
p41
aV#AppleWatch #Italy #Wearable \u2013 Apple Watch to be showcased at Salone del\u2026 http://t.co/C8pYFi6Qph #iWatch #Apple #appleiwatch #AppleWatch
p42
aV#AppleWatch #Italy #Wearable \u2013 Apple Watch to be showcased at Salone del Mobile in Milan Italy \u2013\u2026 http://t.co/uWNiBAMXbK #iWatch #Apple
p43
aV#AppleWatch #Italy #Wearable \u2013 Apple Watch to be showcased at Salone del Mobile in Milan Italy \u2013\u2026 http://t.co/ewm4i7WUO6 #iWatch #Apple
p44
aV#AppleWatch #Italy #Wearable \u2013 Apple Watch to be showcased at Salone del\u2026 http://t.co/xenFJMaXMA #iWatch #Apple #appleiwatch #AppleWatch
p45
aV#AppleWatch #Italy #Wearable \u2013 Apple Watch to be showcased at Salone del\u2026 http://t.co/IePcxU4YuC #iWatch #Apple #appleiwatch #AppleWatch
p46
aV#AppleWatch #Italy #Wearable \u2013 Apple Watch to be showcased at Salone del\u2026 http://t.co/fapoRKP4Zv #iWatch #Apple #appleiwatch #AppleWatch
p47
aV#AppleWatch #Italy #Wearable \u2013 Apple Watch to be showcased at Salone del\u2026 http://t.co/5R4kN3T7Jf #iWatch #Apple #appleiwatch #AppleWatch
p48
aV#AppleWatch #Italy #Wearable \u2013 Apple Watch to be showcased at Salone del Mobile in Milan Italy \u2013\u2026 http://t.co/KkcIMbR0UB #iWatch #Apple
p49
aV#AppleWatch #Italy #Wearable \u2013 Apple Watch to be showcased at Salone del Mobile in Milan Italy \u2013\u2026 http://t.co/EzTNNK0RJ6 #iWatch #Apple
p50
aV#AppleWatch #Italy #Wearable \u2013 Apple Watch to be showcased at Salone del Mobile in Milan Italy \u2013\u2026 http://t.co/2AlGfRnVBy #iWatch #Apple
p51
aV#AppleWatch #Italy #Wearable \u2013 Apple Watch to be showcased at Salone del Mobile in Milan Italy \u2013\u2026 http://t.co/7f1RfPwSSq #iWatch #Apple
p52
aV#AppleWatch #Italy #Wearable \u2013 Apple Watch to be showcased at Salone del\u2026 http://t.co/dPfvtJoTRr #iWatch #Apple #appleiwatch #AppleWatch
p53
aV#AppleWatch #Italy #Wearable \u2013 Apple Watch to be showcased at Salone del\u2026 http://t.co/z58pKAVUMh #iWatch #Apple #appleiwatch #AppleWatch
p54
aV#AppleWatch #Italy #Wearable \u2013 Apple Watch to be showcased at Salone del\u2026 http://t.co/BSl8ALdM3B #iWatch #Apple #appleiwatch #AppleWatch
p55
aV#AppleWatch #Italy #Wearable \u2013 Apple Watch to be showcased at Salone del\u2026 http://t.co/Y5vjwia8Lm #iWatch #Apple #appleiwatch #AppleWatch
p56
aV#AppleWatch #Italy #Wearable \u2013 Apple Watch to be showcased at Salone del Mobile in Milan Italy \u2013\u2026 http://t.co/XznGgM5GXp #iWatch #Apple
p57
aV#AppleWatch #Italy #Wearable \u2013 Apple Watch to be showcased at Salone del\u2026 http://t.co/ICc7Gf1VM3 #iWatch #Apple #appleiwatch #AppleWatch
p58
aV#AppleWatch #Italy #Wearable \u2013 Apple Watch to be showcased at Salone del\u2026 http://t.co/3ZqL9txgna #iWatch #Apple #appleiwatch #AppleWatch
p59
aV#AppleWatch #Italy #Wearable \u2013 Apple Watch to be showcased at Salone del\u2026 http://t.co/9iT7xMZOTS #iWatch #Apple #appleiwatch #AppleWatch
p60
aV#AppleWatch #Italy #Wearable \u2013 Apple Watch to be showcased at Salone del\u2026 http://t.co/On20bJzSyW #iWatch #Apple #appleiwatch #AppleWatch
p61
aV#AppleWatch #Italy #Wearable \u2013 Apple Watch to be showcased at Salone del\u2026 http://t.co/lB9YkB9Kuo #iWatch #Apple #appleiwatch #AppleWatch
p62
aV#AppleWatch #Italy #Wearable \u2013 Apple Watch to be showcased at Salone del\u2026 http://t.co/McaBtu573Y #iWatch #Apple #appleiwatch #AppleWatch
p63
aV#AppleWatch #Italy #Wearable \u2013 Apple Watch to be showcased at Salone del Mobile in Milan Italy \u2013\u2026 http://t.co/cgJ0PHDssh #iWatch #Apple
p64
aV#AppleWatch #Italy #Wearable \u2013 Apple Watch to be showcased at Salone del\u2026 http://t.co/ZOIDuBuata #iWatch #Apple #appleiwatch #AppleWatch
p65
aV#AppleWatch #Italy #Wearable \u2013 Apple Watch to be showcased at Salone del\u2026 http://t.co/aRecvr9M4e #iWatch #Apple #appleiwatch #AppleWatch
p66
aVRT @ACHachem: All signs point to 1 million Apple Watch preorders, analysts say http://t.co/iK5L7CGVl0 via @CNET #applewatch
p67
aV#AppleWatch #Italy #Wearable \u2013 Apple Watch to be showcased at Salone del\u2026 http://t.co/jd74Orxlk6 #iWatch #Apple #appleiwatch #AppleWatch
p68
aV#AppleWatch #Italy #Wearable \u2013 Apple Watch to be showcased at Salone del Mobile in Milan Italy \u2013\u2026 http://t.co/F2HBaCTXOO #iWatch #Apple
p69
aV#AppleWatch #Italy #Wearable \u2013 Apple Watch to be showcased at Salone del\u2026 http://t.co/mr4ndj9JoU #iWatch #Apple #appleiwatch #AppleWatch
p70
aV#AppleWatch #Italy #Wearable \u2013 Apple Watch to be showcased at Salone del Mobile in Milan Italy \u2013\u2026 http://t.co/P7xc8iuNlu #iWatch #Apple
p71
aV#AppleWatch #Italy #Wearable \u2013 Apple Watch to be showcased at Salone del\u2026 http://t.co/OMYfCxHyJz #iWatch #Apple #appleiwatch #AppleWatch
p72
aV#AppleWatch #Italy #Wearable \u2013 Apple Watch to be showcased at Salone del Mobile in Milan Italy \u2013\u2026 http://t.co/QKoIDTSyPs #iWatch #Apple
p73
aV#AppleWatch #Italy #Wearable \u2013 Apple Watch to be showcased at Salone del Mobile in Milan Italy \u2013\u2026 http://t.co/Q1l1TTrRIu #iWatch #Apple
p74
aV#AppleWatch #Italy #Wearable \u2013 Apple Watch to be showcased at Salone del\u2026 http://t.co/TTzTWeeyM7 #iWatch #Apple #appleiwatch #AppleWatch
p75
aV#AppleWatch #Italy #Wearable \u2013 Apple Watch to be showcased at Salone del Mobile in Milan Italy \u2013\u2026 http://t.co/HjLddPb9Rz #iWatch #Apple
p76
aV#AppleWatch #Italy #Wearable \u2013 Apple Watch to be showcased at Salone del\u2026 http://t.co/tciB1vd0g0 #iWatch #Apple #appleiwatch #AppleWatch
p77
aV#AppleWatch #Italy #Wearable \u2013 Apple Watch to be showcased at Salone del\u2026 http://t.co/bszVZ9abn4 #iWatch #Apple #appleiwatch #AppleWatch
p78
aV#AppleWatch #Italy #Wearable \u2013 Apple Watch to be showcased at Salone del\u2026 http://t.co/4Ji28CifeM #iWatch #Apple #appleiwatch #AppleWatch
p79
aV#AppleWatch #Italy #Wearable \u2013 Apple Watch to be showcased at Salone del\u2026 http://t.co/vShB2iVTrY #iWatch #Apple #appleiwatch #AppleWatch
p80
aVApple Watch to be showcased at Salone del Mobile in Milan Italy http://t.co/mdC4br7rkt #iWatch #Apple #appleiwatch #AppleWatch
p81
aV#AppleWatch #Italy #Wearable \u2013 Apple Watch to be showcased at Salone del\u2026 http://t.co/TCgqcAbkW3 #iWatch #Apple #appleiwatch #AppleWatch
p82
aV#AppleWatch #Italy #Wearable \u2013 Apple Watch to be showcased at Salone del\u2026 http://t.co/nYMDhlg5RE #iWatch #Apple #appleiwatch #AppleWatch
p83
aV#AppleWatch #Italy #Wearable \u2013 Apple Watch to be showcased at Salone del\u2026 http://t.co/AtaihXyIsi #iWatch #Apple #appleiwatch #AppleWatch
p84
aV#AppleWatch #Italy #Wearable \u2013 Apple Watch to be showcased at Salone del Mobile in Milan Italy \u2013\u2026 http://t.co/o1E2WLfFT9 #iWatch #Apple
p85
aV#AppleWatch #Italy #Wearable \u2013 Apple Watch to be showcased at Salone del\u2026 http://t.co/zuNuKUPP78 #iWatch #Apple #appleiwatch #AppleWatch
p86
aV#AppleWatch #Italy #Wearable \u2013 Apple Watch to be showcased at Salone del Mobile in Milan Italy \u2013\u2026 http://t.co/YdkKaravPa #iWatch #Apple
p87
aV#AppleWatch #Italy #Wearable \u2013 Apple Watch to be showcased at Salone del Mobile in Milan Italy \u2013\u2026 http://t.co/RTcKk1GBd5 #iWatch #Apple
p88
aV#AppleWatch #Italy #Wearable \u2013 Apple Watch to be showcased at Salone del\u2026 http://t.co/LsRCel1v2A #iWatch #Apple #appleiwatch #AppleWatch
p89
aVApple Watch to be showcased at Salone del Mobile in Milan Italy http://t.co/D6SLC2vLwj #iWatch #Apple #appleiwatch #AppleWatch
p90
aV#AppleWatch #Italy #Wearable \u2013 Apple Watch to be showcased at Salone del Mobile in Milan Italy \u2013\u2026 http://t.co/0tuvFeP7Fs #iWatch #Apple
p91
aV#AppleWatch #Italy #Wearable \u2013 Apple Watch to be showcased at Salone del\u2026 http://t.co/58OOcZl3Mo #iWatch #Apple #appleiwatch #AppleWatch
p92
aV#AppleWatch #Italy #Wearable \u2013 Apple Watch to be showcased at Salone del\u2026 http://t.co/scg3m26nen #iWatch #Apple #appleiwatch #AppleWatch
p93
aV#AppleWatch #Italy #Wearable \u2013 Apple Watch to be showcased at Salone del\u2026 http://t.co/Tjf67Zy5VD #iWatch #Apple #appleiwatch #AppleWatch
p94
aV#AppleWatch #Italy #Wearable \u2013 Apple Watch to be showcased at Salone del Mobile in Milan Italy \u2013\u2026 http://t.co/dkxfhGcVmo #iWatch #Apple
p95
aV#AppleWatch #Italy #Wearable \u2013 Apple Watch to be showcased at Salone del Mobile in Milan Italy \u2013\u2026 http://t.co/F1bggd0ugZ #iWatch #Apple
p96
aV#AppleWatch #Italy #Wearable \u2013 Apple Watch to be showcased at Salone del\u2026 http://t.co/iLHldkImZ5 #iWatch #Apple #appleiwatch #AppleWatch
p97
aV#AppleWatch #Italy #Wearable \u2013 Apple Watch to be showcased at Salone del Mobile in Milan Italy \u2013\u2026 http://t.co/vmD1Nsq7p4 #iWatch #Apple
p98
aV#AppleWatch #Italy #Wearable \u2013 Apple Watch to be showcased at Salone del\u2026 http://t.co/VeVmtKSdSQ #iWatch #Apple #appleiwatch #AppleWatch
p99
aV#AppleWatch #Italy #Wearable \u2013 Apple Watch to be showcased at Salone del Mobile in Milan Italy \u2013\u2026 http://t.co/eUSWN1682C #iWatch #Apple
p100
a.