(lp0
V#AppleWatch #Italy #Wearable \u2013 Apple Watch to be showcased at Salone del Mobile in Milan Italy \u2013\u2026 http://t.co/VLXC2jZn8x #iWatch #Apple
p1
aV#AppleWatch #Italy #Wearable \u2013 Apple Watch to be showcased at Salone del\u2026 http://t.co/I8N4n01jDs #iWatch #Apple #appleiwatch #AppleWatch
p2
aV#AppleWatch #Italy #Wearable \u2013 Apple Watch to be showcased at Salone del\u2026 http://t.co/IXIoAT3YGb #iWatch #Apple #appleiwatch #AppleWatch
p3
aV#AppleWatch #Italy #Wearable \u2013 Apple Watch to be showcased at Salone del\u2026 http://t.co/xH38aCEZqW #iWatch #Apple #appleiwatch #AppleWatch
p4
aV#AppleWatch #Italy #Wearable \u2013 Apple Watch to be showcased at Salone del Mobile in Milan Italy \u2013\u2026 http://t.co/lTRhKAw3zX #iWatch #Apple
p5
aV#AppleWatch #Italy #Wearable \u2013 Apple Watch to be showcased at Salone del\u2026 http://t.co/1kMynORirg #iWatch #Apple #appleiwatch #AppleWatch
p6
aV#AppleWatch #Italy #Wearable \u2013 Apple Watch to be showcased at Salone del\u2026 http://t.co/uIgebrex5g #iWatch #Apple #appleiwatch #AppleWatch
p7
aV#AppleWatch #Italy #Wearable \u2013 Apple Watch to be showcased at Salone del Mobile in Milan Italy \u2013\u2026 http://t.co/mwKMacn0MZ #iWatch #Apple
p8
aV#AppleWatch #Italy #Wearable \u2013 Apple Watch to be showcased at Salone del\u2026 http://t.co/KtroYe3aCf #iWatch #Apple #appleiwatch #AppleWatch
p9
aV#AppleWatch #Italy #Wearable \u2013 Apple Watch to be showcased at Salone del Mobile in Milan Italy \u2013\u2026 http://t.co/gxh5nvCZBj #iWatch #Apple
p10
aV#AppleWatch #Italy #Wearable \u2013 Apple Watch to be showcased at Salone del Mobile in Milan Italy \u2013\u2026 http://t.co/eWapnTybTQ #iWatch #Apple
p11
aV#AppleWatch #Italy #Wearable \u2013 Apple Watch to be showcased at Salone del\u2026 http://t.co/zVFsc8Nt5u #iWatch #Apple #appleiwatch #AppleWatch
p12
aV#AppleWatch #Italy #Wearable \u2013 Apple Watch to be showcased at Salone del Mobile in Milan Italy \u2013\u2026 http://t.co/qTq04QZIVL #iWatch #Apple
p13
aV#AppleWatch #Italy #Wearable \u2013 Apple Watch to be showcased at Salone del Mobile in Milan Italy \u2013\u2026 http://t.co/YoCukorEYJ #iWatch #Apple
p14
aV#AppleWatch #Italy #Wearable \u2013 Apple Watch to be showcased at Salone del Mobile in Milan Italy \u2013\u2026 http://t.co/fdMYjBSbMQ #iWatch #Apple
p15
aV#AppleWatch #Italy #Wearable \u2013 Apple Watch to be showcased at Salone del\u2026 http://t.co/DV78A5sHPI #iWatch #Apple #appleiwatch #AppleWatch
p16
aV#AppleWatch #Italy #Wearable \u2013 Apple Watch to be showcased at Salone del Mobile in Milan Italy \u2013\u2026 http://t.co/B1m1CqSP8F #iWatch #Apple
p17
aV#AppleWatch #Italy #Wearable \u2013 Apple Watch to be showcased at Salone del\u2026 http://t.co/xgvcBxzSaV #iWatch #Apple #appleiwatch #AppleWatch
p18
aV#AppleWatch #Italy #Wearable \u2013 Apple Watch to be showcased at Salone del\u2026 http://t.co/yHMaeJUsr2 #iWatch #Apple #appleiwatch #AppleWatch
p19
aV#AppleWatch #Italy #Wearable \u2013 Apple Watch to be showcased at Salone del Mobile in Milan Italy \u2013\u2026 http://t.co/OEdebPS7aV #iWatch #Apple
p20
aV#AppleWatch #Italy #Wearable \u2013 Apple Watch to be showcased at Salone del Mobile in Milan Italy \u2013\u2026 http://t.co/HP4AZviozE #iWatch #Apple
p21
aV#AppleWatch #Italy #Wearable \u2013 Apple Watch to be showcased at Salone del Mobile in Milan Italy \u2013\u2026 http://t.co/CKp4ITBFXO #iWatch #Apple
p22
aV#AppleWatch #Italy #Wearable \u2013 Apple Watch to be showcased at Salone del Mobile in Milan Italy \u2013\u2026 http://t.co/5bqxkib0ks #iWatch #Apple
p23
aV#AppleWatch #Italy #Wearable \u2013 Apple Watch to be showcased at Salone del\u2026 http://t.co/DnoSHxFYxB #iWatch #Apple #appleiwatch #AppleWatch
p24
aV#AppleWatch #Italy #Wearable \u2013 Apple Watch to be showcased at Salone del\u2026 http://t.co/qE31yfUtaH #iWatch #Apple #appleiwatch #AppleWatch
p25
aV#AppleWatch #Italy #Wearable \u2013 Apple Watch to be showcased at Salone del Mobile in Milan Italy \u2013\u2026 http://t.co/ZF75eGrLJ1 #iWatch #Apple
p26
aVApple Watch to be showcased at Salone del Mobile in Milan Italy http://t.co/I1ZcW2ixwT #iWatch #Apple #appleiwatch #AppleWatch
p27
aV#AppleWatch #Italy #Wearable \u2013 Apple Watch to be showcased at Salone del Mobile in Milan Italy \u2013\u2026 http://t.co/gn7YkFvOLz #iWatch #Apple
p28
aV#AppleWatch #Italy #Wearable \u2013 Apple Watch to be showcased at Salone del\u2026 http://t.co/x2OxAJdr0P #iWatch #Apple #appleiwatch #AppleWatch
p29
aV#AppleWatch #Italy #Wearable \u2013 Apple Watch to be showcased at Salone del\u2026 http://t.co/of2JGOXmGP #iWatch #Apple #appleiwatch #AppleWatch
p30
aV#AppleWatch #Italy #Wearable \u2013 Apple Watch to be showcased at Salone del\u2026 http://t.co/vRoeOqWUrY #iWatch #Apple #appleiwatch #AppleWatch
p31
aV#AppleWatch #Italy #Wearable \u2013 Apple Watch to be showcased at Salone del Mobile in Milan Italy \u2013\u2026 http://t.co/idyC7DZFwl #iWatch #Apple
p32
aV#AppleWatch #Italy #Wearable \u2013 Apple Watch to be showcased at Salone del\u2026 http://t.co/nzEhuPQB1B #iWatch #Apple #appleiwatch #AppleWatch
p33
aV#AppleWatch #Italy #Wearable \u2013 Apple Watch to be showcased at Salone del Mobile in Milan Italy \u2013\u2026 http://t.co/msqWTUxk6Z #iWatch #Apple
p34
aV#AppleWatch #Italy #Wearable \u2013 Apple Watch to be showcased at Salone del Mobile in Milan Italy \u2013\u2026 http://t.co/XELfErFX5s #iWatch #Apple
p35
aV#AppleWatch #Italy #Wearable \u2013 Apple Watch to be showcased at Salone del Mobile in Milan Italy \u2013\u2026 http://t.co/9oFjSNvYwY #iWatch #Apple
p36
aV#AppleWatch #Italy #Wearable \u2013 Apple Watch to be showcased at Salone del\u2026 http://t.co/W8yloHc1Ay #iWatch #Apple #appleiwatch #AppleWatch
p37
aV#AppleWatch #Italy #Wearable \u2013 Apple Watch to be showcased at Salone del Mobile in Milan Italy \u2013\u2026 http://t.co/GjWsCrnkPt #iWatch #Apple
p38
aV#AppleWatch #Italy #Wearable \u2013 Apple Watch to be showcased at Salone del\u2026 http://t.co/ql1VtgdaWo #iWatch #Apple #appleiwatch #AppleWatch
p39
aV#AppleWatch #Italy #Wearable \u2013 Apple Watch to be showcased at Salone del\u2026 http://t.co/PuxCuuU8MS #iWatch #Apple #appleiwatch #AppleWatch
p40
aV#AppleWatch #Italy #Wearable \u2013 Apple Watch to be showcased at Salone del Mobile in Milan Italy \u2013\u2026 http://t.co/30BA0TxrkD #iWatch #Apple
p41
aVApple Watch to be showcased at Salone del Mobile in Milan Italy http://t.co/VtLBqV25KQ #iWatch #Apple #appleiwatch #AppleWatch
p42
aV#AppleWatch #Italy #Wearable \u2013 Apple Watch to be showcased at Salone del Mobile in Milan Italy \u2013\u2026 http://t.co/QLJemT2BRe #iWatch #Apple
p43
aV#AppleWatch #Italy #Wearable \u2013 Apple Watch to be showcased at Salone del Mobile in Milan Italy \u2013\u2026 http://t.co/LUvhqOSv5N #iWatch #Apple
p44
aVApple Watch to be showcased at Salone del Mobile in Milan Italy http://t.co/CvwrIXzTvo #iWatch #Apple #appleiwatch #AppleWatch
p45
aV#AppleWatch #Italy #Wearable \u2013 Apple Watch to be showcased at Salone del Mobile in Milan Italy \u2013\u2026 http://t.co/qnp7SP0YXP #iWatch #Apple
p46
aV#AppleWatch #Italy #Wearable \u2013 Apple Watch to be showcased at Salone del Mobile in Milan Italy \u2013\u2026 http://t.co/jDn8jVQV8n #iWatch #Apple
p47
aV#AppleWatch #Italy #Wearable \u2013 Apple Watch to be showcased at Salone del\u2026 http://t.co/rvUec5IRmN #iWatch #Apple #appleiwatch #AppleWatch
p48
aVApple Watch to be showcased at Salone del Mobile in Milan Italy http://t.co/npWr8KryhT #iWatch #Apple #appleiwatch #AppleWatch
p49
aV#AppleWatch #Italy #Wearable \u2013 Apple Watch to be showcased at Salone del Mobile in Milan Italy \u2013\u2026 http://t.co/t9Aq0Zwpkj #iWatch #Apple
p50
aV#AppleWatch #Italy #Wearable \u2013 Apple Watch to be showcased at Salone del\u2026 http://t.co/Eg5wRuTnvD #iWatch #Apple #appleiwatch #AppleWatch
p51
aV#AppleWatch #Italy #Wearable \u2013 Apple Watch to be showcased at Salone del\u2026 http://t.co/YxMLu2LWYf #iWatch #Apple #appleiwatch #AppleWatch
p52
aV#AppleWatch #Italy #Wearable \u2013 Apple Watch to be showcased at Salone del Mobile in Milan Italy \u2013\u2026 http://t.co/9rfoicLVyc #iWatch #Apple
p53
aV#AppleWatch #Italy #Wearable \u2013 Apple Watch to be showcased at Salone del\u2026 http://t.co/OxE5G5IhMJ #iWatch #Apple #appleiwatch #AppleWatch
p54
aV#AppleWatch #Italy #Wearable \u2013 Apple Watch to be showcased at Salone del Mobile in Milan Italy \u2013\u2026 http://t.co/7t7ToTYkBq #iWatch #Apple
p55
aV#AppleWatch #Italy #Wearable \u2013 Apple Watch to be showcased at Salone del\u2026 http://t.co/KgzLD8ol6P #iWatch #Apple #appleiwatch #AppleWatch
p56
aV#AppleWatch #Italy #Wearable \u2013 Apple Watch to be showcased at Salone del\u2026 http://t.co/T0sTJJUAUC #iWatch #Apple #appleiwatch #AppleWatch
p57
aV#AppleWatch #Italy #Wearable \u2013 Apple Watch to be showcased at Salone del Mobile in Milan Italy \u2013\u2026 http://t.co/jwKjq15hyv #iWatch #Apple
p58
aV#AppleWatch #Italy #Wearable \u2013 Apple Watch to be showcased at Salone del Mobile in Milan Italy \u2013\u2026 http://t.co/XB1lJOtyqA #iWatch #Apple
p59
aV#AppleWatch #Italy #Wearable \u2013 Apple Watch to be showcased at Salone del Mobile in Milan Italy \u2013\u2026 http://t.co/bTzvvrmRKh #iWatch #Apple
p60
aV#AppleWatch #Italy #Wearable \u2013 Apple Watch to be showcased at Salone del Mobile in Milan Italy \u2013\u2026 http://t.co/9u14dfdSZr #iWatch #Apple
p61
aVI tried on the #AppleWatch today! \u231a\ufe0f\U0001f49c #AppleWatchSport @ Apple Store, Trafford Centre https://t.co/Sq4RRHqjGt
p62
aV#AppleWatch #Italy #Wearable \u2013 Apple Watch to be showcased at Salone del Mobile in Milan Italy \u2013\u2026 http://t.co/O9rlmRo11o #iWatch #Apple
p63
aV#AppleWatch #Italy #Wearable \u2013 Apple Watch to be showcased at Salone del Mobile in Milan Italy \u2013\u2026 http://t.co/WxJVvXRFHn #iWatch #Apple
p64
aV#AppleWatch #Italy #Wearable \u2013 Apple Watch to be showcased at Salone del Mobile in Milan Italy \u2013\u2026 http://t.co/hqmViPjLaT #iWatch #Apple
p65
aV#AppleWatch #Italy #Wearable \u2013 Apple Watch to be showcased at Salone del\u2026 http://t.co/1KbfDInPO6 #iWatch #Apple #appleiwatch #AppleWatch
p66
aV#AppleWatch #Italy #Wearable \u2013 Apple Watch to be showcased at Salone del Mobile in Milan Italy \u2013\u2026 http://t.co/Weey3oWQ2J #iWatch #Apple
p67
aV#AppleWatch #Italy #Wearable \u2013 Apple Watch to be showcased at Salone del Mobile in Milan Italy \u2013\u2026 http://t.co/15CeLE8Rfj #iWatch #Apple
p68
aV#AppleWatch #Italy #Wearable \u2013 Apple Watch to be showcased at Salone del\u2026 http://t.co/TiVKhXcavX #iWatch #Apple #appleiwatch #AppleWatch
p69
aV#AppleWatch #Italy #Wearable \u2013 Apple Watch to be showcased at Salone del Mobile in Milan Italy \u2013\u2026 http://t.co/OoUrQnLR0K #iWatch #Apple
p70
aV#AppleWatch #Italy #Wearable \u2013 Apple Watch to be showcased at Salone del\u2026 http://t.co/YLYFDgW9S5 #iWatch #Apple #appleiwatch #AppleWatch
p71
aV#AppleWatch #Italy #Wearable \u2013 Apple Watch to be showcased at Salone del\u2026 http://t.co/8uyAeI5IrS #iWatch #Apple #appleiwatch #AppleWatch
p72
aVApple Watch to be showcased at Salone del Mobile in Milan Italy http://t.co/9R8KT4ljtx #iWatch #Apple #appleiwatch #AppleWatch
p73
aV#AppleWatch #Italy #Wearable \u2013 Apple Watch to be showcased at Salone del\u2026 http://t.co/I7qmQTTINH #iWatch #Apple #appleiwatch #AppleWatch
p74
aVApple Watch to be showcased at Salone del Mobile in Milan Italy http://t.co/XkKndFGA38 #iWatch #Apple #appleiwatch #AppleWatch
p75
aV#AppleWatch #Italy #Wearable \u2013 Apple Watch to be showcased at Salone del Mobile in Milan Italy \u2013\u2026 http://t.co/C5IcaZ44wF #iWatch #Apple
p76
aV#AppleWatch #Italy #Wearable \u2013 Apple Watch to be showcased at Salone del\u2026 http://t.co/TbsCWMEPEr #iWatch #Apple #appleiwatch #AppleWatch
p77
aV#AppleWatch #Italy #Wearable \u2013 Apple Watch to be showcased at Salone del Mobile in Milan Italy \u2013\u2026 http://t.co/Kw2X7lXVlr #iWatch #Apple
p78
aV#AppleWatch #Italy #Wearable \u2013 Apple Watch to be showcased at Salone del Mobile in Milan Italy \u2013\u2026 http://t.co/J20Zq7tvPj #iWatch #Apple
p79
aV#AppleWatch #Italy #Wearable \u2013 Apple Watch to be showcased at Salone del\u2026 http://t.co/GlT0y6RTzl #iWatch #Apple #appleiwatch #AppleWatch
p80
aV#AppleWatch #Italy #Wearable \u2013 Apple Watch to be showcased at Salone del Mobile in Milan Italy \u2013\u2026 http://t.co/rrhR3p8pS1 #iWatch #Apple
p81
aV#AppleWatch #Italy #Wearable \u2013 Apple Watch to be showcased at Salone del Mobile in Milan Italy \u2013\u2026 http://t.co/gcBZN8FV8Y #iWatch #Apple
p82
aV#AppleWatch #Italy #Wearable \u2013 Apple Watch to be showcased at Salone del Mobile in Milan Italy \u2013\u2026 http://t.co/YMvACp0Pt2 #iWatch #Apple
p83
aV#AppleWatch #Italy #Wearable \u2013 Apple Watch to be showcased at Salone del\u2026 http://t.co/SKH5ahlJLO #iWatch #Apple #appleiwatch #AppleWatch
p84
aV#AppleWatch #Italy #Wearable \u2013 Apple Watch to be showcased at Salone del Mobile in Milan Italy \u2013\u2026 http://t.co/Y2iNqJVl4l #iWatch #Apple
p85
aV#AppleWatch #Italy #Wearable \u2013 Apple Watch to be showcased at Salone del Mobile in Milan Italy \u2013\u2026 http://t.co/qZAW17L1jH #iWatch #Apple
p86
aVApple Watch to be showcased at Salone del Mobile in Milan Italy http://t.co/CWX2U2hLNf #iWatch #Apple #appleiwatch #AppleWatch
p87
aV#AppleWatch #Italy #Wearable \u2013 Apple Watch to be showcased at Salone del Mobile in Milan Italy \u2013\u2026 http://t.co/yJxBBo4bvD #iWatch #Apple
p88
aV#AppleWatch #Italy #Wearable \u2013 Apple Watch to be showcased at Salone del\u2026 http://t.co/KmbII2SCQn #iWatch #Apple #appleiwatch #AppleWatch
p89
aVApple Watch to be showcased at Salone del Mobile in Milan Italy http://t.co/lIXCHhGcQC #iWatch #Apple #appleiwatch #AppleWatch
p90
aVApple Watch to be showcased at Salone del Mobile in Milan Italy http://t.co/i7Va6ElCtt #iWatch #Apple #appleiwatch #AppleWatch
p91
aV#AppleWatch #Italy #Wearable \u2013 Apple Watch to be showcased at Salone del\u2026 http://t.co/a4DiCHNHRl #iWatch #Apple #appleiwatch #AppleWatch
p92
aV#AppleWatch #Italy #Wearable \u2013 Apple Watch to be showcased at Salone del\u2026 http://t.co/FfhQ02Sfud #iWatch #Apple #appleiwatch #AppleWatch
p93
aV#AppleWatch #Italy #Wearable \u2013 Apple Watch to be showcased at Salone del Mobile in Milan Italy \u2013\u2026 http://t.co/xtLA8cfJQD #iWatch #Apple
p94
aV#AppleWatch #Italy #Wearable \u2013 Apple Watch to be showcased at Salone del Mobile in Milan Italy \u2013\u2026 http://t.co/lJKbcfx1Ge #iWatch #Apple
p95
aV#AppleWatch #Italy #Wearable \u2013 Apple Watch to be showcased at Salone del Mobile in Milan Italy \u2013\u2026 http://t.co/cE3IoyvCIX #iWatch #Apple
p96
aV#AppleWatch #Italy #Wearable \u2013 Apple Watch to be showcased at Salone del Mobile in Milan Italy \u2013\u2026 http://t.co/TGPagf36ic #iWatch #Apple
p97
aVApple Watch to be showcased at Salone del Mobile in Milan Italy http://t.co/eTQ94iladd #iWatch #Apple #appleiwatch #AppleWatch
p98
aV#AppleWatch #Italy #Wearable \u2013 Apple Watch to be showcased at Salone del Mobile in Milan Italy \u2013\u2026 http://t.co/izY7exJyMc #iWatch #Apple
p99
aV#AppleWatch #Italy #Wearable \u2013 Apple Watch to be showcased at Salone del\u2026 http://t.co/Y7jRNVrkxq #iWatch #Apple #appleiwatch #AppleWatch
p100
a.