(lp0
V#iPhone6 #Wearable #iOS - Apple Watch material could lead to a\u2026 http://t.co/93VaRkaROa #iPhone #iWatch #aluminum #Apple #AppleWatch
p1
aV#iPhone6 #Wearable #iOS - Apple Watch material could lead to a\u2026 http://t.co/veQYHR7poQ #iPhone #iWatch #aluminum #Apple #AppleWatch
p2
aV#iPhone6 #Wearable #iOS - Apple Watch material could lead to a\u2026 http://t.co/Lk16OQTrS4 #iPhone #iWatch #aluminum #Apple #AppleWatch
p3
aV#iPhone6 #Wearable #iOS - Apple Watch material could lead to a\u2026 http://t.co/GOMBty3mq3 #iPhone #iWatch #aluminum #Apple #AppleWatch
p4
aV#iPhone6 #Wearable #iOS - Apple Watch material could lead to a\u2026 http://t.co/5gaeoLf05X #iPhone #iWatch #aluminum #Apple #AppleWatch
p5
aV#iPhone6 #Wearable #iOS - Apple Watch material could lead to a\u2026 http://t.co/VlZsDqCDDX #iPhone #iWatch #aluminum #Apple #AppleWatch
p6
aV#iPhone6 #Wearable #iOS - Apple Watch material could lead to a\u2026 http://t.co/Pung4LQdb7 #iPhone #iWatch #aluminum #Apple #AppleWatch
p7
aV#iPhone6 #Wearable #iOS - Apple Watch material could lead to a\u2026 http://t.co/ynRFdAzOUR #iPhone #iWatch #aluminum #Apple #AppleWatch
p8
aVApple Watch material could lead to a more strong iPhone http://t.co/8zau2W2Eik #iPhone #iWatch #aluminum #Apple #AppleWatch
p9
aVApple Watch material could lead to a more strong iPhone http://t.co/PiKlPhAZH7 #iPhone #iWatch #aluminum #Apple #AppleWatch
p10
aV#iPhone6 #Wearable #iOS - Apple Watch material could lead to a\u2026 http://t.co/6z3z3WrR9F #iPhone #iWatch #aluminum #Apple #AppleWatch
p11
aV#iPhone6 #Wearable #iOS - Apple Watch material could lead to a\u2026 http://t.co/BIrsJxHlaa #iPhone #iWatch #aluminum #Apple #AppleWatch
p12
aV#iPhone6 #Wearable #iOS - Apple Watch material could lead to a\u2026 http://t.co/JGssPJZioq #iPhone #iWatch #aluminum #Apple #AppleWatch
p13
aV#iPhone6 #Wearable #iOS - Apple Watch material could lead to a\u2026 http://t.co/YTeQuTPqzT #iPhone #iWatch #aluminum #Apple #AppleWatch
p14
aV#iPhone6 #Wearable #iOS - Apple Watch material could lead to a\u2026 http://t.co/fzpXM1eIeB #iPhone #iWatch #aluminum #Apple #AppleWatch
p15
aV#iPhone6 #Wearable #iOS - Apple Watch material could lead to a\u2026 http://t.co/S0a7kus1xu #iPhone #iWatch #aluminum #Apple #AppleWatch
p16
aV#iPhone6 #Wearable #iOS - Apple Watch material could lead to a\u2026 http://t.co/0JeSqXUkLY #iPhone #iWatch #aluminum #Apple #AppleWatch
p17
aVApple Watch material could lead to a more strong iPhone http://t.co/d3vxtSwgtI #iPhone #iWatch #aluminum #Apple #AppleWatch
p18
aV#iPhone6 #Wearable #iOS - Apple Watch material could lead to a\u2026 http://t.co/yAfleSXRuZ #iPhone #iWatch #aluminum #Apple #AppleWatch
p19
aV#iPhone6 #Wearable #iOS - Apple Watch material could lead to a\u2026 http://t.co/l2tT1pyMyw #iPhone #iWatch #aluminum #Apple #AppleWatch
p20
aV#iPhone6 #Wearable #iOS - Apple Watch material could lead to a\u2026 http://t.co/fkW6hYQYzP #iPhone #iWatch #aluminum #Apple #AppleWatch
p21
aV#iPhone6 #Wearable #iOS - Apple Watch material could lead to a\u2026 http://t.co/jm8XZlU7CR #iPhone #iWatch #aluminum #Apple #AppleWatch
p22
aV#iPhone6 #Wearable #iOS - Apple Watch material could lead to a\u2026 http://t.co/uaogGGVnjq #iPhone #iWatch #aluminum #Apple #AppleWatch
p23
aV#iPhone6 #Wearable #iOS - Apple Watch material could lead to a\u2026 http://t.co/Nkh1ZiU4Fy #iPhone #iWatch #aluminum #Apple #AppleWatch
p24
aV#iPhone6 #Wearable #iOS - Apple Watch material could lead to a\u2026 http://t.co/st05xX14xx #iPhone #iWatch #aluminum #Apple #AppleWatch
p25
aV#iPhone6 #Wearable #iOS - Apple Watch material could lead to a\u2026 http://t.co/fkW6hYznIh #iPhone #iWatch #aluminum #Apple #AppleWatch
p26
aV#iPhone6 #Wearable #iOS - Apple Watch material could lead to a\u2026 http://t.co/30FL1HZlf6 #iPhone #iWatch #aluminum #Apple #AppleWatch
p27
aV#iPhone6 #Wearable #iOS - Apple Watch material could lead to a\u2026 http://t.co/XmHbnh5673 #iPhone #iWatch #aluminum #Apple #AppleWatch
p28
aV#iPhone6 #Wearable #iOS - Apple Watch material could lead to a\u2026 http://t.co/T3Nhir9r6u #iPhone #iWatch #aluminum #Apple #AppleWatch
p29
aV#iPhone6 #Wearable #iOS - Apple Watch material could lead to a\u2026 http://t.co/cWsm1Gmes4 #iPhone #iWatch #aluminum #Apple #AppleWatch
p30
aV#iPhone6 #Wearable #iOS - Apple Watch material could lead to a\u2026 http://t.co/rRzeA1oa15 #iPhone #iWatch #aluminum #Apple #AppleWatch
p31
aV#iPhone6 #Wearable #iOS - Apple Watch material could lead to a\u2026 http://t.co/R0z8KExz0w #iPhone #iWatch #aluminum #Apple #AppleWatch
p32
aVApple Watch material could lead to a more strong iPhone http://t.co/X0ALREeVYJ #iPhone #iWatch #aluminum #Apple #AppleWatch
p33
aV#iPhone6 #Wearable #iOS - Apple Watch material could lead to a\u2026 http://t.co/gClpcCDDbP #iPhone #iWatch #aluminum #Apple #AppleWatch
p34
aV#iPhone6 #Wearable #iOS - Apple Watch material could lead to a\u2026 http://t.co/lTZeNodIZc #iPhone #iWatch #aluminum #Apple #AppleWatch
p35
aV#iPhone6 #Wearable #iOS - Apple Watch material could lead to a\u2026 http://t.co/BE6XWXPzXU #iPhone #iWatch #aluminum #Apple #AppleWatch
p36
aV#iPhone6 #Wearable #iOS - Apple Watch material could lead to a\u2026 http://t.co/JRtLAaRMAE #iPhone #iWatch #aluminum #Apple #AppleWatch
p37
aV#iPhone6 #Wearable #iOS - Apple Watch material could lead to a\u2026 http://t.co/DtVESmn7pk #iPhone #iWatch #aluminum #Apple #AppleWatch
p38
aV#iPhone6 #Wearable #iOS - Apple Watch material could lead to a\u2026 http://t.co/Oy1xTGeqcG #iPhone #iWatch #aluminum #Apple #AppleWatch
p39
aV#iPhone6 #Wearable #iOS - Apple Watch material could lead to a\u2026 http://t.co/bveLNKJK6D #iPhone #iWatch #aluminum #Apple #AppleWatch
p40
aV#iPhone6 #Wearable #iOS - Apple Watch material could lead to a\u2026 http://t.co/VNAYCadDCV #iPhone #iWatch #aluminum #Apple #AppleWatch
p41
aV#iPhone6 #Wearable #iOS - Apple Watch material could lead to a\u2026 http://t.co/3TgFaXw8eN #iPhone #iWatch #aluminum #Apple #AppleWatch
p42
aV#iPhone6 #Wearable #iOS - Apple Watch material could lead to a\u2026 http://t.co/d1StZU5SKt #iPhone #iWatch #aluminum #Apple #AppleWatch
p43
aV#iPhone6 #Wearable #iOS - Apple Watch material could lead to a\u2026 http://t.co/AdnLLOzPsD #iPhone #iWatch #aluminum #Apple #AppleWatch
p44
aV#iPhone6 #Wearable #iOS - Apple Watch material could lead to a\u2026 http://t.co/bkH7AoRfn0 #iPhone #iWatch #aluminum #Apple #AppleWatch
p45
aV#iPhone6 #Wearable #iOS - Apple Watch material could lead to a\u2026 http://t.co/l4Z9XzjqSZ #iPhone #iWatch #aluminum #Apple #AppleWatch
p46
aV#iPhone6 #Wearable #iOS - Apple Watch material could lead to a\u2026 http://t.co/wNKBdcPxVi #iPhone #iWatch #aluminum #Apple #AppleWatch
p47
aV#iPhone6 #Wearable #iOS - Apple Watch material could lead to a\u2026 http://t.co/lYAOwKTML4 #iPhone #iWatch #aluminum #Apple #AppleWatch
p48
aV#iPhone6 #Wearable #iOS - Apple Watch material could lead to a\u2026 http://t.co/OnAPtxLQL1 #iPhone #iWatch #aluminum #Apple #AppleWatch
p49
aV#iPhone6 #Wearable #iOS - Apple Watch material could lead to a\u2026 http://t.co/HM29vPtDNV #iPhone #iWatch #aluminum #Apple #AppleWatch
p50
aV#iPhone6 #Wearable #iOS - Apple Watch material could lead to a\u2026 http://t.co/b2VzDfLX5V #iPhone #iWatch #aluminum #Apple #AppleWatch
p51
aVThe best #AppleWatch accessories http://t.co/NMI3lMCngy http://t.co/Z8kw1iNgrP
p52
aVApple \u0440\u0430\u0441\u0441\u043a\u0430\u0437\u0430\u043b\u0430 \u043e \u0444\u0443\u043d\u043a\u0446\u0438\u044f\u0445 Apple Watch \u0434\u043b\u044f \u043b\u044e\u0434\u0435\u0439 \u0441 \u043e\u0433\u0440\u0430\u043d\u0438\u0447\u0435\u043d\u043d\u044b\u043c\u0438 \u0432\u043e\u0437\u043c\u043e\u0436\u043d\u043e\u0441\u0442\u044f\u043c\u0438 - http://t.co/Q26FSssOLR #AppleWatch http://t.co/ApkAeIwFJt
p53
aV#iPhone6 #Wearable #iOS - Apple Watch material could lead to a\u2026 http://t.co/N0EVMU58dM #iPhone #iWatch #aluminum #Apple #AppleWatch
p54
aV#iPhone6 #Wearable #iOS - Apple Watch material could lead to a\u2026 http://t.co/cJ5rxwXUnq #iPhone #iWatch #aluminum #Apple #AppleWatch
p55
aV#iPhone6 #Wearable #iOS - Apple Watch material could lead to a\u2026 http://t.co/w09WdOugca #iPhone #iWatch #aluminum #Apple #AppleWatch
p56
aV#iPhone6 #Wearable #iOS - Apple Watch material could lead to a\u2026 http://t.co/GH4RXkaOr3 #iPhone #iWatch #aluminum #Apple #AppleWatch
p57
aVApple Watch material could lead to a more strong iPhone http://t.co/gOK9p07FzS #iPhone #iWatch #aluminum #Apple #AppleWatch
p58
aV#iPhone6 #Wearable #iOS - Apple Watch material could lead to a\u2026 http://t.co/qCn5F2JqsV #iPhone #iWatch #aluminum #Apple #AppleWatch
p59
aV#iPhone6 #Wearable #iOS - Apple Watch material could lead to a\u2026 http://t.co/GmH06TdoG8 #iPhone #iWatch #aluminum #Apple #AppleWatch
p60
aV#iPhone6 #Wearable #iOS - Apple Watch material could lead to a\u2026 http://t.co/RYwVJk8Ik1 #iPhone #iWatch #aluminum #Apple #AppleWatch
p61
aV#iPhone6 #Wearable #iOS - Apple Watch material could lead to a\u2026 http://t.co/iA6LuAd3oZ #iPhone #iWatch #aluminum #Apple #AppleWatch
p62
aV#iPhone6 #Wearable #iOS - Apple Watch material could lead to a\u2026 http://t.co/F4XOXkmqNk #iPhone #iWatch #aluminum #Apple #AppleWatch
p63
aVApple Watch material could lead to a more strong iPhone http://t.co/P9yFu3uSO9 #iPhone #iWatch #aluminum #Apple #AppleWatch
p64
aV#iPhone6 #Wearable #iOS - Apple Watch material could lead to a\u2026 http://t.co/7dE6qVz52d #iPhone #iWatch #aluminum #Apple #AppleWatch
p65
aV#iPhone6 #Wearable #iOS - Apple Watch material could lead to a\u2026 http://t.co/U46FsIPc9C #iPhone #iWatch #aluminum #Apple #AppleWatch
p66
aV#iPhone6 #Wearable #iOS - Apple Watch material could lead to a\u2026 http://t.co/ARwe6tTIsW #iPhone #iWatch #aluminum #Apple #AppleWatch
p67
aV#iPhone6 #Wearable #iOS - Apple Watch material could lead to a\u2026 http://t.co/wgdzBcSQBb #iPhone #iWatch #aluminum #Apple #AppleWatch
p68
aV#iPhone6 #Wearable #iOS - Apple Watch material could lead to a\u2026 http://t.co/FeEWck0Wn5 #iPhone #iWatch #aluminum #Apple #AppleWatch
p69
aV#iPhone6 #Wearable #iOS - Apple Watch material could lead to a\u2026 http://t.co/nYMg31fhvr #iPhone #iWatch #aluminum #Apple #AppleWatch
p70
aV#iPhone6 #Wearable #iOS - Apple Watch material could lead to a\u2026 http://t.co/V4Ano42rmD #iPhone #iWatch #aluminum #Apple #AppleWatch
p71
aV#iPhone6 #Wearable #iOS - Apple Watch material could lead to a\u2026 http://t.co/q0lrrxsyZ3 #iPhone #iWatch #aluminum #Apple #AppleWatch
p72
aV#iPhone6 #Wearable #iOS - Apple Watch material could lead to a\u2026 http://t.co/AeBN34aAkR #iPhone #iWatch #aluminum #Apple #AppleWatch
p73
aV#iPhone6 #Wearable #iOS - Apple Watch material could lead to a\u2026 http://t.co/ZtPdi1FtGm #iPhone #iWatch #aluminum #Apple #AppleWatch
p74
aV#iPhone6 #Wearable #iOS - Apple Watch material could lead to a\u2026 http://t.co/Qv7CUIIuNs #iPhone #iWatch #aluminum #Apple #AppleWatch
p75
aVApple Watch material could lead to a more strong iPhone http://t.co/QZke6yFSWU #iPhone #iWatch #aluminum #Apple #AppleWatch
p76
aV#iPhone6 #Wearable #iOS - Apple Watch material could lead to a\u2026 http://t.co/AfyFaLDQuF #iPhone #iWatch #aluminum #Apple #AppleWatch
p77
aV#iPhone6 #Wearable #iOS - Apple Watch material could lead to a\u2026 http://t.co/lQuwGGcRaN #iPhone #iWatch #aluminum #Apple #AppleWatch
p78
aVApple Watch material could lead to a more strong iPhone http://t.co/6EJcV6GIk3 #iPhone #iWatch #aluminum #Apple #AppleWatch
p79
aV#iPhone6 #Wearable #iOS - Apple Watch material could lead to a\u2026 http://t.co/n2HX0CkWsO #iPhone #iWatch #aluminum #Apple #AppleWatch
p80
aV#iPhone6 #Wearable #iOS - Apple Watch material could lead to a\u2026 http://t.co/HjEkoq6R27 #iPhone #iWatch #aluminum #Apple #AppleWatch
p81
aV#iPhone6 #Wearable #iOS - Apple Watch material could lead to a\u2026 http://t.co/pLPOUtsvG1 #iPhone #iWatch #aluminum #Apple #AppleWatch
p82
aV#iPhone6 #Wearable #iOS - Apple Watch material could lead to a\u2026 http://t.co/Vb9cSSGlmn #iPhone #iWatch #aluminum #Apple #AppleWatch
p83
aV#iPhone6 #Wearable #iOS - Apple Watch material could lead to a\u2026 http://t.co/vIBfy5QpMm #iPhone #iWatch #aluminum #Apple #AppleWatch
p84
aVApple Watch material could lead to a more strong iPhone http://t.co/xMsxlNtUWr #iPhone #iWatch #aluminum #Apple #AppleWatch
p85
aVApple Watch material could lead to a more strong iPhone http://t.co/AjOyY9EzL1 #iPhone #iWatch #aluminum #Apple #AppleWatch
p86
aVApple Watch material could lead to a more strong iPhone http://t.co/AjOyY9mYTt #iPhone #iWatch #aluminum #Apple #AppleWatch
p87
aV#iPhone6 #Wearable #iOS - Apple Watch material could lead to a\u2026 http://t.co/AVhk3C3PqC #iPhone #iWatch #aluminum #Apple #AppleWatch
p88
aVApple Watch material could lead to a more strong iPhone http://t.co/j8OBrS9fYF #iPhone #iWatch #aluminum #Apple #AppleWatch
p89
aV#iPhone6 #Wearable #iOS - Apple Watch material could lead to a\u2026 http://t.co/3cqVYwKPbI #iPhone #iWatch #aluminum #Apple #AppleWatch
p90
aV#iPhone6 #Wearable #iOS - Apple Watch material could lead to a\u2026 http://t.co/6V2pMCw4DP #iPhone #iWatch #aluminum #Apple #AppleWatch
p91
aVApple Watch material could lead to a more strong iPhone http://t.co/SxdcoFqEF7 #iPhone #iWatch #aluminum #Apple #AppleWatch
p92
aV#iPhone6 #Wearable #iOS - Apple Watch material could lead to a\u2026 http://t.co/LcNdB2by6u #iPhone #iWatch #aluminum #Apple #AppleWatch
p93
aVApple Watch material could lead to a more strong iPhone http://t.co/j4qWS1z28T #iPhone #iWatch #aluminum #Apple #AppleWatch
p94
aV#iPhone6 #Wearable #iOS - Apple Watch material could lead to a\u2026 http://t.co/njzHYNEYfJ #iPhone #iWatch #aluminum #Apple #AppleWatch
p95
aV#iPhone6 #Wearable #iOS - Apple Watch material could lead to a\u2026 http://t.co/u9ZtfXOuz0 #iPhone #iWatch #aluminum #Apple #AppleWatch
p96
aV#iPhone6 #Wearable #iOS - Apple Watch material could lead to a\u2026 http://t.co/1TD7kMlEuU #iPhone #iWatch #aluminum #Apple #AppleWatch
p97
aV#iPhone6 #Wearable #iOS - Apple Watch material could lead to a\u2026 http://t.co/9clLuqkrpJ #iPhone #iWatch #aluminum #Apple #AppleWatch
p98
aV#iPhone6 #Wearable #iOS - Apple Watch material could lead to a\u2026 http://t.co/Mu1IHFtGHX #iPhone #iWatch #aluminum #Apple #AppleWatch
p99
aV#iPhone6 #Wearable #iOS - Apple Watch material could lead to a\u2026 http://t.co/lf5T4tGAXC #iPhone #iWatch #aluminum #Apple #AppleWatch
p100
a.