(lp0
V#mapmyrun on the #applewatch. Uber-cool http://t.co/s1Ec8OYSln
p1
a(dp2
Vtype
p3
VPoint
p4
sVcoordinates
p5
(lp6
F51.552246
aF-0.61772
asaVGerade die zweite #AppleWatch an einem Passanten gesichtet. Wahnsinn, wie schnell das geht...
p7
a(dp8
Vtype
p9
VPoint
p10
sVcoordinates
p11
(lp12
F48.149817
aF11.461747
asaV@brokenbottleboy and who decided to release the #AppleWatch same day as #ArmenianGenocide #MarchForJustice? I  spend my money elsewhere.
p13
a(dp14
Vtype
p15
VPoint
p16
sVcoordinates
p17
(lp18
F34.14941
aF-118.150031
asaV#applewatch yummy @ Apple Store https://t.co/pZrYihIKmk
p19
a(dp20
Vtype
p21
VPoint
p22
sVcoordinates
p23
(lp24
F51.514343
aF-0.141554
asaV@scottbudman got an email this morning from Apple that my #AppleWatch will arrive soon anyway we can talk let me know http://t.co/VlsYuzYHH7
p25
a(dp26
Vtype
p27
VPoint
p28
sVcoordinates
p29
(lp30
F37.576064
aF-121.962024
asa.