(lp0
VJust tried the new #AppleWatch, good design, good features but no wow factor whatsoever. #tech #Apple http://t.co/vg9r5xKqXH
p1
a(dp2
Vtype
p3
VPoint
p4
sVcoordinates
p5
(lp6
F25.762284
aF-80.194269
asaVMight be worth checking your emails today. #goodnews #AppleWatch #happybirthday http://t.co/HnMmiGJUsV
p7
a(dp8
Vtype
p9
VPoint
p10
sVcoordinates
p11
(lp12
F41.555282
aF-87.838843
asaVEssentials. \u000a\u000a#flatlay #canon #applewatch #ipad #iphone #Hartford #PhotoStudio #FourteenG\u2026 https://t.co/avZ0EutZ4L
p13
a(dp14
Vtype
p15
VPoint
p16
sVcoordinates
p17
(lp18
F41.757336
aF-72.702948
asaVArrivano voci, secondo cui, #AppleWatch abbia venduto in 1 SOLO giorno, tanto quanto gli #AdroidWear venduti un 1 intero anno? \U0001f602 #Apple \u2764\ufe0f!
p19
a(dp20
Vtype
p21
VPoint
p22
sVcoordinates
p23
(lp24
F37.511512
aF15.001705
asaVI staring to feel like the green alien from toy story waiting for #apple to choose me #AppleWatch #pleaseshipmywatch #applewatchshipping
p25
a(dp26
Vtype
p27
VPoint
p28
sVcoordinates
p29
(lp30
F34.997988
aF-80.629589
asa.