(lp0
VAppleWatch\u304b\u3063\u3053\u3044\u3044\u306a\u3041
p1
a(dp2
Vtype
p3
VPoint
p4
sVcoordinates
p5
(lp6
F35.057544
aF135.768155
asaVBest thing about the #AppleWatch so far...the @ChipotleTweets "Burrito Button" life changing. \U0001f60d\U0001f60d\U0001f60d
p7
a(dp8
Vtype
p9
VPoint
p10
sVcoordinates
p11
(lp12
F30.003289
aF-98.114322
asaViPhone\u306b\u306fAppleWatch\u4ee5\u5916\u306e\u6642\u8a08\u7aef\u672b\u306f\u4f7f\u3048\u306a\u3044\u3093\u3067\u3059\u304b\u306d
p13
a(dp14
Vtype
p15
VPoint
p16
sVcoordinates
p17
(lp18
F35.057544
aF135.768155
asaV\u201c@WeAreWearables: How three Canadian companies are helping shape Apple Watch\u2019s future via @MobileSyrup http://t.co/tGsCy7ea25 #applewatch
p19
a(dp20
Vtype
p21
VPoint
p22
sVcoordinates
p23
(lp24
F47.541284
aF-122.121823
asaV@AngelaAhrendts #AppleWatch shipping status has changed to shipped,I'm happier now but disappointed in timeliness. #applefanboy @tim_cook
p25
a(dp26
Vtype
p27
VPoint
p28
sVcoordinates
p29
(lp30
F32.826279
aF-96.821987
asa.