(lp0
V.@itele on #AppleWatch Made by @applidium http://t.co/Fcfzx33g0i
p1
a(dp2
Vtype
p3
VPoint
p4
sVcoordinates
p5
(lp6
F48.859086
aF2.353334
asaVAny Dev with expedite #AppleWatch orders they are not going to use? Decided really late that I should own one for development :/
p7
a(dp8
Vtype
p9
VPoint
p10
sVcoordinates
p11
(lp12
F9.987323
aF-84.104879
asaVIt's here!  #AppleWatch http://t.co/EokDqAL2g2
p13
a(dp14
Vtype
p15
VPoint
p16
sVcoordinates
p17
(lp18
F41.216837
aF-79.368801
asaV@9to5mac finally, they shipped my #AppleWatch http://t.co/nKkLgKR7dH
p19
a(dp20
Vtype
p21
VPoint
p22
sVcoordinates
p23
(lp24
F26.061636
aF-80.165808
asaVApple Store do Shopping Morumbi! Yes, we can!! \U0001f44f\U0001f3fc\U0001f34e\u231a\ufe0f\U0001f4f1 #apple #iphone #applewatch @ Apple Store\u2026 https://t.co/uCknMIQ6oi
p25
a(dp26
Vtype
p27
VPoint
p28
sVcoordinates
p29
(lp30
F-23.623
aF-46.697979
asa.