(lp0
VMy dark photos taken last night Only prove I need a New iPhone &amp; More storage\U0001f61a #apple storage issues &amp; a new #AppleWatch would be great\U0001f609
p1
a(dp2
Vtype
p3
VPoint
p4
sVcoordinates
p5
(lp6
F41.982707
aF-87.668136
asaVJust doublechecking... #AppleWatch #training
p7
a(dp8
Vtype
p9
VPoint
p10
sVcoordinates
p11
(lp12
F53.554318
aF9.846143
asaVJust doublechecking... #AppleWatch #training http://t.co/NCKiyKt0wE
p13
a(dp14
Vtype
p15
VPoint
p16
sVcoordinates
p17
(lp18
F53.554315
aF9.846415
asaVCan't wait to get my new #AppleWatch June 1st seems like forever to wait. #NewToys #firstworldproblems #HongKong
p19
a(dp20
Vtype
p21
VPoint
p22
sVcoordinates
p23
(lp24
F22.332715
aF113.94718
asaVMy first payment with an #AppleWatch &gt; after decades of mPayment talk first time the experience feels right http://t.co/FQGOfJgPVo
p25
a(dp26
Vtype
p27
VPoint
p28
sVcoordinates
p29
(lp30
F37.43078
aF-122.149353
asa.