(lp0
VIt finally arrived. No better way to celebrate than at Jernabi Coffeehouse\u231a\ufe0f #AppleWatch #Apple @ The\u2026 https://t.co/IMTQPdNPx3
p1
a(dp2
Vtype
p3
VPoint
p4
sVcoordinates
p5
(lp6
F44.667962
aF-74.988194
asaVOur COO @rlorenc got his #AppleWatch today, and his opinion, it was a valuable purchase. He\u2026 https://t.co/mqrrfFprD1
p7
a(dp8
Vtype
p9
VPoint
p10
sVcoordinates
p11
(lp12
F33.801094
aF-84.393056
asaVThis is now the picture I get sent when I call my CTO... My delivery moved to End of May #AppleWatch http://t.co/KESZlDgE0T
p13
a(dp14
Vtype
p15
VPoint
p16
sVcoordinates
p17
(lp18
F51.433819
aF-0.513841
asaVOur COO @rlorenc got his #AppleWatch today, and his opinion, it was a valuable purchase. He\u2026 https://t.co/mqrrfFprD1
p19
a(dp20
Vtype
p21
VPoint
p22
sVcoordinates
p23
(lp24
F33.801094
aF-84.393056
asaV#AppleWatch #Banque | Trop peu d' applications bancaires pour la montre d' #apple ? http://t.co/0reFdMlRtu http://t.co/ukCWq4lX4D
p25
a(dp26
Vtype
p27
VPoint
p28
sVcoordinates
p29
(lp30
F49.154087
aF2.554292
asa.