(lp0
VOh hey look, the @Behance watch app is featured on the Watch App Store. #AppleWatch http://t.co/ze9r7XMYED
p1
a(dp2
Vtype
p3
VPoint
p4
sVcoordinates
p5
(lp6
F40.726291
aF-73.99781
asaVHow Palestine\u000aSuffering! Watch now\u000ahttps://t.co/MFBH9oPCVk \u2026 \u2026\u000a #LaithAbuJoda\u000a#AppleWatch \u000a#afcb \u000a#aam2015 \u000a#abvote"
p7
a(dp8
Vtype
p9
VPoint
p10
sVcoordinates
p11
(lp12
F16.986688
aF54.694551
asaV#ata2015 @BCirrus is excited about the possibilities. #coolstuff  https://t.co/Ovbk1IOMZ4
p13
a(dp14
Vtype
p15
VPoint
p16
sVcoordinates
p17
(lp18
F34.792499
aF-82.244336
asaVBetter org your #applewatch apps with clusters (e.g. Travel cluster &amp; messaging cluster) #apple #watch #wearables http://t.co/etXDXp0Cpb
p19
a(dp20
Vtype
p21
VPoint
p22
sVcoordinates
p23
(lp24
F37.566319
aF-122.323526
asaVAnd away we go...#AppleWatch http://t.co/XgKvM6v0QR
p25
a(dp26
Vtype
p27
VPoint
p28
sVcoordinates
p29
(lp30
F40.742107
aF-73.989223
asa.