(lp0
VOpenfolio #investing #community #watch #applewatch @ Openfolio HQ https://t.co/OlwwuH0p2u
p1
a(dp2
Vtype
p3
VPoint
p4
sVcoordinates
p5
(lp6
F40.737572
aF-73.989538
asaVHat denn noch jemand eine 2. #AppleWatch 42mm in SpaceGrau abzugeben? #followerpower
p7
a(dp8
Vtype
p9
VPoint
p10
sVcoordinates
p11
(lp12
F51.512039
aF7.464633
asaVWearing the #AppleWatch like a sir. How do you wear yours? http://t.co/WNWcmFtOZO
p13
a(dp14
Vtype
p15
VPoint
p16
sVcoordinates
p17
(lp18
F51.506424
aF-0.099883
asaVInspiration #AppleWatch https://t.co/wnE1Y5n1wm
p19
a(dp20
Vtype
p21
VPoint
p22
sVcoordinates
p23
(lp24
F40.633995
aF-111.867615
asaV11 Things About The Apple Watch That May Surprise You http://t.co/yfIsbsO0uy #AppleWatch @mvivio http://t.co/PjS5OY6Woy
p25
a(dp26
Vtype
p27
VPoint
p28
sVcoordinates
p29
(lp30
F27.980172
aF-82.539001
asa.