(lp0
VThis just happened! #AppleWatch total surprise from my husband! I love #hubby and #apple #yay I\u2026 https://t.co/CVgBR4fisl
p1
a(dp2
Vtype
p3
VPoint
p4
sVcoordinates
p5
(lp6
F40.706389
aF-74.009444
asaV\U0001f613\U0001f613\U0001f613Can't be sadder, the correct rate is lower enough to burn myself . Well... The 'AppleWatch 'is\u2026 https://t.co/URtvsRHnob
p7
a(dp8
Vtype
p9
VPoint
p10
sVcoordinates
p11
(lp12
F33.951039
aF-83.376039
asaV#TSAPreCheck and #AppleWatch make for a VERY smooth trip through airport security.
p13
a(dp14
Vtype
p15
VPoint
p16
sVcoordinates
p17
(lp18
F38.735844
aF-90.360564
asaVThoroughly putting the #applewatch through its paces today by totally immersing myself and committing\u2026 https://t.co/b9HEyRBE7c
p19
a(dp20
Vtype
p21
VPoint
p22
sVcoordinates
p23
(lp24
F33.303459
aF-111.757126
asaV#swag #teamimc #imcnation  https://t.co/OQ6yuZ5r89
p25
a(dp26
Vtype
p27
VPoint
p28
sVcoordinates
p29
(lp30
F37.269514
aF-121.894791
asa.