(lp0
VWeird box yet sleek as usual #apple #applewatch #AppleFanBoy #blue #42mmSportBlueEdition #happy @ The\u2026 https://t.co/3vWZZjCqqI
p1
a(dp2
Vtype
p3
VPoint
p4
sVcoordinates
p5
(lp6
F38.313767
aF-77.516817
asaVWelcome to the family #applewatch #apple #42mmSportBlueEdition @ The Seasons At Celebrate Virginia https://t.co/62k1AbkuAc
p7
a(dp8
Vtype
p9
VPoint
p10
sVcoordinates
p11
(lp12
F38.313767
aF-77.516817
asaVHad to try the #applewatch - very cool, but I got OLD eyes. Need bigger face, not... https://t.co/6WRvXPKjTv http://t.co/9Q4zA71QBI
p13
a(dp14
Vtype
p15
VPoint
p16
sVcoordinates
p17
(lp18
F40.088383
aF-75.390757
asaVGot to try on the apple watch today I'm definitely picking one up#applewatch #fitbit #apple #iphone\u2026 https://t.co/RXW5HVGbW0
p19
a(dp20
Vtype
p21
VPoint
p22
sVcoordinates
p23
(lp24
F44.853486
aF-93.24254
asaVGoing to pick up apple watch sport when there back in stock #apple #applestore #applewatch @ Apple\u2026 https://t.co/F25xicelJ6
p25
a(dp26
Vtype
p27
VPoint
p28
sVcoordinates
p29
(lp30
F44.853486
aF-93.24254
asa.