(lp0
VOopss show me your #hexagon #AppleWatch \U0001f34e\u231a\ufe0f
p1
a(dp2
Vtype
p3
VPoint
p4
sVcoordinates
p5
(lp6
F39.54338
aF-104.936019
asaVConducting the Use #AppleWatch Near Water Test\u000a\u000aCross your Fingers \u000a\u000a\U0001f34e\u231a\ufe0f http://t.co/gtixdmm2A7
p7
a(dp8
Vtype
p9
VPoint
p10
sVcoordinates
p11
(lp12
F39.542926
aF-104.936094
asaVApple Watch, Android Wear, and Microsoft Band #AppleWatch # http://t.co/ufUcidjzj7
p13
a(dp14
Vtype
p15
VPoint
p16
sVcoordinates
p17
(lp18
F40.679597
aF-74.005966
asaVHoly fuck! My #AppleWatch just shipped! Should be getting it Tuesday! #SoAmped \u231a\ufe0f@tim_cook http://t.co/DC8uOQG7WB
p19
a(dp20
Vtype
p21
VPoint
p22
sVcoordinates
p23
(lp24
F41.430876
aF-73.527737
asaVTrying on the #applewatch @ Apple Store, Manhattan Village https://t.co/7PxkXLxclc
p25
a(dp26
Vtype
p27
VPoint
p28
sVcoordinates
p29
(lp30
F33.899405
aF-118.393802
asa.