(lp0
V@CBSSF got an email this morning from Apple that my #AppleWatch will arrive soon anyway we can talk let me know! http://t.co/jeSGSqHhew
p1
a(dp2
Vtype
p3
VPoint
p4
sVcoordinates
p5
(lp6
F37.576036
aF-121.962056
asaVI didn't need an #AppleWatch until I put one on. Birthday gift?
p7
a(dp8
Vtype
p9
VPoint
p10
sVcoordinates
p11
(lp12
F40.732753
aF-74.171787
asaV@mars_attac: Exploring the #applewatch notifications with our app @ZalandoTech http://t.co/riPzqya8qa
p13
a(dp14
Vtype
p15
VPoint
p16
sVcoordinates
p17
(lp18
F52.532635
aF13.431353
asaV@KPIXDesk got an email this morning from Apple that my #AppleWatch will arrive soon anyway we can talk let me know! http://t.co/pELoXieW6z
p19
a(dp20
Vtype
p21
VPoint
p22
sVcoordinates
p23
(lp24
F37.576082
aF-121.961947
asaVExploring the #applewatch notifications with our app @ZalandoTech http://t.co/uLC5ZlGxhZ
p25
a(dp26
Vtype
p27
VPoint
p28
sVcoordinates
p29
(lp30
F52.532638
aF13.431347
asa.