(lp0
V#AppleWatch or nah, it looks &amp; feel really good. @ Apple Store, Roosevelt Field https://t.co/K6f717mCa6
p1
a(dp2
Vtype
p3
VPoint
p4
sVcoordinates
p5
(lp6
F40.737954
aF-73.61268
asaVOh #Mickey, you're so fine... #AppleWatch @ Langara College https://t.co/l6Jljpo1xF
p7
a(dp8
Vtype
p9
VPoint
p10
sVcoordinates
p11
(lp12
F49.224736
aF-123.107883
asaVAbout to buy this Ariel watch seeing as my #applewatch is never going to come. http://t.co/rnRzlQ8pNv
p13
a(dp14
Vtype
p15
VPoint
p16
sVcoordinates
p17
(lp18
F37.535055
aF-77.52752
asaV.@mhelvey RT @mashable: The #AppleWatch can be your new #Tamagotchi http://t.co/9rXsvXHyhX http://t.co/DFTN1nqQoT
p19
a(dp20
Vtype
p21
VPoint
p22
sVcoordinates
p23
(lp24
F37.790428
aF-122.397208
asaVHot off the UPS truck #applewatch #apple #winning @ The Seasons At Celebrate Virginia https://t.co/PvOni7erka
p25
a(dp26
Vtype
p27
VPoint
p28
sVcoordinates
p29
(lp30
F38.313767
aF-77.516817
asa.