(lp0
VSomehow this thing unpaired itself earlier.. Didn't think I was going to ever get it paired again!!! \U0001f62d#applewatch http://t.co/InCHAjPVtH
p1
a(dp2
Vtype
p3
VPoint
p4
sVcoordinates
p5
(lp6
F34.177793
aF-84.133949
asaV#Delta boarding pass on #AppleWatch , game-changer.
p7
a(dp8
Vtype
p9
VPoint
p10
sVcoordinates
p11
(lp12
F40.776159
aF-111.959149
asaVMy #applewatch impressions after one weekend https://t.co/83cpmPXa1s
p13
a(dp14
Vtype
p15
VPoint
p16
sVcoordinates
p17
(lp18
F37.336632
aF-121.869915
asaV@TIME how did he get a watch already?  Is he press? #AppleWatch #Apple #WearableTech #Wearables
p19
a(dp20
Vtype
p21
VPoint
p22
sVcoordinates
p23
(lp24
F40.743788
aF-73.977874
asaVDear #Apple just because you created new hardware #AppleWatch does not mean I want the app on my phone #RemoveIt or make it an opt to remove
p25
a(dp26
Vtype
p27
VPoint
p28
sVcoordinates
p29
(lp30
F43.002102
aF-88.015283
asa.