(lp0
V@Delish_Donuts he's just showing off his new #iPhone &amp; #AppleWatch his parents bought him
p1
a(dp2
Vtype
p3
VPoint
p4
sVcoordinates
p5
(lp6
F33.544615
aF-112.04472
asaVSlowly getting used to my watch yelling at me #geek #applewatch @ Verifone Media https://t.co/grp58UIsO4
p7
a(dp8
Vtype
p9
VPoint
p10
sVcoordinates
p11
(lp12
F40.752975
aF-73.986687
asaV@MadisonBankey I ordered my #AppleWatch at 3:01 AM EST time on April 10 :)
p13
a(dp14
Vtype
p15
VPoint
p16
sVcoordinates
p17
(lp18
F29.159377
aF-81.064857
asaVTb to when this cutie morghantaylor and I tried on our fav new toys #applewatch #iWant @ Apple Store\u2026 https://t.co/DCD1jv2uWz
p19
a(dp20
Vtype
p21
VPoint
p22
sVcoordinates
p23
(lp24
F43.325234
aF-79.819838
asaVCool you can take screenshots of your #AppleWatch by pressing the large button then digital crown. http://t.co/2PgnTPY4qt
p25
a(dp26
Vtype
p27
VPoint
p28
sVcoordinates
p29
(lp30
F47.389164
aF-122.244707
asa.