(lp0
VMy new favourite "pairing". #AppleWatch and @ultimateears UE Boom cc: @MacMiller http://t.co/eoaeQ6WnTx
p1
a(dp2
Vtype
p3
VPoint
p4
sVcoordinates
p5
(lp6
F45.391439
aF-75.689959
asaVApparently if you're single, don't bother buying the apple watch. #AppleWatch
p7
a(dp8
Vtype
p9
VPoint
p10
sVcoordinates
p11
(lp12
F45.603548
aF-73.553005
asaVReturning my Apple Watch to Apple Retail today. I could sell it on eBay &amp; make double profit, but I'll do the "right" thing #AppleWatch
p13
a(dp14
Vtype
p15
VPoint
p16
sVcoordinates
p17
(lp18
F-33.790917
aF151.081943
asaVYay! well this is why I love #twitter. But...#me#so#jealous. Will trade #AppleWatch for 1beer/peanuts with y'all.  https://t.co/mP8ovnwpRl
p19
a(dp20
Vtype
p21
VPoint
p22
sVcoordinates
p23
(lp24
F33.510135
aF-86.779221
asaV#AppleWatch http://t.co/iiAoFBJHKs
p25
a(dp26
Vtype
p27
VPoint
p28
sVcoordinates
p29
(lp30
F38.076695
aF-122.231492
asa.