(lp0
V@blotterg mine is due to arrive tomorrow #AppleWatch #\u231a\ufe0f
p1
a(dp2
Vtype
p3
VPoint
p4
sVcoordinates
p5
(lp6
F40.230453
aF-111.642317
asaVOrdered #AppleWatch to get my place in line for June and decide later. Now it's shipped and arriving tomorrow. Do I keep, sell, or return?
p7
a(dp8
Vtype
p9
VPoint
p10
sVcoordinates
p11
(lp12
F41.874652
aF-72.492749
asaV\u0e40\u0e2e\u0e49\u0e22 \u0e40\u0e2b\u0e49\u0e22 \u0e40\u0e2b\u0e49\u0e22 #AppleWatch #unbox C U #MOBILEEXPO @ Mvision HQ https://t.co/Ev3tajQbIV
p13
a(dp14
Vtype
p15
VPoint
p16
sVcoordinates
p17
(lp18
F13.770414
aF100.65984
asaVEnding the day with 37% charge still remaining on my #AppleWatch. No power problems here!!
p19
a(dp20
Vtype
p21
VPoint
p22
sVcoordinates
p23
(lp24
F39.806668
aF-77.013029
asaV#AppleWatch accessories we talked about on tonight's show. http://t.co/jfZ39AjuPU
p25
a(dp26
Vtype
p27
VPoint
p28
sVcoordinates
p29
(lp30
F35.989082
aF-78.593142
asa.