(lp0
VI REALLY want an #AppleWatch http://t.co/rKKkSpoUhz
p1
a(dp2
Vtype
p3
VPoint
p4
sVcoordinates
p5
(lp6
F36.143758
aF-80.248722
asaVCzy tylko mnie si\u0119 wydaje, \u017ce #applewatch jest kiczowaty?
p7
a(dp8
Vtype
p9
VPoint
p10
sVcoordinates
p11
(lp12
F52.178218
aF21.016658
asaV'ns kijken of ik een Apple Watch kan scoren ik Dover Street... #applewatch #apple (@ Dover Street Market in London) https://t.co/nyg4dtdMoD
p13
a(dp14
Vtype
p15
VPoint
p16
sVcoordinates
p17
(lp18
F51.50852
aF-0.142288
asaVApple Watch gezien en geprobeerd, mooi! Kopen: onmogelijk.. :) #applewatch @ Dover Street Market https://t.co/E9RyUTjcZ2
p19
a(dp20
Vtype
p21
VPoint
p22
sVcoordinates
p23
(lp24
F51.508616
aF-0.142054
asaV.@itele sur #AppleWatch Made by @applidium http://t.co/9B9D23uwQN
p25
a(dp26
Vtype
p27
VPoint
p28
sVcoordinates
p29
(lp30
F48.858837
aF2.354408
asa.