(lp0
VVery excited about this. #\u231a\ufe0f #applewatch #mickeymouse @ Naritiv https://t.co/A7oU0qchwu
p1
a(dp2
Vtype
p3
VPoint
p4
sVcoordinates
p5
(lp6
F34.041388
aF-118.251281
asaVEarly thoughts on #applewatch -- http://t.co/4OocOvF5dl @ Menlo Park https://t.co/rLfyJwOSWP
p7
a(dp8
Vtype
p9
VPoint
p10
sVcoordinates
p11
(lp12
F37.475175
aF-122.158661
asaVWell, well, well\u2026 What do we have here? \U0001f60e\U0001f601 #AppleWatch http://t.co/5wkOjTuV8a
p13
a(dp14
Vtype
p15
VPoint
p16
sVcoordinates
p17
(lp18
F41.933188
aF-87.6534
asaViPhone is at 31%, Apple watch at 29% through a full days use #applewatch
p19
a(dp20
Vtype
p21
VPoint
p22
sVcoordinates
p23
(lp24
F40.572703
aF-74.603553
asaV\u201c@tomemrich: Why the Apple Watch is a radical wearable tech shift #applewatch #WearableTech  http://t.co/aMjc5nnaO9\u201d
p25
a(dp26
Vtype
p27
VPoint
p28
sVcoordinates
p29
(lp30
F47.54121
aF-122.1221
asa.