(lp0
VHalo u\u017cytkownicy AppleWatch, jak mo\u017cna \u0142adowa\u0107 zegarek co 14h, dzie\u0144 w dzie\u0144??!! Gdzie tu wygoda?! :D #TakToHejt :))
p1
a(dp2
Vtype
p3
VPoint
p4
sVcoordinates
p5
(lp6
F52.209216
aF21.048138
asaV@benr75 I can send iMessage from both but only SMS from my phone. Strange. #AppleWatch
p7
a(dp8
Vtype
p9
VPoint
p10
sVcoordinates
p11
(lp12
F43.706872
aF-79.359445
asaVSo I can send iMessage from both #iphone and #AppleWatch but can't send or receive SMS from my watch? Any ideas or suggestions?
p13
a(dp14
Vtype
p15
VPoint
p16
sVcoordinates
p17
(lp18
F43.706946
aF-79.359879
asaVThe best feature of the #AppleWatch is that it alerts everyone around you that you're a pretentious douchebag #PointsMe @midnight
p19
a(dp20
Vtype
p21
VPoint
p22
sVcoordinates
p23
(lp24
F33.522536
aF-112.061067
asaV@tommytrc @GASportsMom  https://t.co/7hoqRss5eo
p25
a(dp26
Vtype
p27
VPoint
p28
sVcoordinates
p29
(lp30
F34.176537
aF-83.919477
asa.