(lp0
VLOL you can take screenshots on your #AppleWatch https://t.co/FKktkIoHsz
p1
a(dp2
Vtype
p3
VPoint
p4
sVcoordinates
p5
(lp6
F38.906759
aF-77.04616
asaVIt's been a great fitness day with the #AppleWatch. Can't wait to use it even more. http://t.co/D7vgyy09Jh
p7
a(dp8
Vtype
p9
VPoint
p10
sVcoordinates
p11
(lp12
F40.596019
aF-73.96789
asaVIt's been a great fitness day on the #AppleWatch. I can't wait to use it even more. @pschiller http://t.co/DpcXokXbqh
p13
a(dp14
Vtype
p15
VPoint
p16
sVcoordinates
p17
(lp18
F40.595996
aF-73.967812
asaVOk... I want one! \U0001f60f\u231a\ufe0f\U0001f4b0 #AppleWatch #iwantone #techgeek #ShutUpAndTakeMyMoney http://t.co/rzJVwYQdug
p19
a(dp20
Vtype
p21
VPoint
p22
sVcoordinates
p23
(lp24
F-33.863427
aF151.206799
asaVAfter full day of active usage still left with enough battery. #AppleWatch http://t.co/cn2kf72Sj9
p25
a(dp26
Vtype
p27
VPoint
p28
sVcoordinates
p29
(lp30
F33.692157
aF-117.873766
asa.