(lp0
V\u201cApple Watch pushes iOS 8 adoption rate to 81% http://t.co/msqO9LTHOO http://t.co/VX69djn6pG\u201d #AppleWatch #iWatch
p1
a(dp2
Vtype
p3
VPoint
p4
sVcoordinates
p5
(lp6
F18.044224
aF73.022016
asaVIt's not like I'm going anywhere fast! May as well check out the navigation on my #AppleWatch. Loving\u2026 https://t.co/8ROCiT64DC
p7
a(dp8
Vtype
p9
VPoint
p10
sVcoordinates
p11
(lp12
F43.767315
aF-79.414641
asaV@podholland return it immediately https://t.co/1Us2Z7bBAt
p13
a(dp14
Vtype
p15
VPoint
p16
sVcoordinates
p17
(lp18
F35.865602
aF-86.363824
asaVThe Apple Watch. #Apple #applewatch #iwatch #firstgen #rolex #iphone @ Apple Store, Garden State Plaza https://t.co/CR0SRHFhrp
p19
a(dp20
Vtype
p21
VPoint
p22
sVcoordinates
p23
(lp24
F40.918422
aF-74.075388
asaV\u201c@appleinsider: #AppleWatch App Store touts over 3,500 titles, Cook says http://t.co/r3i8rZc9oo http://t.co/MuagdKE2Ef\u201d
p25
a(dp26
Vtype
p27
VPoint
p28
sVcoordinates
p29
(lp30
F47.631233
aF-122.119379
asa.