(lp0
VTrying on the #applewatch part 2 @ Apple Store, Manhattan Village https://t.co/2HLdAmGZYS
p1
a(dp2
Vtype
p3
VPoint
p4
sVcoordinates
p5
(lp6
F33.899405
aF-118.393802
asaV2 meters charger cable !? \U0001f440\u000aInteresting..\U0001f60d\u000a~\u000a#AppleWatch #Apple #Charger #Cable @ UC Berkeley\u2026 https://t.co/LB8gAF5If0
p7
a(dp8
Vtype
p9
VPoint
p10
sVcoordinates
p11
(lp12
F37.871984
aF-122.271478
asaVHaven't spotted the #AppleWatch in any TV shows so far.. Apple PR is slacking in the product placement department..
p13
a(dp14
Vtype
p15
VPoint
p16
sVcoordinates
p17
(lp18
F34.15513
aF-118.01178
asaVIt's now here, no more notes in hand palms. The Apple watch - Now available to help you cheat on your test. #ThoughtOfTheDay #AppleWatch
p19
a(dp20
Vtype
p21
VPoint
p22
sVcoordinates
p23
(lp24
F35.04402
aF-85.300697
asaV#Apple has definitely pulled a fast one with the #AppleWatch over priced and underwhelming. Only Apple would have big enough balls.
p25
a(dp26
Vtype
p27
VPoint
p28
sVcoordinates
p29
(lp30
F35.754902
aF-81.492314
asa.