(lp0
V@gabeslate got an email this morning from Apple that my #AppleWatch will arrive soon anyway we can talk let me know http://t.co/Dhe1lvDf4m
p1
a(dp2
Vtype
p3
VPoint
p4
sVcoordinates
p5
(lp6
F37.576115
aF-121.961979
asaV@kron4news got an email this morning from Apple that my #AppleWatch will arrive soon anyway we can talk let me know http://t.co/djznS3BZZm
p7
a(dp8
Vtype
p9
VPoint
p10
sVcoordinates
p11
(lp12
F37.57608
aF-121.96196
asaV#Applewatch is quite durable. Just don't crack the sapphire glass screen with a cast iron skillet.\u000ahttp://t.co/Td5EHdjjKq
p13
a(dp14
Vtype
p15
VPoint
p16
sVcoordinates
p17
(lp18
F42.46413
aF-83.117616
asaVToT \u0e40\u0e23\u0e32\u0e1e\u0e25\u0e32\u0e14\u0e2d\u0e35\u0e01\u0e41\u0e25\u0e49\u0e27 #\u0e15\u0e31\u0e49\u0e07\u0e41\u0e15\u0e48 #AppleWatch \u0e25\u0e30 https://t.co/iElwee8sBg
p19
a(dp20
Vtype
p21
VPoint
p22
sVcoordinates
p23
(lp24
F13.734969
aF100.512716
asaVDay #4 without an #AppleWatch. No withdrawal symptoms. Envy level... Low. http://t.co/MVqvquuwyl
p25
a(dp26
Vtype
p27
VPoint
p28
sVcoordinates
p29
(lp30
F37.439619
aF-122.180395
asa.