(lp0
VSlightly hypnotic \U0001f633\u231a\ufe0f #AppleWatch #WillItBlend http://t.co/X4C2LzF6xh
p1
a(dp2
Vtype
p3
VPoint
p4
sVcoordinates
p5
(lp6
F51.862921
aF-8.436272
asaVDie AppleWatch hat ein Amoled Display. War das nicht die Display Technik die Apple und die Apple Fanboys immer schlecht geredet haben?
p7
a(dp8
Vtype
p9
VPoint
p10
sVcoordinates
p11
(lp12
F49.948071
aF9.203732
asaVOk...... NOW I'm sold. #AppleWatch  https://t.co/97ZvtYBXWK
p13
a(dp14
Vtype
p15
VPoint
p16
sVcoordinates
p17
(lp18
F41.827357
aF-71.416568
asaVBoat trip with #AppleWatch @ Raritan Bay https://t.co/5cavbXXHOU
p19
a(dp20
Vtype
p21
VPoint
p22
sVcoordinates
p23
(lp24
F40.483333
aF-74.183056
asaVDifference between my #AppleWatch &amp; #iPhone6+: #AppleWatch notifies me of what I NEED to know, #iPhone6+ notifies me of what I WANT to know.
p25
a(dp26
Vtype
p27
VPoint
p28
sVcoordinates
p29
(lp30
F39.864705
aF-77.031631
asa.