(lp0
VAnd then the #AppleWatch arrived! Watch and wait, whilst the #travel Apps show up:\u000ahttp://t.co/WWGDnU22j8
p1
a(dp2
Vtype
p3
VPoint
p4
sVcoordinates
p5
(lp6
F41.65026
aF-4.730519
asaVFeeling on top of the world! \u2600\ufe0f \u000a#mtainslie #canberra #fitness #cardio #applewatch #burnthosecalories\u2026 https://t.co/Kbm0FLtsuC
p7
a(dp8
Vtype
p9
VPoint
p10
sVcoordinates
p11
(lp12
F-35.27
aF149.158333
asaVFellow prisoners of #AppleWatch processing purgatory, buy this! It'll prolly ship sooner. http://t.co/WLkWvDETCh
p13
a(dp14
Vtype
p15
VPoint
p16
sVcoordinates
p17
(lp18
F40.202019
aF-83.099316
asaVTrying on the new #applewatch http://t.co/cV858FCpRP
p19
a(dp20
Vtype
p21
VPoint
p22
sVcoordinates
p23
(lp24
F33.847199
aF-84.362683
asaVUser testing #VSCOcam #applewatch #nyc #tech #ux #research @ New York, New York https://t.co/3ZaTmGnxfi
p25
a(dp26
Vtype
p27
VPoint
p28
sVcoordinates
p29
(lp30
F40.7142
aF-74.0064
asa.