(lp0
V#iPhone6s #iPhoneSeries \u2013 Next iPhone to\u2026 http://t.co/QdPqePKB51 #iPhone #7000series #aluminium #Apple #AppleWatch http://t.co/O1ohzWEggs
p1
aV#iPhone6s #iPhoneSeries \u2013 Next iPhone to feature stronger 7000\u2026 http://t.co/HGiisXIB9d #iPhone #7000series #aluminium #Apple #AppleWatch
p2
aV#iPhone6s #iPhoneSeries \u2013 Next iPhone to\u2026 http://t.co/LDLzuXGt6M #iPhone #7000series #aluminium #Apple #AppleWatch http://t.co/fbUVPnlCIT
p3
aV#iPhone6s #iPhoneSeries \u2013 Next iPhone to feature stronger 7000\u2026 http://t.co/vb8kpJil29 #iPhone #7000series #aluminium #Apple #AppleWatch
p4
aV#iPhone6s #iPhoneSeries \u2013 Next iPhone to feature stronger 7000\u2026 http://t.co/1Qc7KzgpEQ #iPhone #7000series #aluminium #Apple #AppleWatch
p5
aVNext iPhone to feature stronger 7000 series aluminium http://t.co/eyyuZSONz4 #iPhone #7000series #aluminium #Apple #AppleWatch
p6
aV#iPhone6s #iPhoneSeries \u2013 Next iPhone to\u2026 http://t.co/Bsdt52HtAr #iPhone #7000series #aluminium #Apple #AppleWatch http://t.co/ugcPCZQa2n
p7
aV#iPhone6s #iPhoneSeries \u2013 Next iPhone to feature stronger 7000\u2026 http://t.co/3vG7HJOxwq #iPhone #7000series #aluminium #Apple #AppleWatch
p8
aV#iPhone6s #iPhoneSeries \u2013 Next iPhone to feature stronger 7000\u2026 http://t.co/pccZDYaLSm #iPhone #7000series #aluminium #Apple #AppleWatch
p9
aVNext iPhone to feature stronger 7000\u2026 http://t.co/mhjOWmZ5Bj #iPhone #7000series #aluminium #Apple #AppleWatch http://t.co/7p3QAm6YVx
p10
aV#iPhone6s #iPhoneSeries \u2013 Next iPhone to feature stronger 7000\u2026 http://t.co/YVPHwf1njz #iPhone #7000series #aluminium #Apple #AppleWatch
p11
aV#iPhone6s #iPhoneSeries \u2013 Next iPhone to feature stronger 7000\u2026 http://t.co/x5GDwY1jei #iPhone #7000series #aluminium #Apple #AppleWatch
p12
aVNext iPhone to feature stronger 7000 series aluminium http://t.co/dOUsPxGXIO #iPhone #7000series #aluminium #Apple #AppleWatch
p13
aV#iPhone6s #iPhoneSeries \u2013 Next iPhone to feature stronger 7000\u2026 http://t.co/6Ou5vDYFpw #iPhone #7000series #aluminium #Apple #AppleWatch
p14
aV#iPhone6s #iPhoneSeries \u2013 Next iPhone to feature stronger 7000\u2026 http://t.co/oYPsrTJXd3 #iPhone #7000series #aluminium #Apple #AppleWatch
p15
aV#iPhone6s #iPhoneSeries \u2013 Next iPhone to feature stronger 7000\u2026 http://t.co/zi4Drp6QWL #iPhone #7000series #aluminium #Apple #AppleWatch
p16
aV#iPhone6s #iPhoneSeries \u2013 Next iPhone to feature stronger 7000\u2026 http://t.co/Yjsh3AkvhW #iPhone #7000series #aluminium #Apple #AppleWatch
p17
aV#iPhone6s #iPhoneSeries \u2013 Next iPhone to feature stronger 7000\u2026 http://t.co/NRX2H8XQvn #iPhone #7000series #aluminium #Apple #AppleWatch
p18
aV#iPhone6s #iPhoneSeries \u2013 Next iPhone to\u2026 http://t.co/iIBRQCPOeX #iPhone #7000series #aluminium #Apple #AppleWatch http://t.co/14TA7PdXpE
p19
aV#iPhone6s #iPhoneSeries \u2013 Next iPhone to feature stronger 7000\u2026 http://t.co/ZActHhCpVz #iPhone #7000series #aluminium #Apple #AppleWatch
p20
aVNext iPhone to feature stronger 7000\u2026 http://t.co/eyyuZSONz4 #iPhone #7000series #aluminium #Apple #AppleWatch http://t.co/Hwb7WUl2LJ
p21
aV#iPhone6s #iPhoneSeries \u2013 Next iPhone to feature stronger 7000\u2026 http://t.co/KWPTi7Plk4 #iPhone #7000series #aluminium #Apple #AppleWatch
p22
aVNext iPhone to feature stronger 7000 series aluminium http://t.co/65VpDVnP71 #iPhone #7000series #aluminium #Apple #AppleWatch
p23
aVNext iPhone to feature stronger 7000\u2026 http://t.co/dOUsPxGXIO #iPhone #7000series #aluminium #Apple #AppleWatch http://t.co/R0NkFBXPEW
p24
aV#iPhone6s #iPhoneSeries \u2013 Next iPhone to feature stronger 7000\u2026 http://t.co/IvyqlJ78Vx #iPhone #7000series #aluminium #Apple #AppleWatch
p25
aVNext iPhone to feature stronger 7000 series aluminium http://t.co/l8eFwhEOjT #iPhone #7000series #aluminium #Apple #AppleWatch
p26
aV#iPhone6s #iPhoneSeries \u2013 Next iPhone to feature stronger 7000\u2026 http://t.co/c7PsJYPn4M #iPhone #7000series #aluminium #Apple #AppleWatch
p27
aV#iPhone6s #iPhoneSeries \u2013 Next iPhone to feature stronger 7000\u2026 http://t.co/bQpqKWJKl6 #iPhone #7000series #aluminium #Apple #AppleWatch
p28
aV#iPhone6s #iPhoneSeries \u2013 Next iPhone to feature stronger 7000\u2026 http://t.co/DPd486tGuk #iPhone #7000series #aluminium #Apple #AppleWatch
p29
aV#iPhone6s #iPhoneSeries \u2013 Next iPhone to feature stronger 7000\u2026 http://t.co/3dQYs98Gc6 #iPhone #7000series #aluminium #Apple #AppleWatch
p30
aVI envision my #AppleWatch decreasing my iPhone screen time. What The Apple Watch Could Be http://t.co/59W0YTisx8 via @techcrunch
p31
aV\u4eca\u65e5\u3082AppleStore\u306b\u6765\u5e97w\u000a\u4eca\u65e5\u306f\u4e00\u4eba\u3067\u3058\u3083\u306a\u304f\u3066\u30ea\u30a2\u53cb\u3068\u306e\u6765\u5e97w\u000a\u30ea\u30a2\u53cb\u306fAppleWatch\u306b\u5922\u4e2dw\u000a\u307e\u3041\u3001AppleStore\u306f\u697d\u3057\u3044\u304b\u3089\u306dw\u000a\u3044\u3064\u3067\u3082\u4f55\u6642\u307e\u3067\u3082\u3044\u308c\u308b\u308fw
p32
aV#iPhone6s #iPhoneSeries \u2013 Next iPhone to feature stronger 7000\u2026 http://t.co/ygQU0ud4Zp #iPhone #7000series #aluminium #Apple #AppleWatch
p33
aV#iPhone6s #iPhoneSeries \u2013 Next iPhone to\u2026 http://t.co/1Qc7KzgpEQ #iPhone #7000series #aluminium #Apple #AppleWatch http://t.co/LbkKfhH3I1
p34
aV#iPhone6s #iPhoneSeries \u2013 Next iPhone to feature stronger 7000\u2026 http://t.co/l8K5lHIOJA #iPhone #7000series #aluminium #Apple #AppleWatch
p35
aV#iPhone6s #iPhoneSeries \u2013 Next iPhone to feature stronger 7000\u2026 http://t.co/6SlVYuER4U #iPhone #7000series #aluminium #Apple #AppleWatch
p36
aV#iPhone6s #iPhoneSeries \u2013 Next iPhone to feature stronger 7000\u2026 http://t.co/TSf8YnyAhS #iPhone #7000series #aluminium #Apple #AppleWatch
p37
aVNext iPhone to feature stronger 7000\u2026 http://t.co/65VpDVnP71 #iPhone #7000series #aluminium #Apple #AppleWatch http://t.co/lzLL6vVApr
p38
aV#iPhone6s #iPhoneSeries \u2013 Next iPhone to feature stronger 7000\u2026 http://t.co/LdCR168qro #iPhone #7000series #aluminium #Apple #AppleWatch
p39
aV#iPhone6s #iPhoneSeries \u2013 Next iPhone to feature stronger 7000\u2026 http://t.co/pt7Y6d7b10 #iPhone #7000series #aluminium #Apple #AppleWatch
p40
aV#iPhone6s #iPhoneSeries \u2013 Next iPhone to\u2026 http://t.co/ZActHhCpVz #iPhone #7000series #aluminium #Apple #AppleWatch http://t.co/Be3GnF5jMH
p41
aV#iPhone6s #iPhoneSeries \u2013 Next iPhone to feature stronger 7000\u2026 http://t.co/IXSGVE3vTv #iPhone #7000series #aluminium #Apple #AppleWatch
p42
aVNext iPhone to feature stronger 7000 series aluminium http://t.co/JvueOOwIwa #iPhone #7000series #aluminium #Apple #AppleWatch
p43
aV#AppleWatch #iOS \u2013 How Apple Watch could reshape journalism : With the Apple Watch expected to\u2026 http://t.co/5XZGc40Kka #iWatch #AppleWatch
p44
aV#AppleWatch #iOS \u2013 How Apple Watch could\u2026 http://t.co/7awxuuLfES #iWatch #AppleWatch #applewatch #glancejournalism http://t.co/F75klCIDNJ
p45
aV#AppleWatch #iOS \u2013 How Apple Watch could\u2026 http://t.co/1u3pdMNuw2 #iWatch #AppleWatch #applewatch #glancejournalism http://t.co/X7AKoyWYno
p46
aV#AppleWatch #iOS \u2013 How Apple Watch could reshape journalism : With the\u2026 http://t.co/guigQx3KaG #iWatch #AppleWatch http://t.co/8cAW0iR2nJ
p47
aV#AppleWatch #iOS \u2013 How Apple Watch could reshape journalism : With the Apple Watch expected to\u2026 http://t.co/uNmiyCw9WJ #iWatch #AppleWatch
p48
aV#iPhone6s #iPhoneSeries \u2013 Next iPhone to feature stronger 7000\u2026 http://t.co/GwgiSYnI9d #iPhone #7000series #aluminium #Apple #AppleWatch
p49
aV#AppleWatch #iOS \u2013 How Apple Watch could\u2026 http://t.co/63k6q95puA #iWatch #AppleWatch #applewatch #glancejournalism http://t.co/rt2wsvKFNd
p50
aVHow Apple Watch could reshape journalism http://t.co/xeU01K3IRP #iWatch #AppleWatch #applewatch #glancejournalism
p51
aV#AppleWatch #iOS \u2013 How Apple Watch could reshape journalism : With the\u2026 http://t.co/vSEJcaF65L #iWatch #AppleWatch http://t.co/y3pJYwKjje
p52
aV#AppleWatch #iOS \u2013 How Apple Watch could reshape journalism : With the\u2026 http://t.co/dXoEht7T99 #iWatch #AppleWatch http://t.co/rcMPpmawsi
p53
aV#iPhone6s #iPhoneSeries \u2013 Next iPhone to feature stronger 7000\u2026 http://t.co/leP19zF6l6 #iPhone #7000series #aluminium #Apple #AppleWatch
p54
aV#iPhone6s #iPhoneSeries \u2013 Next iPhone to\u2026 http://t.co/bQpqKWJKl6 #iPhone #7000series #aluminium #Apple #AppleWatch http://t.co/vqORyq0K7H
p55
aVNext iPhone to feature stronger 7000 series aluminium http://t.co/yWXPdWXVDW #iPhone #7000series #aluminium #Apple #AppleWatch
p56
aV#AppleWatch #iOS \u2013 How Apple Watch could reshape journalism : With the\u2026 http://t.co/Ru1DU86mwN #iWatch #AppleWatch http://t.co/aQg504nMju
p57
aV#AppleWatch #iOS \u2013 How Apple Watch could reshape journalism : With the\u2026 http://t.co/Uiwe7LWzdD #iWatch #AppleWatch http://t.co/QYj37isV5X
p58
aV#iPhone6s #iPhoneSeries \u2013 Next iPhone to feature stronger 7000\u2026 http://t.co/lkwpU6ZrTN #iPhone #7000series #aluminium #Apple #AppleWatch
p59
aV#AppleWatch #iOS \u2013 How Apple Watch could reshape journalism : With the\u2026 http://t.co/5JUCQ55rco #iWatch #AppleWatch http://t.co/8MI7jxTabx
p60
aV#iPhone6s #iPhoneSeries \u2013 Next iPhone to feature stronger 7000\u2026 http://t.co/jYVlQoUbTu #iPhone #7000series #aluminium #Apple #AppleWatch
p61
aV#iPhone6s #iPhoneSeries \u2013 Next iPhone to\u2026 http://t.co/Yjsh3AkvhW #iPhone #7000series #aluminium #Apple #AppleWatch http://t.co/YjYvzmZrCl
p62
aV#iPhone6s #iPhoneSeries \u2013 Next iPhone to feature stronger 7000\u2026 http://t.co/BdSiVU42NF #iPhone #7000series #aluminium #Apple #AppleWatch
p63
aV#AppleWatch #iOS \u2013 How Apple Watch could\u2026 http://t.co/rYwCycsIiv #iWatch #AppleWatch #applewatch #glancejournalism http://t.co/q1Dp3kCpq1
p64
aVNext iPhone to feature stronger 7000\u2026 http://t.co/JvueOOwIwa #iPhone #7000series #aluminium #Apple #AppleWatch http://t.co/kLCRWWbah7
p65
aV#iPhone6s #iPhoneSeries \u2013 Next iPhone to\u2026 http://t.co/oYPsrTslOt #iPhone #7000series #aluminium #Apple #AppleWatch http://t.co/TsmuJODsY9
p66
aVNext iPhone to feature stronger 7000\u2026 http://t.co/l8eFwhEOjT #iPhone #7000series #aluminium #Apple #AppleWatch http://t.co/gAhNBz9Qye
p67
aV#AppleWatch #iOS \u2013 How Apple Watch could reshape journalism : With the\u2026 http://t.co/Vi3kqsQjYk #iWatch #AppleWatch http://t.co/GMePEJFwYx
p68
aV#AppleWatch #iOS \u2013 How Apple Watch could reshape journalism : With the\u2026 http://t.co/TDmEAsg471 #iWatch #AppleWatch http://t.co/vLa6ywpqr1
p69
aV#AppleWatch #iOS \u2013 How Apple Watch could reshape journalism : With the\u2026 http://t.co/GNt60vmtHE #iWatch #AppleWatch http://t.co/hznbtFPW3z
p70
aV#AppleWatch #iOS \u2013 How Apple Watch could reshape journalism : With the\u2026 http://t.co/WZgBAJZmz6 #iWatch #AppleWatch http://t.co/sJan6fzvL7
p71
aV#iPhone6s #iPhoneSeries \u2013 Next iPhone to feature stronger 7000\u2026 http://t.co/Q3wT1Ar9gp #iPhone #7000series #aluminium #Apple #AppleWatch
p72
aV#iPhone6s #iPhoneSeries \u2013 Next iPhone to feature stronger 7000\u2026 http://t.co/9CGqSbkWBE #iPhone #7000series #aluminium #Apple #AppleWatch
p73
aV#AppleWatch #iOS \u2013 How Apple Watch could reshape journalism : With the\u2026 http://t.co/yDOcuq1hkz #iWatch #AppleWatch http://t.co/GG5NqtkJjX
p74
aV#AppleWatch #iOS \u2013 How Apple Watch could\u2026 http://t.co/O2WSDrGjuU #iWatch #AppleWatch #applewatch #glancejournalism http://t.co/VM8NJ6hsPR
p75
aV#iPhone6s #iPhoneSeries \u2013 Next iPhone to feature stronger 7000\u2026 http://t.co/EbDHsg3oAF #iPhone #7000series #aluminium #Apple #AppleWatch
p76
aV#AppleWatch #iOS \u2013 How Apple Watch could\u2026 http://t.co/FN1EfXWPIs #iWatch #AppleWatch #applewatch #glancejournalism http://t.co/qsDudFuvka
p77
aV#AppleWatch #iOS \u2013 How Apple Watch could\u2026 http://t.co/Jcdu731snZ #iWatch #AppleWatch #applewatch #glancejournalism http://t.co/wHAtDaEswF
p78
aV#AppleWatch #iOS \u2013 How Apple Watch could\u2026 http://t.co/vspCTB47EA #iWatch #AppleWatch #applewatch #glancejournalism http://t.co/75Ensd63rv
p79
aV#AppleWatch #iOS \u2013 How Apple Watch could reshape journalism :\u2026 http://t.co/kzQ1CETkIT #iWatch #AppleWatch #applewatch #glancejournalism
p80
aVNext iPhone to feature stronger 7000 series aluminium http://t.co/5ZigRAeweO #iPhone #7000series #aluminium #Apple #AppleWatch
p81
aV#AppleWatch #iOS \u2013 How Apple Watch could reshape journalism :\u2026 http://t.co/WDtxTTZxxS #iWatch #AppleWatch #applewatch #glancejournalism
p82
aVNext iPhone to feature stronger 7000 series aluminium http://t.co/WkvMtXQG9w #iPhone #7000series #aluminium #Apple #AppleWatch
p83
aV#AppleWatch #iOS \u2013 How Apple Watch could reshape journalism : With the Apple Watch expected to\u2026 http://t.co/cycNeoWVh9 #iWatch #AppleWatch
p84
aV#iPhone6s #iPhoneSeries \u2013 Next iPhone to feature stronger 7000\u2026 http://t.co/vLQ3ZzkSsi #iPhone #7000series #aluminium #Apple #AppleWatch
p85
aV#AppleWatch #iOS \u2013 How Apple Watch could\u2026 http://t.co/mcwDTbZ4DA #iWatch #AppleWatch #applewatch #glancejournalism http://t.co/teGUM9w6Ac
p86
aV#AppleWatch #iOS \u2013 How Apple Watch could reshape journalism : With the\u2026 http://t.co/QGXxrtkSiG #iWatch #AppleWatch http://t.co/SMnYIVNfHT
p87
aV#AppleWatch #iOS \u2013 How Apple Watch could reshape journalism :\u2026 http://t.co/t4ru3TaV9K #iWatch #AppleWatch #applewatch #glancejournalism
p88
aV#AppleWatch #iOS \u2013 How Apple Watch could reshape journalism :\u2026 http://t.co/szeRIeCK1K #iWatch #AppleWatch #applewatch #glancejournalism
p89
aVNext iPhone to feature stronger 7000 series aluminium http://t.co/wXMLp3qIv1 #iPhone #7000series #aluminium #Apple #AppleWatch
p90
aV#AppleWatch #iOS \u2013 How Apple Watch could reshape journalism : With the\u2026 http://t.co/lxcI0oP3AX #iWatch #AppleWatch http://t.co/j2NZWVIReo
p91
aV#iPhone6s #iPhoneSeries \u2013 Next iPhone to feature stronger 7000\u2026 http://t.co/wM3vRLHjxv #iPhone #7000series #aluminium #Apple #AppleWatch
p92
aV#AppleWatch #iOS \u2013 How Apple Watch could\u2026 http://t.co/kzQ1CETkIT #iWatch #AppleWatch #applewatch #glancejournalism http://t.co/yaKSUdtpQ6
p93
aV#AppleWatch #iOS \u2013 How Apple Watch could reshape journalism : With the\u2026 http://t.co/ocrQCfLjA9 #iWatch #AppleWatch http://t.co/dyvBWLNYkJ
p94
aV#AppleWatch #iOS \u2013 How Apple Watch could reshape journalism :\u2026 http://t.co/MvS876uy8m #iWatch #AppleWatch #applewatch #glancejournalism
p95
aV#iPhone6s #iPhoneSeries \u2013 Next iPhone to feature stronger 7000\u2026 http://t.co/JKmBMboaXl #iPhone #7000series #aluminium #Apple #AppleWatch
p96
aV#iPhone6s #iPhoneSeries \u2013 Next iPhone to feature stronger 7000\u2026 http://t.co/tpzkYhVDkv #iPhone #7000series #aluminium #Apple #AppleWatch
p97
aV#iPhone6s #iPhoneSeries \u2013 Next iPhone to feature stronger 7000\u2026 http://t.co/Gcrc3EaEut #iPhone #7000series #aluminium #Apple #AppleWatch
p98
aV#AppleWatch #iOS \u2013 How Apple Watch could reshape journalism : With the Apple Watch expected to\u2026 http://t.co/2b6mLqDmLP #iWatch #AppleWatch
p99
aV#iPhone6s #iPhoneSeries \u2013 Next iPhone to feature stronger 7000\u2026 http://t.co/rZNVYZteu6 #iPhone #7000series #aluminium #Apple #AppleWatch
p100
a.