(lp0
VWhy its time has come at last: Apple Watch http://t.co/jIeWdUBZVA #Apple #iWatch #AppleWatch #apps #iOS http://t.co/416R0uJnUp
p1
aV#Watch #Wearable \u2013 Apple Watch: Why its time has come at last \u2013 One of the\u2026 http://t.co/Zr40O2qn4l #Apple #iWatch #AppleWatch #apps #iOS
p2
aV#Watch #Wearable \u2013 Apple Watch: Why its time has come at last \u2013 One of the\u2026 http://t.co/QaHZKoH8a7 #Apple #iWatch #AppleWatch #apps #iOS
p3
aV#Watch #Wearable \u2013 Apple Watch: Why its time has come at last \u2013 One of the\u2026 http://t.co/zqiyt2piMe #Apple #iWatch #AppleWatch #apps #iOS
p4
aV#Watch #Wearable \u2013 Apple Watch: Why its time has come\u2026 http://t.co/hhK4la4t1I #Apple #iWatch #AppleWatch #apps #iOS http://t.co/aAjBdfUCPZ
p5
aV#Watch #Wearable \u2013 Apple Watch: Why its time has come at last \u2013 One of the\u2026 http://t.co/SIXkCnyjMX #Apple #iWatch #AppleWatch #apps #iOS
p6
aV#Watch #Wearable \u2013 Apple Watch: Why its time has come at last \u2013 One of the\u2026 http://t.co/dUXN0hNAwi #Apple #iWatch #AppleWatch #apps #iOS
p7
aV#Watch #Wearable \u2013 Apple Watch: Why its time has come at last \u2013 One of the\u2026 http://t.co/BCpN4LbZue #Apple #iWatch #AppleWatch #apps #iOS
p8
aV#Watch #Wearable \u2013 Apple Watch: Why its time has come at last \u2013 One of the\u2026 http://t.co/QNVZgk6C4l #Apple #iWatch #AppleWatch #apps #iOS
p9
aV#Watch #Wearable \u2013 Apple Watch: Why its time has come at last \u2013 One of the\u2026 http://t.co/R5DV621Hlo #Apple #iWatch #AppleWatch #apps #iOS
p10
aV#Watch #Wearable \u2013 Apple Watch: Why its time has come\u2026 http://t.co/a8alSdqGAl #Apple #iWatch #AppleWatch #apps #iOS http://t.co/f5P0hQNhl8
p11
aV#Watch #Wearable \u2013 Apple Watch: Why its time has come\u2026 http://t.co/PnW6rzPMEj #Apple #iWatch #AppleWatch #apps #iOS http://t.co/1tlxMesbuG
p12
aV#Watch #Wearable \u2013 Apple Watch: Why its time has come at last \u2013 One of the\u2026 http://t.co/guzX5EzsRF #Apple #iWatch #AppleWatch #apps #iOS
p13
aV#Watch #Wearable \u2013 Apple Watch: Why its time has come\u2026 http://t.co/MtzzThV91m #Apple #iWatch #AppleWatch #apps #iOS http://t.co/ZUVLy7Tjr1
p14
aV#Watch #Wearable \u2013 Apple Watch: Why its time has come\u2026 http://t.co/lKTbfTIUUe #Apple #iWatch #AppleWatch #apps #iOS http://t.co/LQn3mqZFMF
p15
aV#Watch #Wearable \u2013 Apple Watch: Why its time has come\u2026 http://t.co/rXCemszQFa #Apple #iWatch #AppleWatch #apps #iOS http://t.co/59Zao0c4yB
p16
aV#Watch #Wearable \u2013 Apple Watch: Why its time has come at last \u2013 One of the\u2026 http://t.co/k5ZqBzDVt7 #Apple #iWatch #AppleWatch #apps #iOS
p17
aV#Watch #Wearable \u2013 Apple Watch: Why its time has come at last \u2013 One of the\u2026 http://t.co/264aHtcvcq #Apple #iWatch #AppleWatch #apps #iOS
p18
aV#Watch #Wearable \u2013 Apple Watch: Why its time has come\u2026 http://t.co/nXayiPCOzc #Apple #iWatch #AppleWatch #apps #iOS http://t.co/fFTQnW4bBn
p19
aV#Watch #Wearable \u2013 Apple Watch: Why its time has come at last \u2013 One of the\u2026 http://t.co/t24aoANQgx #Apple #iWatch #AppleWatch #apps #iOS
p20
aV#Watch #Wearable \u2013 Apple Watch: Why its time has come at last \u2013 One of the\u2026 http://t.co/uqSnCNBOVM #Apple #iWatch #AppleWatch #apps #iOS
p21
aVWhy its time has come at last: Apple Watch http://t.co/jIeWdUBZVA #Apple #iWatch #AppleWatch #apps #iOS
p22
aV#Watch #Wearable \u2013 Apple Watch: Why its time has come\u2026 http://t.co/0gVwlVYkIQ #Apple #iWatch #AppleWatch #apps #iOS http://t.co/kZjXRq42my
p23
aV#Watch #Wearable \u2013 Apple Watch: Why its time has come\u2026 http://t.co/8IWWIeCYKO #Apple #iWatch #AppleWatch #apps #iOS http://t.co/Q9Vnv2JUtE
p24
aV#Watch #Wearable \u2013 Apple Watch: Why its time has come at last \u2013 One of the\u2026 http://t.co/BoepNgigYY #Apple #iWatch #AppleWatch #apps #iOS
p25
aV#Watch #Wearable \u2013 Apple Watch: Why its time has come at last \u2013 One of the\u2026 http://t.co/ZxS7z3HaWv #Apple #iWatch #AppleWatch #apps #iOS
p26
aV#Watch #Wearable \u2013 Apple Watch: Why its time has come at last \u2013 One of the\u2026 http://t.co/a8alSdqGAl #Apple #iWatch #AppleWatch #apps #iOS
p27
aV#Watch #Wearable \u2013 Apple Watch: Why its time has come\u2026 http://t.co/dbUCKg3O6P #Apple #iWatch #AppleWatch #apps #iOS http://t.co/g9QHQKYaLY
p28
aV#Watch #Wearable \u2013 Apple Watch: Why its time has come\u2026 http://t.co/mBBU4zOEYc #Apple #iWatch #AppleWatch #apps #iOS http://t.co/pJBtGgrJ5Y
p29
aV#Watch #Wearable \u2013 Apple Watch: Why its time has come at last \u2013 One of the\u2026 http://t.co/sGJtjw2UMG #Apple #iWatch #AppleWatch #apps #iOS
p30
aV#Watch #Wearable \u2013 Apple Watch: Why its time has come at last \u2013 One of the\u2026 http://t.co/MTf7xrLOha #Apple #iWatch #AppleWatch #apps #iOS
p31
aV#Watch #Wearable \u2013 Apple Watch: Why its time has come\u2026 http://t.co/MiqEkOfqXe #Apple #iWatch #AppleWatch #apps #iOS http://t.co/PXLl79fqsd
p32
aV#Watch #Wearable \u2013 Apple Watch: Why its time has come at last \u2013 One of the\u2026 http://t.co/74niI2z3Rf #Apple #iWatch #AppleWatch #apps #iOS
p33
aV#Watch #Wearable \u2013 Apple Watch: Why its time has come\u2026 http://t.co/EP0Cz1MKLg #Apple #iWatch #AppleWatch #apps #iOS http://t.co/O4pPGKq6nr
p34
aV#Watch #Wearable \u2013 Apple Watch: Why its time has come\u2026 http://t.co/qSv3Bnzr8H #Apple #iWatch #AppleWatch #apps #iOS http://t.co/hi9hFtbusD
p35
aV#Watch #Wearable \u2013 Apple Watch: Why its time has come\u2026 http://t.co/xUqVYPjrGv #Apple #iWatch #AppleWatch #apps #iOS http://t.co/1apoRA9ULh
p36
aV#Watch #Wearable \u2013 Apple Watch: Why its time has come\u2026 http://t.co/QwsFLelBku #Apple #iWatch #AppleWatch #apps #iOS http://t.co/26vM6xqCON
p37
aV#Watch #Wearable \u2013 Apple Watch: Why its time has come at last \u2013 One of the\u2026 http://t.co/2rDTRzdYrn #Apple #iWatch #AppleWatch #apps #iOS
p38
aV#Watch #Wearable \u2013 Apple Watch: Why its time has come\u2026 http://t.co/bjCtHxPEFm #Apple #iWatch #AppleWatch #apps #iOS http://t.co/pLWB1n0iYm
p39
aV#Watch #Wearable \u2013 Apple Watch: Why its time has come\u2026 http://t.co/fBfmbKHQNC #Apple #iWatch #AppleWatch #apps #iOS http://t.co/2jvxlYZ489
p40
aV#Watch #Wearable \u2013 Apple Watch: Why its time has come\u2026 http://t.co/rJ9dPlN4ur #Apple #iWatch #AppleWatch #apps #iOS http://t.co/LHv1XMpgz8
p41
aV#Watch #Wearable \u2013 Apple Watch: Why its time has come\u2026 http://t.co/d6I41JTqEc #Apple #iWatch #AppleWatch #apps #iOS http://t.co/Afr6xNqY2B
p42
aV#Watch #Wearable \u2013 Apple Watch: Why its time has come\u2026 http://t.co/ouZTq20ASR #Apple #iWatch #AppleWatch #apps #iOS http://t.co/7StG45oLnJ
p43
aV#Watch #Wearable \u2013 Apple Watch: Why its time has come\u2026 http://t.co/k8MHUvI4hK #Apple #iWatch #AppleWatch #apps #iOS http://t.co/lHJbYa91DD
p44
aV#Watch #Wearable \u2013 Apple Watch: Why its time has come\u2026 http://t.co/FTPnjxMdOm #Apple #iWatch #AppleWatch #apps #iOS http://t.co/d3KdfEYQ1a
p45
aV#Watch #Wearable \u2013 Apple Watch: Why its time has come at last \u2013 One of the\u2026 http://t.co/mBBU4zOEYc #Apple #iWatch #AppleWatch #apps #iOS
p46
aV#Watch #Wearable \u2013 Apple Watch: Why its time has come\u2026 http://t.co/7kpXzXV5D9 #Apple #iWatch #AppleWatch #apps #iOS http://t.co/K6QSKpIMkD
p47
aV#Watch #Wearable \u2013 Apple Watch: Why its time has come\u2026 http://t.co/Uj6UFq1us0 #Apple #iWatch #AppleWatch #apps #iOS http://t.co/QeISDwebr4
p48
aV#Watch #Wearable \u2013 Apple Watch: Why its time has come\u2026 http://t.co/4Oa4l87XUR #Apple #iWatch #AppleWatch #apps #iOS http://t.co/KVBy6VnCXo
p49
aV#Watch #Wearable \u2013 Apple Watch: Why its time has come at last \u2013 One of the\u2026 http://t.co/sWUy3PQzbu #Apple #iWatch #AppleWatch #apps #iOS
p50
aV#Watch #Wearable \u2013 Apple Watch: Why its time has come\u2026 http://t.co/xfunCxg8aU #Apple #iWatch #AppleWatch #apps #iOS http://t.co/9x9DZvZE3q
p51
aV#Watch #Wearable \u2013 Apple Watch: Why its time has come\u2026 http://t.co/qc964KEGrn #Apple #iWatch #AppleWatch #apps #iOS http://t.co/etunKCFAAJ
p52
aV#Watch #Wearable \u2013 Apple Watch: Why its time has come at last \u2013 One of the\u2026 http://t.co/HpeE8qhojo #Apple #iWatch #AppleWatch #apps #iOS
p53
aV#Watch #Wearable \u2013 Apple Watch: Why its time has come\u2026 http://t.co/6IWZqjoPYC #Apple #iWatch #AppleWatch #apps #iOS http://t.co/QPlgmISmKh
p54
aV#Watch #Wearable \u2013 Apple Watch: Why its time has come at last \u2013 One of the\u2026 http://t.co/8pNGuIqEyv #Apple #iWatch #AppleWatch #apps #iOS
p55
aV#Watch #Wearable \u2013 Apple Watch: Why its time has come at last \u2013 One of the\u2026 http://t.co/xSsCMy9OYJ #Apple #iWatch #AppleWatch #apps #iOS
p56
aV#Watch #Wearable \u2013 Apple Watch: Why its time has come\u2026 http://t.co/BCpN4LbZue #Apple #iWatch #AppleWatch #apps #iOS http://t.co/65Vx0uKnD2
p57
aV#Watch #Wearable \u2013 Apple Watch: Why its time has come\u2026 http://t.co/dUXN0hNAwi #Apple #iWatch #AppleWatch #apps #iOS http://t.co/Yg8bOlY3E9
p58
aV#Watch #Wearable \u2013 Apple Watch: Why its time has come\u2026 http://t.co/Zr40O2qn4l #Apple #iWatch #AppleWatch #apps #iOS http://t.co/yAje4F5Tgq
p59
aV#Watch #Wearable \u2013 Apple Watch: Why its time has come\u2026 http://t.co/9Z65zflCYd #Apple #iWatch #AppleWatch #apps #iOS http://t.co/AyarljcqIl
p60
aV#Watch #Wearable \u2013 Apple Watch: Why its time has come at last \u2013 One of the\u2026 http://t.co/SdhPWyDogM #Apple #iWatch #AppleWatch #apps #iOS
p61
aV#Watch #Wearable \u2013 Apple Watch: Why its time has come\u2026 http://t.co/t24aoANQgx #Apple #iWatch #AppleWatch #apps #iOS http://t.co/Sp4ibsOIMN
p62
aV#Watch #Wearable \u2013 Apple Watch: Why its time has come\u2026 http://t.co/QaHZKoH8a7 #Apple #iWatch #AppleWatch #apps #iOS http://t.co/WsGo9SWAzN
p63
aV#Watch #Wearable \u2013 Apple Watch: Why its time has come\u2026 http://t.co/74niI2z3Rf #Apple #iWatch #AppleWatch #apps #iOS http://t.co/g0Ix89W4zv
p64
aV#Watch #Wearable \u2013 Apple Watch: Why its time has come\u2026 http://t.co/uqSnCNBOVM #Apple #iWatch #AppleWatch #apps #iOS http://t.co/2NGQSY0pzU
p65
aV#Watch #Wearable \u2013 Apple Watch: Why its time has come\u2026 http://t.co/SIXkCnyjMX #Apple #iWatch #AppleWatch #apps #iOS http://t.co/8lZ2uO23YM
p66
aV#Watch #Wearable \u2013 Apple Watch: Why its time has come\u2026 http://t.co/k5ZqBzDVt7 #Apple #iWatch #AppleWatch #apps #iOS http://t.co/NArxcwtMoM
p67
aV#Watch #Wearable \u2013 Apple Watch: Why its time has come at last \u2013 One of the\u2026 http://t.co/wciydHD9QZ #Apple #iWatch #AppleWatch #apps #iOS
p68
aV#Watch #Wearable \u2013 Apple Watch: Why its time has come\u2026 http://t.co/QNVZgk6C4l #Apple #iWatch #AppleWatch #apps #iOS http://t.co/DyEnwpdycY
p69
aV#Watch #Wearable \u2013 Apple Watch: Why its time has come\u2026 http://t.co/MqWdQ457qH #Apple #iWatch #AppleWatch #apps #iOS http://t.co/Q7ANKrlX62
p70
aV#Watch #Wearable \u2013 Apple Watch: Why its time has come\u2026 http://t.co/pa8O5CHE6M #Apple #iWatch #AppleWatch #apps #iOS http://t.co/Z4SZw3WHoi
p71
aV#Watch #Wearable \u2013 Apple Watch: Why its time has come\u2026 http://t.co/zqiyt2piMe #Apple #iWatch #AppleWatch #apps #iOS http://t.co/to089WkOdt
p72
aV#Watch #Wearable \u2013 Apple Watch: Why its time has come\u2026 http://t.co/IFJ7oqHd9x #Apple #iWatch #AppleWatch #apps #iOS http://t.co/qA4vk35mq8
p73
aV#Watch #Wearable \u2013 Apple Watch: Why its time has come\u2026 http://t.co/sGJtjw2UMG #Apple #iWatch #AppleWatch #apps #iOS http://t.co/YJ6k6gr0PX
p74
aV#Watch #Wearable \u2013 Apple Watch: Why its time has come\u2026 http://t.co/2rDTRzdYrn #Apple #iWatch #AppleWatch #apps #iOS http://t.co/cW9g66doIx
p75
aV#Watch #Wearable \u2013 Apple Watch: Why its time has come\u2026 http://t.co/th0er3i1fv #Apple #iWatch #AppleWatch #apps #iOS http://t.co/KVtxtVTl6q
p76
aV#Watch #Wearable \u2013 Apple Watch: Why its time has come\u2026 http://t.co/wxZxPqLuga #Apple #iWatch #AppleWatch #apps #iOS http://t.co/7F6Q549Jf9
p77
aV#Watch #Wearable \u2013 Apple Watch: Why its time has come\u2026 http://t.co/ZxS7z3HaWv #Apple #iWatch #AppleWatch #apps #iOS http://t.co/dwnGdCLAx3
p78
aV#Watch #Wearable \u2013 Apple Watch: Why its time has come\u2026 http://t.co/MTf7xrLOha #Apple #iWatch #AppleWatch #apps #iOS http://t.co/wetn0TwyjP
p79
aV#Watch #Wearable \u2013 Apple Watch: Why its time has come\u2026 http://t.co/kgwtxB2kxS #Apple #iWatch #AppleWatch #apps #iOS http://t.co/y5XtvyJSoL
p80
aV#Watch #Wearable \u2013 Apple Watch: Why its time has come at last \u2013 One of the\u2026 http://t.co/rUvhnhuYih #Apple #iWatch #AppleWatch #apps #iOS
p81
aV#Watch #Wearable \u2013 Apple Watch: Why its time has come\u2026 http://t.co/2mQOHfphMw #Apple #iWatch #AppleWatch #apps #iOS http://t.co/VeT55GQcJL
p82
aV#Watch #Wearable \u2013 Apple Watch: Why its time has come\u2026 http://t.co/HpeE8pZMUO #Apple #iWatch #AppleWatch #apps #iOS http://t.co/YYdZUQRlxn
p83
aV#Watch #Wearable \u2013 Apple Watch: Why its time has come\u2026 http://t.co/sWUy3PQzbu #Apple #iWatch #AppleWatch #apps #iOS http://t.co/DKVotgtJX9
p84
aV#Watch #Wearable \u2013 Apple Watch: Why its time has come\u2026 http://t.co/8pNGuIqEyv #Apple #iWatch #AppleWatch #apps #iOS http://t.co/70Ow13NXkN
p85
aV#Watch #Wearable \u2013 Apple Watch: Why its time has come at last \u2013 One of the\u2026 http://t.co/kgwtxB2kxS #Apple #iWatch #AppleWatch #apps #iOS
p86
aV#Watch #Wearable \u2013 Apple Watch: Why its time has come at last \u2013 One of the\u2026 http://t.co/2mQOHfphMw #Apple #iWatch #AppleWatch #apps #iOS
p87
aV#Watch #Wearable \u2013 Apple Watch: Why its time has come\u2026 http://t.co/SdhPWyDogM #Apple #iWatch #AppleWatch #apps #iOS http://t.co/vbDpYGMSNH
p88
aV#Watch #Wearable \u2013 Apple Watch: Why its time has come at last \u2013 One of the\u2026 http://t.co/1WpLaiGgsw #Apple #iWatch #AppleWatch #apps #iOS
p89
aV#Watch #Wearable \u2013 Apple Watch: Why its time has come\u2026 http://t.co/0lktHpkeMF #Apple #iWatch #AppleWatch #apps #iOS http://t.co/yZ8xbXeded
p90
aV#Watch #Wearable \u2013 Apple Watch: Why its time has come at last \u2013 One of the\u2026 http://t.co/JfboWlHApe #Apple #iWatch #AppleWatch #apps #iOS
p91
aV#Watch #Wearable \u2013 Apple Watch: Why its time has come\u2026 http://t.co/wciydHD9QZ #Apple #iWatch #AppleWatch #apps #iOS http://t.co/PoYu0lcf20
p92
aV#Watch #Wearable \u2013 Apple Watch: Why its time has come at last \u2013 One of the\u2026 http://t.co/930B2qvy7C #Apple #iWatch #AppleWatch #apps #iOS
p93
aV#Watch #Wearable \u2013 Apple Watch: Why its time has come\u2026 http://t.co/xSsCMy9OYJ #Apple #iWatch #AppleWatch #apps #iOS http://t.co/3fAegOFsCA
p94
aV#Watch #Wearable \u2013 Apple Watch: Why its time has come\u2026 http://t.co/E7sYOUjUaC #Apple #iWatch #AppleWatch #apps #iOS http://t.co/Pi0Is32CRp
p95
aV#Watch #Wearable \u2013 Apple Watch: Why its time has come at last \u2013 One of the\u2026 http://t.co/Yao9UEIeEq #Apple #iWatch #AppleWatch #apps #iOS
p96
aV#Watch #Wearable \u2013 Apple Watch: Why its time has come\u2026 http://t.co/rUvhnhuYih #Apple #iWatch #AppleWatch #apps #iOS http://t.co/O3C2vEvy5b
p97
aV#Watch #Wearable \u2013 Apple Watch: Why its time has come at last \u2013 One of the\u2026 http://t.co/fFhyfnPqll #Apple #iWatch #AppleWatch #apps #iOS
p98
aV#Watch #Wearable \u2013 Apple Watch: Why its time has come at last \u2013 One of the\u2026 http://t.co/LcqHGAjWye #Apple #iWatch #AppleWatch #apps #iOS
p99
aV#Watch #Wearable \u2013 Apple Watch: Why its time has come\u2026 http://t.co/BoepNgigYY #Apple #iWatch #AppleWatch #apps #iOS http://t.co/T3bbqblspz
p100
a.