(lp0
V#Watch #Wearable \u2013 Apple Watch: Why its time has come at last \u2013 One of the\u2026 http://t.co/JoG1gBunY4 #Apple #iWatch #AppleWatch #apps #iOS
p1
aV#Watch #Wearable \u2013 Apple Watch: Why its time has come at last \u2013 One of the\u2026 http://t.co/vra3DYZLqs #Apple #iWatch #AppleWatch #apps #iOS
p2
aV#Watch #Wearable \u2013 Apple Watch: Why its time has come at last \u2013 One of the\u2026 http://t.co/CTFCDktdtK #Apple #iWatch #AppleWatch #apps #iOS
p3
aV#Watch #Wearable \u2013 Apple Watch: Why its time has come at last \u2013 One of the\u2026 http://t.co/CsRUWDUiZz #Apple #iWatch #AppleWatch #apps #iOS
p4
aV#Watch #Wearable \u2013 Apple Watch: Why its time has come at last \u2013 One of the\u2026 http://t.co/CfSilShuU6 #Apple #iWatch #AppleWatch #apps #iOS
p5
aV#Watch #Wearable \u2013 Apple Watch: Why its time has come at last \u2013 One of the\u2026 http://t.co/rSOfR993x9 #Apple #iWatch #AppleWatch #apps #iOS
p6
aV#Watch #Wearable \u2013 Apple Watch: Why its time has come at last \u2013 One of the\u2026 http://t.co/8IWWIeCYKO #Apple #iWatch #AppleWatch #apps #iOS
p7
aV#Watch #Wearable \u2013 Apple Watch: Why its time has come\u2026 http://t.co/Pwpx5ZnWFc #Apple #iWatch #AppleWatch #apps #iOS http://t.co/cffcAH9Td8
p8
aV#Watch #Wearable \u2013 Apple Watch: Why its time has come at last \u2013 One of the\u2026 http://t.co/mHLstFrmqV #Apple #iWatch #AppleWatch #apps #iOS
p9
aV#Watch #Wearable \u2013 Apple Watch: Why its time has come at last \u2013 One of the\u2026 http://t.co/OiCwDlWymw #Apple #iWatch #AppleWatch #apps #iOS
p10
aV#Watch #Wearable \u2013 Apple Watch: Why its time has come at last \u2013 One of the\u2026 http://t.co/ACLxj4JvLH #Apple #iWatch #AppleWatch #apps #iOS
p11
aV#Watch #Wearable \u2013 Apple Watch: Why its time has come at last \u2013 One of the\u2026 http://t.co/Q1tegBySLQ #Apple #iWatch #AppleWatch #apps #iOS
p12
aV#Watch #Wearable \u2013 Apple Watch: Why its time has come at last \u2013 One of the\u2026 http://t.co/teaoiPju8P #Apple #iWatch #AppleWatch #apps #iOS
p13
aV#Watch #Wearable \u2013 Apple Watch: Why its time has come at last \u2013 One of the\u2026 http://t.co/2gilGdDHM4 #Apple #iWatch #AppleWatch #apps #iOS
p14
aVFirst Exclusive Game for #AppleWatch Revealed http://t.co/suygkpfIwP
p15
aV#Watch #Wearable \u2013 Apple Watch: Why its time has come at last \u2013 One of the\u2026 http://t.co/b8DY1skLAR #Apple #iWatch #AppleWatch #apps #iOS
p16
aVWhy its time has come at last: Apple Watch http://t.co/KQrwGtBPY2 #Apple #iWatch #AppleWatch #apps #iOS http://t.co/xXpnMqdEQC
p17
aV#Watch #Wearable \u2013 Apple Watch: Why its time has come at last \u2013 One of the\u2026 http://t.co/yZWkIyY5mB #Apple #iWatch #AppleWatch #apps #iOS
p18
aVWhy its time has come at last: Apple Watch http://t.co/5asPwO7Bau #Apple #iWatch #AppleWatch #apps #iOS http://t.co/spTfhNs2Lm
p19
aV#Watch #Wearable \u2013 Apple Watch: Why its time has come at last \u2013 One of the\u2026 http://t.co/hhK4la4t1I #Apple #iWatch #AppleWatch #apps #iOS
p20
aV#Watch #Wearable \u2013 Apple Watch: Why its time has come at last \u2013 One of the\u2026 http://t.co/k8MHUvI4hK #Apple #iWatch #AppleWatch #apps #iOS
p21
aV#Watch #Wearable \u2013 Apple Watch: Why its time has come\u2026 http://t.co/qsxr9jmt8d #Apple #iWatch #AppleWatch #apps #iOS http://t.co/UOvUPPQGzo
p22
aV#Watch #Wearable \u2013 Apple Watch: Why its time has come at last \u2013 One of the\u2026 http://t.co/8OHSRWPAK0 #Apple #iWatch #AppleWatch #apps #iOS
p23
aV#Watch #Wearable \u2013 Apple Watch: Why its time has come at last \u2013 One of the\u2026 http://t.co/MtzzThV91m #Apple #iWatch #AppleWatch #apps #iOS
p24
aVWhy its time has come at last: Apple Watch http://t.co/E4swBhllG0 #Apple #iWatch #AppleWatch #apps #iOS http://t.co/K4XxlAhvVz
p25
aV#Watch #Wearable \u2013 Apple Watch: Why its time has come at last \u2013 One of the\u2026 http://t.co/th0er3i1fv #Apple #iWatch #AppleWatch #apps #iOS
p26
aV#Watch #Wearable \u2013 Apple Watch: Why its time has come at last \u2013 One of the\u2026 http://t.co/xfunCxg8aU #Apple #iWatch #AppleWatch #apps #iOS
p27
aV#Watch #Wearable \u2013 Apple Watch: Why its time has come at last \u2013 One of the\u2026 http://t.co/dyDs4FW7wF #Apple #iWatch #AppleWatch #apps #iOS
p28
aV#Watch #Wearable \u2013 Apple Watch: Why its time has come\u2026 http://t.co/Wf5aX6O9Yz #Apple #iWatch #AppleWatch #apps #iOS http://t.co/SMOhzYYVnB
p29
aVWhy its time has come at last: Apple Watch http://t.co/HKZJnav498 #Apple #iWatch #AppleWatch #apps #iOS
p30
aV#Watch #Wearable \u2013 Apple Watch: Why its time has come at last \u2013 One of the\u2026 http://t.co/PnW6rzPMEj #Apple #iWatch #AppleWatch #apps #iOS
p31
aV#Watch #Wearable \u2013 Apple Watch: Why its time has come\u2026 http://t.co/Z8Z5SdjJge #Apple #iWatch #AppleWatch #apps #iOS http://t.co/osnxV3IzPt
p32
aV#Watch #Wearable \u2013 Apple Watch: Why its time has come at last \u2013 One of the\u2026 http://t.co/FTPnjxMdOm #Apple #iWatch #AppleWatch #apps #iOS
p33
aV#Watch #Wearable \u2013 Apple Watch: Why its time has come at last \u2013 One of the\u2026 http://t.co/11SanqTLkE #Apple #iWatch #AppleWatch #apps #iOS
p34
aV#Watch #Wearable \u2013 Apple Watch: Why its time has come at last \u2013 One of the\u2026 http://t.co/nXayiPCOzc #Apple #iWatch #AppleWatch #apps #iOS
p35
aV#Watch #Wearable \u2013 Apple Watch: Why its time has come at last \u2013 One of the\u2026 http://t.co/IFJ7oqHd9x #Apple #iWatch #AppleWatch #apps #iOS
p36
aVWhy its time has come at last: Apple Watch http://t.co/7XlHUnXKGn #Apple #iWatch #AppleWatch #apps #iOS http://t.co/ZG9cudC4vf
p37
aV#Watch #Wearable \u2013 Apple Watch: Why its time has come at last \u2013 One of the\u2026 http://t.co/7kpXzXV5D9 #Apple #iWatch #AppleWatch #apps #iOS
p38
aVWhy its time has come at last: Apple Watch http://t.co/KQrwGtBPY2 #Apple #iWatch #AppleWatch #apps #iOS
p39
aVWhy its time has come at last: Apple Watch http://t.co/63ISaSYOFs #Apple #iWatch #AppleWatch #apps #iOS
p40
aVWhy its time has come at last: Apple Watch http://t.co/5asPwO7Bau #Apple #iWatch #AppleWatch #apps #iOS
p41
aVWhy its time has come at last: Apple Watch http://t.co/E4swBhllG0 #Apple #iWatch #AppleWatch #apps #iOS
p42
aV#Watch #Wearable \u2013 Apple Watch: Why its time has come\u2026 http://t.co/mFA2M8W35M #Apple #iWatch #AppleWatch #apps #iOS http://t.co/Kg2umfjgF3
p43
aV#Watch #Wearable \u2013 Apple Watch: Why its time has come at last \u2013 One of the\u2026 http://t.co/EP0Cz1MKLg #Apple #iWatch #AppleWatch #apps #iOS
p44
aV#Watch #Wearable \u2013 Apple Watch: Why its time has come at last \u2013 One of the\u2026 http://t.co/Z8Z5SdjJge #Apple #iWatch #AppleWatch #apps #iOS
p45
aV#Watch #Wearable \u2013 Apple Watch: Why its time has come\u2026 http://t.co/n1pkLkHDWc #Apple #iWatch #AppleWatch #apps #iOS http://t.co/iUZPe4RDCK
p46
aV#Watch #Wearable \u2013 Apple Watch: Why its time has come at last \u2013 One of the\u2026 http://t.co/MiqEkOfqXe #Apple #iWatch #AppleWatch #apps #iOS
p47
aV#Watch #Wearable \u2013 Apple Watch: Why its time has come\u2026 http://t.co/yRp9ihO3Jg #Apple #iWatch #AppleWatch #apps #iOS http://t.co/BNejag5KGG
p48
aV#Watch #Wearable \u2013 Apple Watch: Why its time has come at last \u2013 One of the\u2026 http://t.co/4Oa4l87XUR #Apple #iWatch #AppleWatch #apps #iOS
p49
aV#Watch #Wearable \u2013 Apple Watch: Why its time has come at last \u2013 One of the\u2026 http://t.co/rXCemszQFa #Apple #iWatch #AppleWatch #apps #iOS
p50
aV#Watch #Wearable \u2013 Apple Watch: Why its time has come\u2026 http://t.co/JG1kRptnlC #Apple #iWatch #AppleWatch #apps #iOS http://t.co/e5AKG9scSr
p51
aVWhy its time has come at last: Apple Watch http://t.co/7XlHUnXKGn #Apple #iWatch #AppleWatch #apps #iOS
p52
aV#Watch #Wearable \u2013 Apple Watch: Why its time has come\u2026 http://t.co/f4jkn5oUyG #Apple #iWatch #AppleWatch #apps #iOS http://t.co/Eq3pyXd1pr
p53
aV#Watch #Wearable \u2013 Apple Watch: Why its time has come at last \u2013 One of the\u2026 http://t.co/qSv3Bnzr8H #Apple #iWatch #AppleWatch #apps #iOS
p54
aV#Watch #Wearable \u2013 Apple Watch: Why its time has come\u2026 http://t.co/R5DV621Hlo #Apple #iWatch #AppleWatch #apps #iOS http://t.co/mZa6GMg5O1
p55
aV#Watch #Wearable \u2013 Apple Watch: Why its time has come\u2026 http://t.co/CfSilShuU6 #Apple #iWatch #AppleWatch #apps #iOS http://t.co/7Z1m9vZyh8
p56
aV#Watch #Wearable \u2013 Apple Watch: Why its time has come at last \u2013 One of the\u2026 http://t.co/9Z65zflCYd #Apple #iWatch #AppleWatch #apps #iOS
p57
aV#Watch #Wearable \u2013 Apple Watch: Why its time has come\u2026 http://t.co/rSOfR993x9 #Apple #iWatch #AppleWatch #apps #iOS http://t.co/K2j5h0tmJ3
p58
aV#Watch #Wearable \u2013 Apple Watch: Why its time has come at last \u2013 One of the\u2026 http://t.co/lKTbfTIUUe #Apple #iWatch #AppleWatch #apps #iOS
p59
aV#Watch #Wearable \u2013 Apple Watch: Why its time has come\u2026 http://t.co/vra3DYZLqs #Apple #iWatch #AppleWatch #apps #iOS http://t.co/r1iYbMXrpA
p60
aV#Watch #Wearable \u2013 Apple Watch: Why its time has come at last \u2013 One of the\u2026 http://t.co/d6I41JTqEc #Apple #iWatch #AppleWatch #apps #iOS
p61
aV#Watch #Wearable \u2013 Apple Watch: Why its time has come\u2026 http://t.co/CTFCDktdtK #Apple #iWatch #AppleWatch #apps #iOS http://t.co/fTtbSV0vtI
p62
aV#Watch #Wearable \u2013 Apple Watch: Why its time has come at last \u2013 One of the\u2026 http://t.co/bjCtHxPEFm #Apple #iWatch #AppleWatch #apps #iOS
p63
aV#Watch #Wearable \u2013 Apple Watch: Why its time has come\u2026 http://t.co/COk6OFDWNt #Apple #iWatch #AppleWatch #apps #iOS http://t.co/LN4Kku44VX
p64
aV#Watch #Wearable \u2013 Apple Watch: Why its time has come at last \u2013 One of the\u2026 http://t.co/0gVwlVYkIQ #Apple #iWatch #AppleWatch #apps #iOS
p65
aV#Watch #Wearable \u2013 Apple Watch: Why its time has come\u2026 http://t.co/yZWkIyY5mB #Apple #iWatch #AppleWatch #apps #iOS http://t.co/6WKiCjTeW8
p66
aV#Watch #Wearable \u2013 Apple Watch: Why its time has come at last \u2013 One of the\u2026 http://t.co/mFA2M8W35M #Apple #iWatch #AppleWatch #apps #iOS
p67
aV#Watch #Wearable \u2013 Apple Watch: Why its time has come at last \u2013 One of the\u2026 http://t.co/E7sYOUjUaC #Apple #iWatch #AppleWatch #apps #iOS
p68
aV#Watch #Wearable \u2013 Apple Watch: Why its time has come\u2026 http://t.co/2gilGdDHM4 #Apple #iWatch #AppleWatch #apps #iOS http://t.co/8dMGaDm6i7
p69
aV#Watch #Wearable \u2013 Apple Watch: Why its time has come at last \u2013 One of the\u2026 http://t.co/pa8O5CHE6M #Apple #iWatch #AppleWatch #apps #iOS
p70
aV#Watch #Wearable \u2013 Apple Watch: Why its time has come at last \u2013 One of the\u2026 http://t.co/rJ9dPlN4ur #Apple #iWatch #AppleWatch #apps #iOS
p71
aV#Watch #Wearable \u2013 Apple Watch: Why its time has come at last \u2013 One of the\u2026 http://t.co/xUqVYPjrGv #Apple #iWatch #AppleWatch #apps #iOS
p72
aV#Watch #Wearable \u2013 Apple Watch: Why its time has come at last \u2013 One of the\u2026 http://t.co/0lktHpkeMF #Apple #iWatch #AppleWatch #apps #iOS
p73
aV#Watch #Wearable \u2013 Apple Watch: Why its time has come\u2026 http://t.co/teaoiPju8P #Apple #iWatch #AppleWatch #apps #iOS http://t.co/56hoF7PaGu
p74
aVWhy its time has come at last: Apple Watch http://t.co/9dcLmX74U7 #Apple #iWatch #AppleWatch #apps #iOS http://t.co/FFnIpN5Akn
p75
aV#Watch #Wearable \u2013 Apple Watch: Why its time has come at last \u2013 One of the\u2026 http://t.co/6IWZqjoPYC #Apple #iWatch #AppleWatch #apps #iOS
p76
aV#Watch #Wearable \u2013 Apple Watch: Why its time has come\u2026 http://t.co/YnLgyPqPe5 #Apple #iWatch #AppleWatch #apps #iOS http://t.co/pqFZmWBRh5
p77
aV#Watch #Wearable \u2013 Apple Watch: Why its time has come at last \u2013 One of the\u2026 http://t.co/fBfmbKHQNC #Apple #iWatch #AppleWatch #apps #iOS
p78
aV#Watch #Wearable \u2013 Apple Watch: Why its time has come\u2026 http://t.co/toBzOFtSvC #Apple #iWatch #AppleWatch #apps #iOS http://t.co/37zojJjuXB
p79
aV#Watch #Wearable \u2013 Apple Watch: Why its time has come at last \u2013 One of the\u2026 http://t.co/ouZTq20ASR #Apple #iWatch #AppleWatch #apps #iOS
p80
aV#Watch #Wearable \u2013 Apple Watch: Why its time has come at last \u2013 One of the\u2026 http://t.co/Uj6UFq1us0 #Apple #iWatch #AppleWatch #apps #iOS
p81
aV#Watch #Wearable \u2013 Apple Watch: Why its time has come\u2026 http://t.co/CsRUWDUiZz #Apple #iWatch #AppleWatch #apps #iOS http://t.co/E9oM1QFzPt
p82
aV#Watch #Wearable \u2013 Apple Watch: Why its time has come at last \u2013 One of the\u2026 http://t.co/QwsFLelBku #Apple #iWatch #AppleWatch #apps #iOS
p83
aV#Watch #Wearable \u2013 Apple Watch: Why its time has come at last \u2013 One of the\u2026 http://t.co/yM1jXoroKP #Apple #iWatch #AppleWatch #apps #iOS
p84
aV#Watch #Wearable \u2013 Apple Watch: Why its time has come\u2026 http://t.co/JoG1gBunY4 #Apple #iWatch #AppleWatch #apps #iOS http://t.co/r9zK4wL5Jj
p85
aV#Watch #Wearable \u2013 Apple Watch: Why its time has come\u2026 http://t.co/mHLstFrmqV #Apple #iWatch #AppleWatch #apps #iOS http://t.co/reOMEeBFhj
p86
aV#Watch #Wearable \u2013 Apple Watch: Why its time has come at last \u2013 One of the\u2026 http://t.co/xkEbdeqTZU #Apple #iWatch #AppleWatch #apps #iOS
p87
aVWhy its time has come at last: Apple Watch http://t.co/9dcLmX74U7 #Apple #iWatch #AppleWatch #apps #iOS
p88
aV#Watch #Wearable \u2013 Apple Watch: Why its time has come\u2026 http://t.co/Q1tegBySLQ #Apple #iWatch #AppleWatch #apps #iOS http://t.co/qC4khHigDL
p89
aV#Watch #Wearable \u2013 Apple Watch: Why its time has come at last \u2013 One of the\u2026 http://t.co/n1pkLkHDWc #Apple #iWatch #AppleWatch #apps #iOS
p90
aV#Watch #Wearable \u2013 Apple Watch: Why its time has come\u2026 http://t.co/264aHtcvcq #Apple #iWatch #AppleWatch #apps #iOS http://t.co/xbzm6oJdEC
p91
aV#Watch #Wearable \u2013 Apple Watch: Why its time has come at last \u2013 One of the\u2026 http://t.co/qc964KEGrn #Apple #iWatch #AppleWatch #apps #iOS
p92
aV#Watch #Wearable \u2013 Apple Watch: Why its time has come\u2026 http://t.co/b8DY1skLAR #Apple #iWatch #AppleWatch #apps #iOS http://t.co/bWHNd0362b
p93
aV#Watch #Wearable \u2013 Apple Watch: Why its time has come at last \u2013 One of the\u2026 http://t.co/wxZxPqLuga #Apple #iWatch #AppleWatch #apps #iOS
p94
aV#Watch #Wearable \u2013 Apple Watch: Why its time has come at last \u2013 One of the\u2026 http://t.co/toBzOFtSvC #Apple #iWatch #AppleWatch #apps #iOS
p95
aVWhy its time has come at last: Apple Watch http://t.co/63ISaSYOFs #Apple #iWatch #AppleWatch #apps #iOS http://t.co/Otm4T1ahES
p96
aV#Watch #Wearable \u2013 Apple Watch: Why its time has come\u2026 http://t.co/8OHSRWPAK0 #Apple #iWatch #AppleWatch #apps #iOS http://t.co/IDowMD9Nqe
p97
aV#Watch #Wearable \u2013 Apple Watch: Why its time has come\u2026 http://t.co/ACLxj517ah #Apple #iWatch #AppleWatch #apps #iOS http://t.co/fmlCitovWT
p98
aVWhy its time has come at last: Apple Watch http://t.co/oK78OeTEmi #Apple #iWatch #AppleWatch #apps #iOS
p99
aV#Watch #Wearable \u2013 Apple Watch: Why its time has come\u2026 http://t.co/OiCwDlWymw #Apple #iWatch #AppleWatch #apps #iOS http://t.co/H9qRRL5yyb
p100
a.