(lp0
VHow Apple Watch could reshape journalism http://t.co/5jrY4QXMev #iWatch #AppleWatch #applewatch #glancejournalism
p1
aV#AppleWatch #iOS \u2013 How Apple Watch could reshape journalism : With the Apple Watch expected to\u2026 http://t.co/KLkIDxcYiB #iWatch #AppleWatch
p2
aVRT @Duuzra: Love this #Retro #Parody of the #AppleWatch http://t.co/940irNWZFU http://t.co/xOsoUkSK6z
p3
aV#AppleWatch #iOS \u2013 How Apple Watch could\u2026 http://t.co/LWerUzL6tI #iWatch #AppleWatch #applewatch #glancejournalism http://t.co/pvoBEIYJOx
p4
aV#AppleWatch #iOS \u2013 How Apple Watch could reshape journalism :\u2026 http://t.co/oTq3xqyKVW #iWatch #AppleWatch #applewatch #glancejournalism
p5
aV#AppleWatch #iOS \u2013 How Apple Watch could reshape journalism :\u2026 http://t.co/qFjskkbUve #iWatch #AppleWatch #applewatch #glancejournalism
p6
aVHow Apple Watch could reshape journalism http://t.co/5jrY4QXMev #iWatch #AppleWatch #applewatch #glancejournalism http://t.co/FTDi98FrHl
p7
aV#AppleWatch #iOS \u2013 How Apple Watch could reshape journalism : With the\u2026 http://t.co/8gpRDqxJdq #iWatch #AppleWatch http://t.co/k8TQ0IbCi0
p8
aV#AppleWatch #iOS \u2013 How Apple Watch could reshape journalism :\u2026 http://t.co/JBlV3mgmO2 #iWatch #AppleWatch #applewatch #glancejournalism
p9
aV#AppleWatch #iOS \u2013 How Apple Watch could reshape journalism : With the\u2026 http://t.co/Q9FuGRzwva #iWatch #AppleWatch http://t.co/o9lUAfC04V
p10
aV#AppleWatch #iOS \u2013 How Apple Watch could\u2026 http://t.co/LWerUzL6tI #iWatch #AppleWatch #applewatch #glancejournalism http://t.co/aK2Vw71AsB
p11
aV#AppleWatch #iOS \u2013 How Apple Watch could reshape journalism : With the Apple Watch expected to\u2026 http://t.co/8gpRDqxJdq #iWatch #AppleWatch
p12
aVRT @tony_sheffler: Apple could be trillion $ company but #applewatch can't go 24 hours. @ericmigi what's your secret @Pebble #PebbleTime ht\u2026
p13
aV#AppleWatch #iOS \u2013 How Apple Watch could reshape journalism : With the\u2026 http://t.co/yL833j7fXW #iWatch #AppleWatch http://t.co/yL8AUhae7o
p14
aV#AppleWatch #iOS \u2013 How Apple Watch could reshape journalism : With the Apple Watch expected to\u2026 http://t.co/Fa6UWgVpoA #iWatch #AppleWatch
p15
aV#iPhone6s #iPhoneSeries \u2013 Next iPhone to feature stronger 7000\u2026 http://t.co/3lURbDWSjg #iPhone #7000series #aluminium #Apple #AppleWatch
p16
aV#AppleWatch #iOS \u2013 How Apple Watch could reshape journalism : With the\u2026 http://t.co/yiM9QT2YLF #iWatch #AppleWatch http://t.co/7uWXcXEMwa
p17
aV#AppleWatch #iOS \u2013 How Apple Watch could\u2026 http://t.co/IuhW8KPmNI #iWatch #AppleWatch #applewatch #glancejournalism http://t.co/KI3gJdinFu
p18
aV#AppleWatch #iOS \u2013 How Apple Watch could reshape journalism : With the\u2026 http://t.co/H5Hd6Q5HZ2 #iWatch #AppleWatch http://t.co/sSYHAuLIdx
p19
aV#AppleWatch #iOS \u2013 How Apple Watch could reshape journalism : With the Apple Watch expected to\u2026 http://t.co/yiM9QT2YLF #iWatch #AppleWatch
p20
aV#AppleWatch #iOS \u2013 How Apple Watch could reshape journalism : With the\u2026 http://t.co/4Tf5q1VJxu #iWatch #AppleWatch http://t.co/GWe4wbehXv
p21
aV#AppleWatch #iOS \u2013 How Apple Watch could\u2026 http://t.co/6V0YCb8ifA #iWatch #AppleWatch #applewatch #glancejournalism http://t.co/QBGLSvxFGs
p22
aV#AppleWatch #iOS \u2013 How Apple Watch could reshape journalism :\u2026 http://t.co/IuhW8KPmNI #iWatch #AppleWatch #applewatch #glancejournalism
p23
aV#AppleWatch #iOS \u2013 How Apple Watch could reshape journalism : With the Apple Watch expected to\u2026 http://t.co/i91U3CjHlM #iWatch #AppleWatch
p24
aV#AppleWatch #iOS \u2013 How Apple Watch could reshape journalism : With the Apple Watch expected to\u2026 http://t.co/H5Hd6Q5HZ2 #iWatch #AppleWatch
p25
aV#iPhone6s #iPhoneSeries \u2013 Next iPhone to\u2026 http://t.co/ySgXIUECyu #iPhone #7000series #aluminium #Apple #AppleWatch http://t.co/gk4WhuaT0j
p26
aV#AppleWatch #iOS \u2013 How Apple Watch could reshape journalism :\u2026 http://t.co/LWerUzL6tI #iWatch #AppleWatch #applewatch #glancejournalism
p27
aV#AppleWatch #iOS \u2013 How Apple Watch could reshape journalism : With the Apple Watch expected to\u2026 http://t.co/4Tf5q1VJxu #iWatch #AppleWatch
p28
aV#AppleWatch #iOS \u2013 How Apple Watch could reshape journalism : With the\u2026 http://t.co/wcmbVzpLkQ #iWatch #AppleWatch http://t.co/xp3mRuMaaP
p29
aVNext iPhone to feature stronger 7000\u2026 http://t.co/psre3MiDVL #iPhone #7000series #aluminium #Apple #AppleWatch http://t.co/5JAkvrvJGC
p30
aV#AppleWatch #iOS \u2013 How Apple Watch could reshape journalism : With the\u2026 http://t.co/L8UFU5aYR9 #iWatch #AppleWatch http://t.co/Q3M9BMbaEv
p31
aV#AppleWatch #iOS \u2013 How Apple Watch could reshape journalism :\u2026 http://t.co/6V0YCb8ifA #iWatch #AppleWatch #applewatch #glancejournalism
p32
aV#iPhone6s #iPhoneSeries \u2013 Next iPhone to feature stronger 7000\u2026 http://t.co/LXKYw5JUDb #iPhone #7000series #aluminium #Apple #AppleWatch
p33
aV#AppleWatch #iOS \u2013 How Apple Watch could reshape journalism : With the\u2026 http://t.co/5XONWysvZR #iWatch #AppleWatch http://t.co/tQuCY96XSD
p34
aVApplewatch\u898b\u3066\u304d\u305f\u3002\u8a66\u7740\u3082\u3057\u3066\u307f\u305f\u3002\u3044\u3061\u3070\u3093\u5b89\u3044\u306e\u3067\u7a0e\u8fbc52000\u5186\u304f\u3089\u3044\u304b\u3002\u3046\u30fc\u3093(\uff70 \uff70;)\u3001\u307e\u3060\u304b\u306a\u3042\u3002
p35
aV#AppleWatch #iOS \u2013 How Apple Watch could reshape journalism : With the\u2026 http://t.co/i91U3CjHlM #iWatch #AppleWatch http://t.co/MfBh8KVDR5
p36
aV#AppleWatch #iOS \u2013 How Apple Watch could reshape journalism : With the\u2026 http://t.co/TLEcFsrPHP #iWatch #AppleWatch http://t.co/XGS3Lf0RWe
p37
aV#AppleWatch #iOS \u2013 How Apple Watch could reshape journalism : With the Apple Watch expected to\u2026 http://t.co/L8UFU5aYR9 #iWatch #AppleWatch
p38
aV#AppleWatch #iOS \u2013 How Apple Watch could\u2026 http://t.co/ngdYvEIzre #iWatch #AppleWatch #applewatch #glancejournalism http://t.co/CAG8f4zJTn
p39
aV#AppleWatch #iOS \u2013 How Apple Watch could\u2026 http://t.co/pb1uVnp6wp #iWatch #AppleWatch #applewatch #glancejournalism http://t.co/Ul75XAzVtC
p40
aV#AppleWatch #iOS \u2013 How Apple Watch could reshape journalism : With the Apple Watch expected to\u2026 http://t.co/YbNqO24iQQ #iWatch #AppleWatch
p41
aV#AppleWatch #iOS \u2013 How Apple Watch could reshape journalism :\u2026 http://t.co/B7RNdUKYB7 #iWatch #AppleWatch #applewatch #glancejournalism
p42
aV#AppleWatch #iOS \u2013 How Apple Watch could reshape journalism :\u2026 http://t.co/ngdYvEIzre #iWatch #AppleWatch #applewatch #glancejournalism
p43
aV#AppleWatch #iOS \u2013 How Apple Watch could reshape journalism : With the\u2026 http://t.co/9R9BHL4YsV #iWatch #AppleWatch http://t.co/vWCsYOEo4J
p44
aV#AppleWatch #iOS \u2013 How Apple Watch could reshape journalism :\u2026 http://t.co/pb1uVnp6wp #iWatch #AppleWatch #applewatch #glancejournalism
p45
aV#AppleWatch #iOS \u2013 How Apple Watch could\u2026 http://t.co/B7RNdUKYB7 #iWatch #AppleWatch #applewatch #glancejournalism http://t.co/DGkS0dhfPY
p46
aV#AppleWatch #iOS \u2013 How Apple Watch could reshape journalism : With the\u2026 http://t.co/YbNqO24iQQ #iWatch #AppleWatch http://t.co/lei4ZvRCwf
p47
aV#AppleWatch #iOS \u2013 How Apple Watch could reshape journalism :\u2026 http://t.co/qdsXS7iJtO #iWatch #AppleWatch #applewatch #glancejournalism
p48
aV#AppleWatch #iOS \u2013 How Apple Watch could reshape journalism : With the\u2026 http://t.co/4CSyBQwZ2f #iWatch #AppleWatch http://t.co/wwy57vOQdB
p49
aVHow Apple Watch could reshape journalism http://t.co/isefyFYjqZ #iWatch #AppleWatch #applewatch #glancejournalism
p50
aV#AppleWatch #iOS \u2013 How Apple Watch could reshape journalism : With the\u2026 http://t.co/drLJIcgEHQ #iWatch #AppleWatch http://t.co/IfFjq9Elln
p51
aV#AppleWatch #iOS \u2013 How Apple Watch could reshape journalism : With the Apple Watch expected to\u2026 http://t.co/ZgPYGv6tKx #iWatch #AppleWatch
p52
aV#AppleWatch #iOS \u2013 How Apple Watch could reshape journalism : With the Apple Watch expected to\u2026 http://t.co/9R9BHL4YsV #iWatch #AppleWatch
p53
aV#AppleWatch #iOS \u2013 How Apple Watch could\u2026 http://t.co/qdsXS7iJtO #iWatch #AppleWatch #applewatch #glancejournalism http://t.co/vu1OiqJcTV
p54
aV#AppleWatch #iOS \u2013 How Apple Watch could reshape journalism : With the\u2026 http://t.co/ZgPYGv6tKx #iWatch #AppleWatch http://t.co/Xq1JZSIsK5
p55
aV#AppleWatch #iOS \u2013 How Apple Watch could reshape journalism : With the Apple Watch expected to\u2026 http://t.co/drLJIcgEHQ #iWatch #AppleWatch
p56
aV#AppleWatch #iOS \u2013 How Apple Watch could reshape journalism : With the\u2026 http://t.co/zyJn1MuKjS #iWatch #AppleWatch http://t.co/PfsZacw7XK
p57
aV#AppleWatch #iOS \u2013 How Apple Watch could\u2026 http://t.co/sq3CG9K0fv #iWatch #AppleWatch #applewatch #glancejournalism http://t.co/IMrxCqhDrc
p58
aV#AppleWatch #iOS \u2013 How Apple Watch could reshape journalism :\u2026 http://t.co/sq3CG9K0fv #iWatch #AppleWatch #applewatch #glancejournalism
p59
aV#AppleWatch #iOS \u2013 How Apple Watch could reshape journalism :\u2026 http://t.co/flGFQqQSfd #iWatch #AppleWatch #applewatch #glancejournalism
p60
aVRT byod_news: Find risk of sickness: Sickweather app for #AppleWatch http://t.co/C7xA0cChKG #DigitalHealth #mHealth http://t.co/L5d28MZukb
p61
aV#iPhone6s #iPhoneSeries \u2013 Next iPhone to\u2026 http://t.co/rASbU7ILPW #iPhone #7000series #aluminium #Apple #AppleWatch http://t.co/qp7zr9Na0a
p62
aV#AppleWatch #iOS \u2013 How Apple Watch could\u2026 http://t.co/flGFQqQSfd #iWatch #AppleWatch #applewatch #glancejournalism http://t.co/ohQl92cUUV
p63
aV#AppleWatch #iOS \u2013 How Apple Watch could reshape journalism : With the Apple Watch expected to\u2026 http://t.co/x5pO0ZtKLV #iWatch #AppleWatch
p64
aV#AppleWatch #iOS \u2013 How Apple Watch could reshape journalism : With the\u2026 http://t.co/mZUrBCzC21 #iWatch #AppleWatch http://t.co/KBW81V6ykI
p65
aV#AppleWatch #iOS \u2013 How Apple Watch could\u2026 http://t.co/OfF8qtKPP3 #iWatch #AppleWatch #applewatch #glancejournalism http://t.co/eYPWxQz6vn
p66
aV#iPhone6s #iPhoneSeries \u2013 Next iPhone to feature stronger 7000\u2026 http://t.co/FNNuHQntbj #iPhone #7000series #aluminium #Apple #AppleWatch
p67
aV#AppleWatch #iOS \u2013 How Apple Watch could reshape journalism :\u2026 http://t.co/zFyo8w6RO7 #iWatch #AppleWatch #applewatch #glancejournalism
p68
aVHow Apple Watch could reshape journalism http://t.co/isefyFYjqZ #iWatch #AppleWatch #applewatch #glancejournalism http://t.co/CZcCUP1cca
p69
aV#AppleWatch #iOS \u2013 How Apple Watch could reshape journalism : With the\u2026 http://t.co/dd6XCj3Yws #iWatch #AppleWatch http://t.co/g366YqSmg7
p70
aV#AppleWatch #iOS \u2013 How Apple Watch could reshape journalism : With the\u2026 http://t.co/uaDEL495y5 #iWatch #AppleWatch http://t.co/zFsKx1RmHP
p71
aV#AppleWatch #iOS \u2013 How Apple Watch could reshape journalism :\u2026 http://t.co/kwxXkszQCp #iWatch #AppleWatch #applewatch #glancejournalism
p72
aV#AppleWatch #iOS \u2013 How Apple Watch could reshape journalism : With the\u2026 http://t.co/Ei0INfygbn #iWatch #AppleWatch http://t.co/uvBAVKpFuz
p73
aV#AppleWatch #iOS \u2013 How Apple Watch could reshape journalism : With the\u2026 http://t.co/yOPsvGlqu4 #iWatch #AppleWatch http://t.co/8xRkPlmzCt
p74
aV#AppleWatch #iOS \u2013 How Apple Watch could\u2026 http://t.co/Rmi9njp5qo #iWatch #AppleWatch #applewatch #glancejournalism http://t.co/GE1vnR7Htq
p75
aV#AppleWatch #iOS \u2013 How Apple Watch could\u2026 http://t.co/KTANMpfZCO #iWatch #AppleWatch #applewatch #glancejournalism http://t.co/Lr2reSTM6f
p76
aV#AppleWatch #iOS \u2013 How Apple Watch could reshape journalism : With the\u2026 http://t.co/VIDjXJPSoD #iWatch #AppleWatch http://t.co/PUgeH0IZuA
p77
aV#AppleWatch #iOS \u2013 How Apple Watch could reshape journalism : With the Apple Watch expected to\u2026 http://t.co/uaDEL495y5 #iWatch #AppleWatch
p78
aV#AppleWatch #iOS \u2013 How Apple Watch could\u2026 http://t.co/kwxXkszQCp #iWatch #AppleWatch #applewatch #glancejournalism http://t.co/97sMqvbA6O
p79
aV#AppleWatch #iOS \u2013 How Apple Watch could reshape journalism : With the Apple Watch expected to\u2026 http://t.co/HdDueVxNFs #iWatch #AppleWatch
p80
aV#AppleWatch #iOS \u2013 How Apple Watch could reshape journalism :\u2026 http://t.co/dHs3CkuHEy #iWatch #AppleWatch #applewatch #glancejournalism
p81
aV#AppleWatch #iOS \u2013 How Apple Watch could reshape journalism : With the Apple Watch expected to\u2026 http://t.co/dd6XCj3Yws #iWatch #AppleWatch
p82
aV#AppleWatch #iOS \u2013 How Apple Watch could reshape journalism : With the Apple Watch expected to\u2026 http://t.co/Ei0INfygbn #iWatch #AppleWatch
p83
aV#AppleWatch #iOS \u2013 How Apple Watch could reshape journalism :\u2026 http://t.co/Rmi9njp5qo #iWatch #AppleWatch #applewatch #glancejournalism
p84
aV#AppleWatch #iOS \u2013 How Apple Watch could reshape journalism : With the Apple Watch expected to\u2026 http://t.co/VIDjXJPSoD #iWatch #AppleWatch
p85
aV#AppleWatch #iOS \u2013 How Apple Watch could reshape journalism :\u2026 http://t.co/KTANMpfZCO #iWatch #AppleWatch #applewatch #glancejournalism
p86
aV#AppleWatch #iOS \u2013 How Apple Watch could reshape journalism : With the\u2026 http://t.co/HdDueVxNFs #iWatch #AppleWatch http://t.co/I5s7nTjvbc
p87
aVHow Apple Watch could reshape journalism http://t.co/oyzqDHDr02 #iWatch #AppleWatch #applewatch #glancejournalism
p88
aV#AppleWatch #iOS \u2013 How Apple Watch could\u2026 http://t.co/dHs3CkuHEy #iWatch #AppleWatch #applewatch #glancejournalism http://t.co/pYRGajTuI1
p89
aVHow Apple Watch could reshape journalism http://t.co/oyzqDHDr02 #iWatch #AppleWatch #applewatch #glancejournalism http://t.co/dM0OCKP4or
p90
aV#AppleWatch #iOS \u2013 How Apple Watch could reshape journalism : With the\u2026 http://t.co/9QSMN5p7q4 #iWatch #AppleWatch http://t.co/mhzHEDcp8A
p91
aV#AppleWatch #iOS \u2013 How Apple Watch could reshape journalism : With the Apple Watch expected to\u2026 http://t.co/9QSMN5p7q4 #iWatch #AppleWatch
p92
aV#AppleWatch #iOS \u2013 How Apple Watch could reshape journalism : With the Apple Watch expected to\u2026 http://t.co/q3EXdhvYTT #iWatch #AppleWatch
p93
aVRT @tony_sheffler: Apple could be trillion $ company but #applewatch can't go 24 hours. @ericmigi what's your secret @Pebble #PebbleTime ht\u2026
p94
aV\u201cWhat the Apple Watch Means for The Age of Notifications\u201d by @StevenLevy https://t.co/fExHwUztD7 #smartwatch #applewatch #androidwear
p95
aV#AppleWatch #iOS \u2013 How Apple Watch could reshape journalism : With the\u2026 http://t.co/srMuOXDb3o #iWatch #AppleWatch http://t.co/e8W6uIdR73
p96
aV#iPhone6s #iPhoneSeries \u2013 Next iPhone to\u2026 http://t.co/FNNuHQntbj #iPhone #7000series #aluminium #Apple #AppleWatch http://t.co/8U7rzywP2J
p97
aVRT @CoraNewsy: #iPhone6s #iPhoneSeries \u2013 Next iPhone to\u2026 http://t.co/FNNuHQntbj #iPhone #7000series #aluminium #Apple #AppleWatch http://t.\u2026
p98
aV#iPhone6s #iPhoneSeries \u2013 Next iPhone to\u2026 http://t.co/FNNuHQntbj #iPhone #7000series #aluminium #Apple #AppleWatch http://t.co/fWMZFxSnIL
p99
aV#AppleWatch #iOS \u2013 How Apple Watch could reshape journalism : With the Apple Watch expected to\u2026 http://t.co/srMuOXDb3o #iWatch #AppleWatch
p100
a.