(lp0
V#AppleWatch #iOS \u2013 How Apple Watch could reshape journalism :\u2026 http://t.co/X7X7YKSPD5 #iWatch #AppleWatch #applewatch #glancejournalism
p1
aV#AppleWatch #iOS \u2013 How Apple Watch could reshape journalism : With the Apple Watch expected to\u2026 http://t.co/IQXcaf9R5j #iWatch #AppleWatch
p2
aV#AppleWatch #iOS \u2013 How Apple Watch could\u2026 http://t.co/WnGQuYzlRg #iWatch #AppleWatch #applewatch #glancejournalism http://t.co/D1sOUbENBO
p3
aV#AppleWatch #iOS \u2013 How Apple Watch could reshape journalism : With the\u2026 http://t.co/nsCqjeYwm6 #iWatch #AppleWatch http://t.co/ILAphqvW3R
p4
aV#AppleWatch #iOS \u2013 How Apple Watch could reshape journalism :\u2026 http://t.co/5J65JNPhzy #iWatch #AppleWatch #applewatch #glancejournalism
p5
aVRT @tony_sheffler: Apple could be trillion $ company but #applewatch can't go 24 hours. @ericmigi what's your secret @Pebble #PebbleTime ht\u2026
p6
aV#AppleWatch #iOS \u2013 How Apple Watch could\u2026 http://t.co/0v2LrTzVpP #iWatch #AppleWatch #applewatch #glancejournalism http://t.co/9eOXnbdcSu
p7
aV#AppleWatch #iOS \u2013 How Apple Watch could\u2026 http://t.co/ypSECsRJWS #iWatch #AppleWatch #applewatch #glancejournalism http://t.co/WGfivi8tPC
p8
aV#AppleWatch #iOS \u2013 How Apple Watch could\u2026 http://t.co/XhaOqpjuRV #iWatch #AppleWatch #applewatch #glancejournalism http://t.co/NfGHl086TY
p9
aV#AppleWatch #iOS \u2013 How Apple Watch could\u2026 http://t.co/rPiMdtMGA2 #iWatch #AppleWatch #applewatch #glancejournalism http://t.co/viejeIYSFG
p10
aV#AppleWatch #iOS \u2013 How Apple Watch could reshape journalism : With the Apple Watch expected to\u2026 http://t.co/Gs4ogGnCiA #iWatch #AppleWatch
p11
aV#AppleWatch #iOS \u2013 How Apple Watch could\u2026 http://t.co/ZC25EVLf2H #iWatch #AppleWatch #applewatch #glancejournalism http://t.co/7E6TX59rYE
p12
aV#AppleWatch #iOS \u2013 How Apple Watch could reshape journalism :\u2026 http://t.co/hP0J1TY34U #iWatch #AppleWatch #applewatch #glancejournalism
p13
aV#AppleWatch #iOS \u2013 How Apple Watch could reshape journalism :\u2026 http://t.co/suyTGyFsQE #iWatch #AppleWatch #applewatch #glancejournalism
p14
aV#AppleWatch #iOS \u2013 How Apple Watch could reshape journalism :\u2026 http://t.co/hznnuAIX33 #iWatch #AppleWatch #applewatch #glancejournalism
p15
aV#AppleWatch #iOS \u2013 How Apple Watch could reshape journalism : With the\u2026 http://t.co/FQSWYlHzM1 #iWatch #AppleWatch http://t.co/JtTM91pU1C
p16
aV#AppleWatch #iOS \u2013 How Apple Watch could reshape journalism : With the Apple Watch expected to\u2026 http://t.co/m6rtqF4Oj4 #iWatch #AppleWatch
p17
aV#AppleWatch #iOS \u2013 How Apple Watch could\u2026 http://t.co/5RgcIZiF9X #iWatch #AppleWatch #applewatch #glancejournalism http://t.co/Qk9rxkTLtA
p18
aV#AppleWatch #iOS \u2013 How Apple Watch could reshape journalism : With the Apple Watch expected to\u2026 http://t.co/1gOfP7W3FG #iWatch #AppleWatch
p19
aV#AppleWatch #iOS \u2013 How Apple Watch could reshape journalism :\u2026 http://t.co/LqIjfH39zL #iWatch #AppleWatch #applewatch #glancejournalism
p20
aVHow Apple Watch could reshape journalism http://t.co/zkxaMBe2nf #iWatch #AppleWatch #applewatch #glancejournalism http://t.co/lr6LUhpeGF
p21
aVHow Apple Watch could reshape journalism http://t.co/SEtUsdpIGW #iWatch #AppleWatch #applewatch #glancejournalism http://t.co/y9Z2uh4L48
p22
aVHow Apple Watch could reshape journalism http://t.co/DVP9M6CkTm #iWatch #AppleWatch #applewatch #glancejournalism http://t.co/pzdxV44KiQ
p23
aV#AppleWatch #iOS \u2013 How Apple Watch could reshape journalism : With the Apple Watch expected to\u2026 http://t.co/UsmRMTp3Vi #iWatch #AppleWatch
p24
aV#AppleWatch #iOS \u2013 How Apple Watch could reshape journalism : With the Apple Watch expected to\u2026 http://t.co/uDxDQ4y595 #iWatch #AppleWatch
p25
aV#AppleWatch #iOS \u2013 How Apple Watch could\u2026 http://t.co/euSnWLGLFU #iWatch #AppleWatch #applewatch #glancejournalism http://t.co/rEHnkxKmtT
p26
aV#iPhone6s #iPhoneSeries \u2013 Next iPhone to\u2026 http://t.co/YipyzXpEs7 #iPhone #7000series #aluminium #Apple #AppleWatch http://t.co/q2ffG2akId
p27
aV#AppleWatch #iOS \u2013 How Apple Watch could reshape journalism : With the\u2026 http://t.co/IQXcaf9R5j #iWatch #AppleWatch http://t.co/LW7CrCh1JT
p28
aV#AppleWatch #iOS \u2013 How Apple Watch could reshape journalism :\u2026 http://t.co/MoA1MAMKnT #iWatch #AppleWatch #applewatch #glancejournalism
p29
aV#AppleWatch #iOS \u2013 How Apple Watch could reshape journalism : With the Apple Watch expected to\u2026 http://t.co/b9JVTZBvrJ #iWatch #AppleWatch
p30
aV#AppleWatch #iOS \u2013 How Apple Watch could reshape journalism :\u2026 http://t.co/2BkqmuIQQv #iWatch #AppleWatch #applewatch #glancejournalism
p31
aV#AppleWatch #iOS \u2013 How Apple Watch could reshape journalism : With the Apple Watch expected to\u2026 http://t.co/jgnIbULUs2 #iWatch #AppleWatch
p32
aV#AppleWatch #iOS \u2013 How Apple Watch could reshape journalism :\u2026 http://t.co/10GfQnzieT #iWatch #AppleWatch #applewatch #glancejournalism
p33
aV#AppleWatch #iOS \u2013 How Apple Watch could reshape journalism :\u2026 http://t.co/WnGQuYzlRg #iWatch #AppleWatch #applewatch #glancejournalism
p34
aV#AppleWatch #iOS \u2013 How Apple Watch could reshape journalism : With the Apple Watch expected to\u2026 http://t.co/F9RNrHgvRo #iWatch #AppleWatch
p35
aV#AppleWatch #iOS \u2013 How Apple Watch could reshape journalism : With the Apple Watch expected to\u2026 http://t.co/nsCqjeYwm6 #iWatch #AppleWatch
p36
aV#AppleWatch #iOS \u2013 How Apple Watch could\u2026 http://t.co/suyTGyFsQE #iWatch #AppleWatch #applewatch #glancejournalism http://t.co/1gn5qyCZfq
p37
aV#AppleWatch #iOS \u2013 How Apple Watch could reshape journalism :\u2026 http://t.co/rPiMdtMGA2 #iWatch #AppleWatch #applewatch #glancejournalism
p38
aV#AppleWatch #iOS \u2013 How Apple Watch could reshape journalism :\u2026 http://t.co/0v2LrTzVpP #iWatch #AppleWatch #applewatch #glancejournalism
p39
aV#AppleWatch #iOS \u2013 How Apple Watch could reshape journalism :\u2026 http://t.co/XhaOqpjuRV #iWatch #AppleWatch #applewatch #glancejournalism
p40
aV#AppleWatch #iOS \u2013 How Apple Watch could\u2026 http://t.co/s1cGfMbMtM #iWatch #AppleWatch #applewatch #glancejournalism http://t.co/yctPKbXxzg
p41
aV#AppleWatch #iOS \u2013 How Apple Watch could\u2026 http://t.co/cVgknn0GCI #iWatch #AppleWatch #applewatch #glancejournalism http://t.co/KuS4rEh8Ni
p42
aV#AppleWatch #iOS \u2013 How Apple Watch could reshape journalism : With the Apple Watch expected to\u2026 http://t.co/FQSWYlHzM1 #iWatch #AppleWatch
p43
aV#AppleWatch #iOS \u2013 How Apple Watch could reshape journalism :\u2026 http://t.co/5RgcIZiF9X #iWatch #AppleWatch #applewatch #glancejournalism
p44
aV#AppleWatch #iOS \u2013 How Apple Watch could reshape journalism : With the\u2026 http://t.co/ytsgPIGqwU #iWatch #AppleWatch http://t.co/Bqze36PU8q
p45
aV#AppleWatch #iOS \u2013 How Apple Watch could reshape journalism :\u2026 http://t.co/euSnWLGLFU #iWatch #AppleWatch #applewatch #glancejournalism
p46
aV#AppleWatch #iOS \u2013 How Apple Watch could reshape journalism :\u2026 http://t.co/5a3sepHmdn #iWatch #AppleWatch #applewatch #glancejournalism
p47
aV#AppleWatch #iOS \u2013 How Apple Watch could\u2026 http://t.co/MoA1MAMKnT #iWatch #AppleWatch #applewatch #glancejournalism http://t.co/sAgV1n2B65
p48
aV#iPhone6s #iPhoneSeries \u2013 Next iPhone to\u2026 http://t.co/YipyzXpEs7 #iPhone #7000series #aluminium #Apple #AppleWatch http://t.co/wV3BG9p8Jz
p49
aV#AppleWatch #iOS \u2013 How Apple Watch could reshape journalism : With the Apple Watch expected to\u2026 http://t.co/5a3sepHmdn #iWatch #AppleWatch
p50
aV#AppleWatch #iOS \u2013 How Apple Watch could reshape journalism : With the\u2026 http://t.co/F9RNrHgvRo #iWatch #AppleWatch http://t.co/LIq0MG8fbk
p51
aV#AppleWatch #iOS \u2013 How Apple Watch could reshape journalism : With the Apple Watch expected to\u2026 http://t.co/qP2fiJiHcd #iWatch #AppleWatch
p52
aV#AppleWatch #iOS \u2013 How Apple Watch could reshape journalism :\u2026 http://t.co/ypSECsRJWS #iWatch #AppleWatch #applewatch #glancejournalism
p53
aV#AppleWatch #iOS \u2013 How Apple Watch could reshape journalism : With the\u2026 http://t.co/0Is1PIiGod #iWatch #AppleWatch http://t.co/WfVdo63e38
p54
aV#AppleWatch #iOS \u2013 How Apple Watch could\u2026 http://t.co/uKYdypGF7x #iWatch #AppleWatch #applewatch #glancejournalism http://t.co/pXtUo431pR
p55
aV#AppleWatch #iOS \u2013 How Apple Watch could reshape journalism : With the\u2026 http://t.co/UsmRMTp3Vi #iWatch #AppleWatch http://t.co/ziGOq9e5VF
p56
aV#AppleWatch #iOS \u2013 How Apple Watch could\u2026 http://t.co/JBlV3mgmO2 #iWatch #AppleWatch #applewatch #glancejournalism http://t.co/rFVDyAhifP
p57
aV#AppleWatch #iOS \u2013 How Apple Watch could reshape journalism :\u2026 http://t.co/uKYdypGF7x #iWatch #AppleWatch #applewatch #glancejournalism
p58
aV#AppleWatch #iOS \u2013 How Apple Watch could reshape journalism :\u2026 http://t.co/s1cGfMbMtM #iWatch #AppleWatch #applewatch #glancejournalism
p59
aV#AppleWatch #iOS \u2013 How Apple Watch could reshape journalism : With the\u2026 http://t.co/LKP1scBVtx #iWatch #AppleWatch http://t.co/ErCqHjAezi
p60
aV#AppleWatch #iOS \u2013 How Apple Watch could reshape journalism :\u2026 http://t.co/cVgknn0GCI #iWatch #AppleWatch #applewatch #glancejournalism
p61
aV#AppleWatch #iOS \u2013 How Apple Watch could reshape journalism :\u2026 http://t.co/OfF8qtKPP3 #iWatch #AppleWatch #applewatch #glancejournalism
p62
aV#AppleWatch #iOS \u2013 How Apple Watch could reshape journalism :\u2026 http://t.co/uKYdypYgw7 #iWatch #AppleWatch #applewatch #glancejournalism
p63
aVHow Apple Watch could reshape journalism http://t.co/4sjlVMT3bA #iWatch #AppleWatch #applewatch #glancejournalism
p64
aV#AppleWatch #iOS \u2013 How Apple Watch could reshape journalism : With the\u2026 http://t.co/gZniNwv3NP #iWatch #AppleWatch http://t.co/jRcqH2gSD3
p65
aV#AppleWatch #iOS \u2013 How Apple Watch could reshape journalism : With the Apple Watch expected to\u2026 http://t.co/ytsgPIGqwU #iWatch #AppleWatch
p66
aV#iPhone6s #iPhoneSeries \u2013 Next iPhone to\u2026 http://t.co/Qdij8WEawD #iPhone #7000series #aluminium #Apple #AppleWatch http://t.co/VDsHjWM43G
p67
aV#AppleWatch #iOS \u2013 How Apple Watch could reshape journalism :\u2026 http://t.co/WdEsxNeN2n #iWatch #AppleWatch #applewatch #glancejournalism
p68
aV#AppleWatch #iOS \u2013 How Apple Watch could\u2026 http://t.co/5a3sepHmdn #iWatch #AppleWatch #applewatch #glancejournalism http://t.co/tW38bvgtd7
p69
aV#AppleWatch #iOS \u2013 How Apple Watch could reshape journalism :\u2026 http://t.co/PlUkXyvDND #iWatch #AppleWatch #applewatch #glancejournalism
p70
aV#AppleWatch #iOS \u2013 How Apple Watch could reshape journalism : With the\u2026 http://t.co/vPvx2RlbXP #iWatch #AppleWatch http://t.co/yRxazdTzgM
p71
aV#AppleWatch #iOS \u2013 How Apple Watch could reshape journalism :\u2026 http://t.co/2w8NiJb9MK #iWatch #AppleWatch #applewatch #glancejournalism
p72
aVHow Apple Watch could reshape journalism http://t.co/4sjlVMT3bA #iWatch #AppleWatch #applewatch #glancejournalism http://t.co/0qo6Lcm8zR
p73
aV#AppleWatch #iOS \u2013 How Apple Watch could reshape journalism : With the Apple Watch expected to\u2026 http://t.co/z9BNKDlUBC #iWatch #AppleWatch
p74
aV#AppleWatch #iOS \u2013 How Apple Watch could reshape journalism : With the Apple Watch expected to\u2026 http://t.co/LKP1scBVtx #iWatch #AppleWatch
p75
aV#AppleWatch #iOS \u2013 How Apple Watch could\u2026 http://t.co/JBlV3mgmO2 #iWatch #AppleWatch #applewatch #glancejournalism http://t.co/cqX3h2YwsO
p76
aV#AppleWatch #iOS \u2013 How Apple Watch could reshape journalism : With the Apple Watch expected to\u2026 http://t.co/gZniNwv3NP #iWatch #AppleWatch
p77
aV#AppleWatch #iOS \u2013 How Apple Watch could\u2026 http://t.co/WdEsxNeN2n #iWatch #AppleWatch #applewatch #glancejournalism http://t.co/5ahjgPuNjp
p78
aV#AppleWatch #iOS \u2013 How Apple Watch could reshape journalism : With the Apple Watch expected to\u2026 http://t.co/vPvx2RlbXP #iWatch #AppleWatch
p79
aV#AppleWatch #iOS \u2013 How Apple Watch could reshape journalism : With the\u2026 http://t.co/zlX28iPel9 #iWatch #AppleWatch http://t.co/baMVxKMeQj
p80
aV#AppleWatch #iOS \u2013 How Apple Watch could reshape journalism : With the\u2026 http://t.co/388dbwosuc #iWatch #AppleWatch http://t.co/QzPkKeLfH4
p81
aV#AppleWatch #iOS \u2013 How Apple Watch could\u2026 http://t.co/2w8NiJb9MK #iWatch #AppleWatch #applewatch #glancejournalism http://t.co/eheCubckiI
p82
aV#AppleWatch #iOS \u2013 How Apple Watch could reshape journalism : With the\u2026 http://t.co/z9BNKDlUBC #iWatch #AppleWatch http://t.co/cpc8yt7Fa7
p83
aV#AppleWatch #iOS \u2013 How Apple Watch could reshape journalism : With the Apple Watch expected to\u2026 http://t.co/FMuPjiA7Xk #iWatch #AppleWatch
p84
aV#AppleWatch #iOS \u2013 How Apple Watch could reshape journalism : With the Apple Watch expected to\u2026 http://t.co/zlX28iPel9 #iWatch #AppleWatch
p85
aV#AppleWatch #iOS \u2013 How Apple Watch could reshape journalism : With the Apple Watch expected to\u2026 http://t.co/388dbwosuc #iWatch #AppleWatch
p86
aV#AppleWatch #iOS \u2013 How Apple Watch could reshape journalism :\u2026 http://t.co/hX5Bvm6NuY #iWatch #AppleWatch #applewatch #glancejournalism
p87
aV#AppleWatch #iOS \u2013 How Apple Watch could reshape journalism : With the\u2026 http://t.co/6A46nqRAo2 #iWatch #AppleWatch http://t.co/I9TQEct8s8
p88
aV#AppleWatch #iOS \u2013 How Apple Watch could reshape journalism : With the\u2026 http://t.co/FMuPjiA7Xk #iWatch #AppleWatch http://t.co/OZddpT58xS
p89
aV#AppleWatch #iOS \u2013 How Apple Watch could\u2026 http://t.co/hX5Bvm6NuY #iWatch #AppleWatch #applewatch #glancejournalism http://t.co/wHUCUBARuB
p90
aV#AppleWatch #iOS \u2013 How Apple Watch could reshape journalism : With the Apple Watch expected to\u2026 http://t.co/6A46nqRAo2 #iWatch #AppleWatch
p91
aV#AppleWatch #iOS \u2013 How Apple Watch could reshape journalism : With the Apple Watch expected to\u2026 http://t.co/fl1rXSQNIO #iWatch #AppleWatch
p92
aV#AppleWatch #iOS \u2013 How Apple Watch could reshape journalism :\u2026 http://t.co/nteG6vMI7p #iWatch #AppleWatch #applewatch #glancejournalism
p93
aV#AppleWatch #iOS \u2013 How Apple Watch could\u2026 http://t.co/nteG6vMI7p #iWatch #AppleWatch #applewatch #glancejournalism http://t.co/tVptIIvaGF
p94
aVNew #AppleWatch Sport band colors revealed in #Italy http://t.co/ZjQUihpQxM
p95
aV#AppleWatch #iOS \u2013 How Apple Watch could reshape journalism : With the Apple Watch expected to\u2026 http://t.co/bj25V4xKHo #iWatch #AppleWatch
p96
aV#AppleWatch #iOS \u2013 How Apple Watch could reshape journalism : With the\u2026 http://t.co/bj25V4xKHo #iWatch #AppleWatch http://t.co/uq9lRWoFQp
p97
aV#AppleWatch #iOS \u2013 How Apple Watch could reshape journalism : With the\u2026 http://t.co/KLkIDxcYiB #iWatch #AppleWatch http://t.co/zyqZ3HAv2f
p98
aV#AppleWatch #iOS \u2013 How Apple Watch could\u2026 http://t.co/qFjskkbUve #iWatch #AppleWatch #applewatch #glancejournalism http://t.co/NjK0VsH6p1
p99
aV#AppleWatch #iOS \u2013 How Apple Watch could\u2026 http://t.co/oTq3xqyKVW #iWatch #AppleWatch #applewatch #glancejournalism http://t.co/EpGQKZOs7n
p100
a.