(lp0
V#AppleWatch #iOS \u2013 How Apple Watch could\u2026 http://t.co/FllHuYF2ox #iWatch #AppleWatch #applewatch #glancejournalism http://t.co/WQkkxqrQ4K
p1
aV#AppleWatch #iOS \u2013 How Apple Watch could reshape journalism :\u2026 http://t.co/tMq0xxkqty #iWatch #AppleWatch #applewatch #glancejournalism
p2
aV#iPhone6s #iPhoneSeries \u2013 Next iPhone to\u2026 http://t.co/EbDHsg3oAF #iPhone #7000series #aluminium #Apple #AppleWatch http://t.co/SfLxmr6vMe
p3
aV#AppleWatch #iOS \u2013 How Apple Watch could reshape journalism : With the Apple Watch expected to\u2026 http://t.co/ScdI9B2JTA #iWatch #AppleWatch
p4
aV#iPhone6s #iPhoneSeries \u2013 Next iPhone to\u2026 http://t.co/jYVlQoUbTu #iPhone #7000series #aluminium #Apple #AppleWatch http://t.co/DchFQiveIa
p5
aV#AppleWatch #iOS \u2013 How Apple Watch could reshape journalism : With the Apple Watch expected to\u2026 http://t.co/zo8R6OOUGV #iWatch #AppleWatch
p6
aV#AppleWatch #iOS \u2013 How Apple Watch could reshape journalism : With the Apple Watch expected to\u2026 http://t.co/yDOcuq1hkz #iWatch #AppleWatch
p7
aV#iPhone6s #iPhoneSeries \u2013 Next iPhone to feature stronger 7000\u2026 http://t.co/TnUrUDqTdw #iPhone #7000series #aluminium #Apple #AppleWatch
p8
aV#AppleWatch #iOS \u2013 How Apple Watch could reshape journalism : With the\u2026 http://t.co/NNzxOLY5Ce #iWatch #AppleWatch http://t.co/iSMaw2V99u
p9
aV#iPhone6s #iPhoneSeries \u2013 Next iPhone to feature stronger 7000\u2026 http://t.co/Y0ldqXV8tq #iPhone #7000series #aluminium #Apple #AppleWatch
p10
aV#AppleWatch #iOS \u2013 How Apple Watch could reshape journalism : With the Apple Watch expected to\u2026 http://t.co/zo8R6P6vyt #iWatch #AppleWatch
p11
aV#AppleWatch #iOS \u2013 How Apple Watch could reshape journalism : With the Apple Watch expected to\u2026 http://t.co/ewTpoUVssy #iWatch #AppleWatch
p12
aV#AppleWatch #iOS \u2013 How Apple Watch could reshape journalism : With the\u2026 http://t.co/4EMyFmZC2C #iWatch #AppleWatch http://t.co/GxFRKkNdNZ
p13
aV#AppleWatch #iOS \u2013 How Apple Watch could reshape journalism : With the Apple Watch expected to\u2026 http://t.co/2g46tNZHuL #iWatch #AppleWatch
p14
aV#AppleWatch #iOS \u2013 How Apple Watch could reshape journalism :\u2026 http://t.co/YXoidhYcgP #iWatch #AppleWatch #applewatch #glancejournalism
p15
aV#AppleWatch #iOS \u2013 How Apple Watch could reshape journalism : With the Apple Watch expected to\u2026 http://t.co/yOPsvGlqu4 #iWatch #AppleWatch
p16
aV#AppleWatch #iOS \u2013 How Apple Watch could\u2026 http://t.co/57SONvn6YC #iWatch #AppleWatch #applewatch #glancejournalism http://t.co/Qor4YiCn3w
p17
aV#AppleWatch #iOS \u2013 How Apple Watch could reshape journalism :\u2026 http://t.co/saZJIf7o5a #iWatch #AppleWatch #applewatch #glancejournalism
p18
aV#AppleWatch #iOS \u2013 How Apple Watch could reshape journalism : With the\u2026 http://t.co/poEGnZgtWa #iWatch #AppleWatch http://t.co/pDoYSY4TsF
p19
aV#AppleWatch #iOS \u2013 How Apple Watch could reshape journalism : With the Apple Watch expected to\u2026 http://t.co/j3a0tBmcww #iWatch #AppleWatch
p20
aVNext iPhone to feature stronger 7000 series aluminium http://t.co/K9ExnfIRza #iPhone #7000series #aluminium #Apple #AppleWatch
p21
aVHow Apple Watch could reshape journalism http://t.co/ANfsE59wIS #iWatch #AppleWatch #applewatch #glancejournalism http://t.co/5uogX4x9A1
p22
aV#AppleWatch #iOS \u2013 How Apple Watch could\u2026 http://t.co/IgsV31yKk3 #iWatch #AppleWatch #applewatch #glancejournalism http://t.co/uatoffIb8L
p23
aV#AppleWatch #iOS \u2013 How Apple Watch could reshape journalism : With the Apple Watch expected to\u2026 http://t.co/ZHLdcoHHyD #iWatch #AppleWatch
p24
aV#AppleWatch #iOS \u2013 How Apple Watch could reshape journalism : With the\u2026 http://t.co/cycNeoWVh9 #iWatch #AppleWatch http://t.co/OlfkRk1cTq
p25
aV#AppleWatch #iOS \u2013 How Apple Watch could reshape journalism : With the\u2026 http://t.co/CpfxWpvEWe #iWatch #AppleWatch http://t.co/Y6bw7LQTV9
p26
aV#AppleWatch #iOS \u2013 How Apple Watch could reshape journalism :\u2026 http://t.co/pAfY68w9gh #iWatch #AppleWatch #applewatch #glancejournalism
p27
aV#AppleWatch #iOS \u2013 How Apple Watch could\u2026 http://t.co/tMq0xxkqty #iWatch #AppleWatch #applewatch #glancejournalism http://t.co/DLLtL1wt44
p28
aV#AppleWatch #iOS \u2013 How Apple Watch could\u2026 http://t.co/t4ru3TaV9K #iWatch #AppleWatch #applewatch #glancejournalism http://t.co/J3r7Rf7zkD
p29
aV#AppleWatch #iOS \u2013 How Apple Watch could\u2026 http://t.co/zFyo8wotcH #iWatch #AppleWatch #applewatch #glancejournalism http://t.co/mUgmrE289S
p30
aV#iPhone6s #iPhoneSeries \u2013 Next iPhone to\u2026 http://t.co/Gcrc3EaEut #iPhone #7000series #aluminium #Apple #AppleWatch http://t.co/HdWdljN4Tg
p31
aV#iPhone6s #iPhoneSeries \u2013 Next iPhone to feature stronger 7000\u2026 http://t.co/kRLU5zVFyD #iPhone #7000series #aluminium #Apple #AppleWatch
p32
aV#AppleWatch #iOS \u2013 How Apple Watch could reshape journalism :\u2026 http://t.co/wqzXpKRuZc #iWatch #AppleWatch #applewatch #glancejournalism
p33
aV#AppleWatch #iOS \u2013 How Apple Watch could reshape journalism : With the Apple Watch expected to\u2026 http://t.co/vF61Axe0b5 #iWatch #AppleWatch
p34
aV#AppleWatch #iOS \u2013 How Apple Watch could reshape journalism : With the Apple Watch expected to\u2026 http://t.co/ribNg5DSKO #iWatch #AppleWatch
p35
aV#iPhone6s #iPhoneSeries \u2013 Next iPhone to feature stronger 7000\u2026 http://t.co/BrBLabaLD8 #iPhone #7000series #aluminium #Apple #AppleWatch
p36
aVHow Apple Watch could reshape journalism http://t.co/SCx6zjv0k5 #iWatch #AppleWatch #applewatch #glancejournalism
p37
aVNext iPhone to feature stronger 7000\u2026 http://t.co/5ZigRAeweO #iPhone #7000series #aluminium #Apple #AppleWatch http://t.co/dJ806WOUE4
p38
aV#iPhone6s #iPhoneSeries \u2013 Next iPhone to feature stronger 7000\u2026 http://t.co/xOYmCq6OQl #iPhone #7000series #aluminium #Apple #AppleWatch
p39
aV#iPhone6s #iPhoneSeries \u2013 Next iPhone to feature stronger 7000\u2026 http://t.co/Fc20PRiVEr #iPhone #7000series #aluminium #Apple #AppleWatch
p40
aV#AppleWatch #iOS \u2013 How Apple Watch could reshape journalism : With the\u2026 http://t.co/7tIYIN8ofh #iWatch #AppleWatch http://t.co/fa2AXc6y73
p41
aVNext iPhone to feature stronger 7000\u2026 http://t.co/yWXPdWXVDW #iPhone #7000series #aluminium #Apple #AppleWatch http://t.co/OpBErNLiDw
p42
aV#AppleWatch #iOS \u2013 How Apple Watch could reshape journalism : With the\u2026 http://t.co/GjMZFPYnrE #iWatch #AppleWatch http://t.co/QEkDBAreiM
p43
aV#iPhone6s #iPhoneSeries \u2013 Next iPhone to\u2026 http://t.co/TnUrUDqTdw #iPhone #7000series #aluminium #Apple #AppleWatch http://t.co/GuBItJVYiO
p44
aV#AppleWatch #iOS \u2013 How Apple Watch could reshape journalism : With the\u2026 http://t.co/o0izQ8rLjc #iWatch #AppleWatch http://t.co/tY6QRjq6WQ
p45
aVHow Apple Watch could reshape journalism http://t.co/SCx6zjdoVv #iWatch #AppleWatch #applewatch #glancejournalism
p46
aV#AppleWatch #iOS \u2013 How Apple Watch could\u2026 http://t.co/MvS876uy8m #iWatch #AppleWatch #applewatch #glancejournalism http://t.co/s45M5dEFbv
p47
aV#AppleWatch #iOS \u2013 How Apple Watch could reshape journalism :\u2026 http://t.co/EXCVDvwNfD #iWatch #AppleWatch #applewatch #glancejournalism
p48
aV#AppleWatch #iOS \u2013 How Apple Watch could reshape journalism : With the Apple Watch expected to\u2026 http://t.co/lxcI0oP3AX #iWatch #AppleWatch
p49
aVNext iPhone to feature stronger 7000\u2026 http://t.co/wXMLp3qIv1 #iPhone #7000series #aluminium #Apple #AppleWatch http://t.co/GCpjzyc4PY
p50
aV#AppleWatch #iOS \u2013 How Apple Watch could reshape journalism : With the\u2026 http://t.co/opUZWssFyR #iWatch #AppleWatch http://t.co/RQY5eURTG8
p51
aV#iPhone6s #iPhoneSeries \u2013 Next iPhone to feature stronger 7000\u2026 http://t.co/LtXVmaKAAo #iPhone #7000series #aluminium #Apple #AppleWatch
p52
aV#iPhone6s #iPhoneSeries \u2013 Next iPhone to feature stronger 7000\u2026 http://t.co/ICMYEQqXbP #iPhone #7000series #aluminium #Apple #AppleWatch
p53
aV#iPhone6s #iPhoneSeries \u2013 Next iPhone to\u2026 http://t.co/BdSiVUlEcf #iPhone #7000series #aluminium #Apple #AppleWatch http://t.co/CzdUmrItij
p54
aV#AppleWatch #iOS \u2013 How Apple Watch could reshape journalism :\u2026 http://t.co/NOPAbNrOh9 #iWatch #AppleWatch #applewatch #glancejournalism
p55
aV#iPhone6s #iPhoneSeries \u2013 Next iPhone to feature stronger 7000\u2026 http://t.co/BxTRazHa8n #iPhone #7000series #aluminium #Apple #AppleWatch
p56
aVNext iPhone to feature stronger 7000\u2026 http://t.co/WkvMtXQG9w #iPhone #7000series #aluminium #Apple #AppleWatch http://t.co/54mVlRUiHW
p57
aV#AppleWatch #iOS \u2013 How Apple Watch could reshape journalism : With the\u2026 http://t.co/vF61Axe0b5 #iWatch #AppleWatch http://t.co/wY2lq1rbwS
p58
aV#AppleWatch #iOS \u2013 How Apple Watch could\u2026 http://t.co/600K0iz50v #iWatch #AppleWatch #applewatch #glancejournalism http://t.co/9L10NB5jy0
p59
aV#iPhone6s #iPhoneSeries \u2013 Next iPhone to feature stronger 7000\u2026 http://t.co/T7Yxhxnedi #iPhone #7000series #aluminium #Apple #AppleWatch
p60
aV#AppleWatch #iOS \u2013 How Apple Watch could reshape journalism : With the Apple Watch expected to\u2026 http://t.co/LGbEq6EXoG #iWatch #AppleWatch
p61
aV#AppleWatch #iOS \u2013 How Apple Watch could reshape journalism : With the Apple Watch expected to\u2026 http://t.co/ocrQCfLjA9 #iWatch #AppleWatch
p62
aV#iPhone6s #iPhoneSeries \u2013 Next iPhone to feature stronger 7000\u2026 http://t.co/Uc03XN4IRV #iPhone #7000series #aluminium #Apple #AppleWatch
p63
aV#AppleWatch #iOS \u2013 How Apple Watch could reshape journalism :\u2026 http://t.co/MXBdzBC3oE #iWatch #AppleWatch #applewatch #glancejournalism
p64
aV#iPhone6s #iPhoneSeries \u2013 Next iPhone to feature stronger 7000\u2026 http://t.co/rYCYl3kdZQ #iPhone #7000series #aluminium #Apple #AppleWatch
p65
aV#AppleWatch #iOS \u2013 How Apple Watch could reshape journalism : With the\u2026 http://t.co/nJD92AIxur #iWatch #AppleWatch http://t.co/KQIct8VXQ5
p66
aV#AppleWatch #iOS \u2013 How Apple Watch could reshape journalism : With the\u2026 http://t.co/eXLaEKDb84 #iWatch #AppleWatch http://t.co/IiLnHioDcK
p67
aV#iPhone6s #iPhoneSeries \u2013 Next iPhone to feature stronger 7000\u2026 http://t.co/S7A1JDgtnR #iPhone #7000series #aluminium #Apple #AppleWatch
p68
aV#AppleWatch #iOS \u2013 How Apple Watch could reshape journalism :\u2026 http://t.co/DLPfRKIJqe #iWatch #AppleWatch #applewatch #glancejournalism
p69
aV#AppleWatch #iOS \u2013 How Apple Watch could reshape journalism : With the\u2026 http://t.co/ScdI9B2JTA #iWatch #AppleWatch http://t.co/79tn3rF8ym
p70
aV#AppleWatch #iOS \u2013 How Apple Watch could reshape journalism : With the Apple Watch expected to\u2026 http://t.co/4EMyFmZC2C #iWatch #AppleWatch
p71
aV#AppleWatch #iOS \u2013 How Apple Watch could\u2026 http://t.co/qkNtzgnEqU #iWatch #AppleWatch #applewatch #glancejournalism http://t.co/vNX8vOYHrp
p72
aV#AppleWatch #iOS \u2013 How Apple Watch could\u2026 http://t.co/C7pxvy0NBm #iWatch #AppleWatch #applewatch #glancejournalism http://t.co/gWuoMKBXZH
p73
aVNext iPhone to feature stronger 7000 series aluminium http://t.co/p0hxvXb4kD #iPhone #7000series #aluminium #Apple #AppleWatch
p74
aV#AppleWatch #iOS \u2013 How Apple Watch could reshape journalism :\u2026 http://t.co/fnMZDrF8wX #iWatch #AppleWatch #applewatch #glancejournalism
p75
aV#AppleWatch #iOS \u2013 How Apple Watch could reshape journalism : With the\u2026 http://t.co/CfrFk1vnYX #iWatch #AppleWatch http://t.co/PM4wbINu17
p76
aV#AppleWatch #iOS \u2013 How Apple Watch could\u2026 http://t.co/saZJIf7o5a #iWatch #AppleWatch #applewatch #glancejournalism http://t.co/5LxKImun8e
p77
aV#AppleWatch #iOS \u2013 How Apple Watch could\u2026 http://t.co/Wyrgcx1dt6 #iWatch #AppleWatch #applewatch #glancejournalism http://t.co/qndcMkxEqW
p78
aV#iPhone6s #iPhoneSeries \u2013 Next iPhone to feature stronger 7000\u2026 http://t.co/H8Ewg7EZIL #iPhone #7000series #aluminium #Apple #AppleWatch
p79
aV#AppleWatch #iOS \u2013 How Apple Watch could reshape journalism : With the Apple Watch expected to\u2026 http://t.co/NNzxOLY5Ce #iWatch #AppleWatch
p80
aV#iPhone6s #iPhoneSeries \u2013 Next iPhone to feature stronger 7000\u2026 http://t.co/04PhjfwU03 #iPhone #7000series #aluminium #Apple #AppleWatch
p81
aV#AppleWatch #iOS \u2013 How Apple Watch could reshape journalism :\u2026 http://t.co/b8BlsdrZhs #iWatch #AppleWatch #applewatch #glancejournalism
p82
aV#AppleWatch #iOS \u2013 How Apple Watch could reshape journalism :\u2026 http://t.co/YSoLtNXrPP #iWatch #AppleWatch #applewatch #glancejournalism
p83
aV#iPhone6s #iPhoneSeries \u2013 Next iPhone to feature stronger 7000\u2026 http://t.co/rASbU7ILPW #iPhone #7000series #aluminium #Apple #AppleWatch
p84
aV#AppleWatch #iOS \u2013 How Apple Watch could reshape journalism : With the\u2026 http://t.co/LflMaOUZlV #iWatch #AppleWatch http://t.co/kkH0QHvPse
p85
aV#iPhone6s #iPhoneSeries \u2013 Next iPhone to\u2026 http://t.co/JKmBMboaXl #iPhone #7000series #aluminium #Apple #AppleWatch http://t.co/IXOSdT76mC
p86
aV#iPhone6s #iPhoneSeries \u2013 Next iPhone to\u2026 http://t.co/9CGqSbkWBE #iPhone #7000series #aluminium #Apple #AppleWatch http://t.co/6CJdYVbwUo
p87
aVHow Apple Watch could reshape journalism http://t.co/TelJXzQTs8 #iWatch #AppleWatch #applewatch #glancejournalism
p88
aV#AppleWatch #iOS \u2013 How Apple Watch could reshape journalism : With the\u2026 http://t.co/H46Pn0L32j #iWatch #AppleWatch http://t.co/rIQvjvO388
p89
aV#AppleWatch #iOS \u2013 How Apple Watch could reshape journalism : With the\u2026 http://t.co/fYjEqYT0Xr #iWatch #AppleWatch http://t.co/d20iTgeR9P
p90
aV#iPhone6s #iPhoneSeries \u2013 Next iPhone to\u2026 http://t.co/lkwpU6ZrTN #iPhone #7000series #aluminium #Apple #AppleWatch http://t.co/O1aHzozBL2
p91
aV#AppleWatch #iOS \u2013 How Apple Watch could reshape journalism :\u2026 http://t.co/lpkwFGDCVz #iWatch #AppleWatch #applewatch #glancejournalism
p92
aV#AppleWatch #iOS \u2013 How Apple Watch could reshape journalism : With the\u2026 http://t.co/klwldj6sUY #iWatch #AppleWatch http://t.co/LCTwEyROHA
p93
aV#iPhone6s #iPhoneSeries \u2013 Next iPhone to feature stronger 7000\u2026 http://t.co/XJMaUfZ0w2 #iPhone #7000series #aluminium #Apple #AppleWatch
p94
aV#AppleWatch #iOS \u2013 How Apple Watch could reshape journalism : With the Apple Watch expected to\u2026 http://t.co/PfwbXp3KoL #iWatch #AppleWatch
p95
aV#iPhone6s #iPhoneSeries \u2013 Next iPhone to feature stronger 7000\u2026 http://t.co/GQkMQVbC47 #iPhone #7000series #aluminium #Apple #AppleWatch
p96
aV#AppleWatch #iOS \u2013 How Apple Watch could reshape journalism : With the Apple Watch expected to\u2026 http://t.co/0uch3ddzXv #iWatch #AppleWatch
p97
aV#AppleWatch #iOS \u2013 How Apple Watch could reshape journalism : With the Apple Watch expected to\u2026 http://t.co/poEGnZgtWa #iWatch #AppleWatch
p98
aV#iPhone6s #iPhoneSeries \u2013 Next iPhone to feature stronger 7000\u2026 http://t.co/1fhimvn8XD #iPhone #7000series #aluminium #Apple #AppleWatch
p99
aV#AppleWatch #iOS \u2013 How Apple Watch could reshape journalism : With the Apple Watch expected to\u2026 http://t.co/bIpSpujbNF #iWatch #AppleWatch
p100
a.