(lp0
V#iPhone6s #iPhoneSeries \u2013 Next iPhone to feature stronger 7000\u2026 http://t.co/YSGkkRdMcs #iPhone #7000series #aluminium #Apple #AppleWatch
p1
aV#AppleWatch #iOS \u2013 How Apple Watch could\u2026 http://t.co/cM2iF5erXE #iWatch #AppleWatch #applewatch #glancejournalism http://t.co/SlaHbUzUMs
p2
aV#AppleWatch #iOS \u2013 How Apple Watch could reshape journalism : With the\u2026 http://t.co/2z7TQlEQOm #iWatch #AppleWatch http://t.co/75GXqYXE5i
p3
aV#AppleWatch #iOS \u2013 How Apple Watch could reshape journalism : With the Apple Watch expected to\u2026 http://t.co/aeYXqrsJF2 #iWatch #AppleWatch
p4
aV#AppleWatch #iOS \u2013 How Apple Watch could reshape journalism : With the Apple Watch expected to\u2026 http://t.co/LflMaOUZlV #iWatch #AppleWatch
p5
aV#AppleWatch #iOS \u2013 How Apple Watch could reshape journalism : With the Apple Watch expected to\u2026 http://t.co/8DSd8IEJT3 #iWatch #AppleWatch
p6
aVHow Apple Watch could reshape journalism http://t.co/Rnhbmah0Cu #iWatch #AppleWatch #applewatch #glancejournalism
p7
aV#AppleWatch #iOS \u2013 How Apple Watch could reshape journalism : With the\u2026 http://t.co/XtsZsRboFT #iWatch #AppleWatch http://t.co/oArCg8rHjU
p8
aV#AppleWatch: All You want to know - http://t.co/vpN8mABHVL via @MobileSiri.com
p9
aV#AppleWatch #iOS \u2013 How Apple Watch could reshape journalism : With the\u2026 http://t.co/sw0noQFsWf #iWatch #AppleWatch http://t.co/GnXxV2Plhm
p10
aV#AppleWatch #iOS \u2013 How Apple Watch could reshape journalism : With the Apple Watch expected to\u2026 http://t.co/odOo54Xz4V #iWatch #AppleWatch
p11
aV#AppleWatch #iOS \u2013 How Apple Watch could\u2026 http://t.co/6ffgtV4ieD #iWatch #AppleWatch #applewatch #glancejournalism http://t.co/VMBGWS1Dka
p12
aV#AppleWatch #iOS \u2013 How Apple Watch could reshape journalism : With the\u2026 http://t.co/nVGqO46aSF #iWatch #AppleWatch http://t.co/Vo9wiBJPjA
p13
aV#iPhone6s #iPhoneSeries \u2013 Next iPhone to feature stronger 7000\u2026 http://t.co/ckVBdQlBAx #iPhone #7000series #aluminium #Apple #AppleWatch
p14
aV#AppleWatch #iOS \u2013 How Apple Watch could reshape journalism : With the Apple Watch expected to\u2026 http://t.co/i2snmk1e5i #iWatch #AppleWatch
p15
aV#AppleWatch #iOS \u2013 How Apple Watch could reshape journalism : With the\u2026 http://t.co/kWcY0LmC88 #iWatch #AppleWatch http://t.co/ju5IOxqP8z
p16
aV#AppleWatch #iOS \u2013 How Apple Watch could reshape journalism :\u2026 http://t.co/vspCTB47EA #iWatch #AppleWatch #applewatch #glancejournalism
p17
aV#AppleWatch #iOS \u2013 How Apple Watch could reshape journalism :\u2026 http://t.co/m5gPXjuVSt #iWatch #AppleWatch #applewatch #glancejournalism
p18
aV#AppleWatch #iOS \u2013 How Apple Watch could reshape journalism : With the Apple Watch expected to\u2026 http://t.co/4cATiS69ts #iWatch #AppleWatch
p19
aV#AppleWatch #iOS \u2013 How Apple Watch could reshape journalism : With the\u2026 http://t.co/r7RujTFc1G #iWatch #AppleWatch http://t.co/ZQqfPzdD3K
p20
aV#AppleWatch #iOS \u2013 How Apple Watch could\u2026 http://t.co/7dIkB1dVbA #iWatch #AppleWatch #applewatch #glancejournalism http://t.co/kxHfwLLWtM
p21
aV#AppleWatch #iOS \u2013 How Apple Watch could\u2026 http://t.co/izlL1tsZSk #iWatch #AppleWatch #applewatch #glancejournalism http://t.co/BxvrHCr67u
p22
aV#AppleWatch #iOS \u2013 How Apple Watch could reshape journalism : With the Apple Watch expected to\u2026 http://t.co/eomyICiN1I #iWatch #AppleWatch
p23
aV#AppleWatch #iOS \u2013 How Apple Watch could reshape journalism : With the Apple Watch expected to\u2026 http://t.co/8kB2WFc2RM #iWatch #AppleWatch
p24
aV#iPhone6s #iPhoneSeries \u2013 Next iPhone to feature stronger 7000\u2026 http://t.co/uE3kTlHcFs #iPhone #7000series #aluminium #Apple #AppleWatch
p25
aV#AppleWatch #iOS \u2013 How Apple Watch could reshape journalism : With the\u2026 http://t.co/sBkGQq4UYd #iWatch #AppleWatch http://t.co/sw57NSCorf
p26
aV#iPhone6s #iPhoneSeries \u2013 Next iPhone to feature stronger 7000\u2026 http://t.co/z6rifFCWU0 #iPhone #7000series #aluminium #Apple #AppleWatch
p27
aV#iPhone6s #iPhoneSeries \u2013 Next iPhone to feature stronger 7000\u2026 http://t.co/ZjhdxG1q8D #iPhone #7000series #aluminium #Apple #AppleWatch
p28
aV#AppleWatch #iOS \u2013 How Apple Watch could reshape journalism : With the\u2026 http://t.co/0PFT6zPj4Q #iWatch #AppleWatch http://t.co/vEYNiCMbqa
p29
aV#AppleWatch #iOS \u2013 How Apple Watch could reshape journalism : With the\u2026 http://t.co/8DSd8IEJT3 #iWatch #AppleWatch http://t.co/uktvDIyNzv
p30
aV#AppleWatch #iOS \u2013 How Apple Watch could reshape journalism :\u2026 http://t.co/WmNmbxXw1f #iWatch #AppleWatch #applewatch #glancejournalism
p31
aV#AppleWatch #iOS \u2013 How Apple Watch could reshape journalism : With the\u2026 http://t.co/VdLmw5RElO #iWatch #AppleWatch http://t.co/6DJRjtZ6UR
p32
aV#AppleWatch #iOS \u2013 How Apple Watch could\u2026 http://t.co/ZCKjK9rZcL #iWatch #AppleWatch #applewatch #glancejournalism http://t.co/cGTF0ypqZV
p33
aV#AppleWatch #iOS \u2013 How Apple Watch could reshape journalism :\u2026 http://t.co/oLpnSXsqEA #iWatch #AppleWatch #applewatch #glancejournalism
p34
aV#AppleWatch #iOS \u2013 How Apple Watch could reshape journalism : With the\u2026 http://t.co/92AEA3B9AZ #iWatch #AppleWatch http://t.co/awjCNLgL9P
p35
aVHow Apple Watch could reshape journalism http://t.co/Rnhbmah0Cu #iWatch #AppleWatch #applewatch #glancejournalism http://t.co/wb2b20yvs2
p36
aV#AppleWatch #iOS \u2013 How Apple Watch could reshape journalism :\u2026 http://t.co/cM2iF5erXE #iWatch #AppleWatch #applewatch #glancejournalism
p37
aV#AppleWatch #iOS \u2013 How Apple Watch could reshape journalism :\u2026 http://t.co/WeI0MIu3Ld #iWatch #AppleWatch #applewatch #glancejournalism
p38
aVHow Apple Watch could reshape journalism http://t.co/h9xZ0FTY4c #iWatch #AppleWatch #applewatch #glancejournalism
p39
aV#AppleWatch #iOS \u2013 How Apple Watch could reshape journalism : With the\u2026 http://t.co/DOYDu3aCOy #iWatch #AppleWatch http://t.co/iQ4jEsWtf5
p40
aV#AppleWatch #iOS \u2013 How Apple Watch could reshape journalism : With the\u2026 http://t.co/Z6wfNbnIiP #iWatch #AppleWatch http://t.co/rj7lajBtJB
p41
aV#AppleWatch #iOS \u2013 How Apple Watch could\u2026 http://t.co/dRigjfRxhO #iWatch #AppleWatch #applewatch #glancejournalism http://t.co/uF58Zv51E9
p42
aV#AppleWatch #iOS \u2013 How Apple Watch could\u2026 http://t.co/j6f77baipm #iWatch #AppleWatch #applewatch #glancejournalism http://t.co/Ul0rjbwhoR
p43
aV#AppleWatch #iOS \u2013 How Apple Watch could reshape journalism : With the Apple Watch expected to\u2026 http://t.co/hqHWBLkbT3 #iWatch #AppleWatch
p44
aV#iPhone6s #iPhoneSeries \u2013 Next iPhone to feature stronger 7000\u2026 http://t.co/0hDDO90uXD #iPhone #7000series #aluminium #Apple #AppleWatch
p45
aV#AppleWatch #iOS \u2013 How Apple Watch could reshape journalism : With the Apple Watch expected to\u2026 http://t.co/QWlqdE6j7R #iWatch #AppleWatch
p46
aV#iPhone6s #iPhoneSeries \u2013 Next iPhone to feature stronger 7000\u2026 http://t.co/xcKixhOWrq #iPhone #7000series #aluminium #Apple #AppleWatch
p47
aV#AppleWatch #iOS \u2013 How Apple Watch could reshape journalism : With the\u2026 http://t.co/4lgCNBVHOp #iWatch #AppleWatch http://t.co/0H0LP8JHFU
p48
aV#AppleWatch #iOS \u2013 How Apple Watch could reshape journalism : With the\u2026 http://t.co/NtJMJOQubS #iWatch #AppleWatch http://t.co/Y6UhdJCVoQ
p49
aV#AppleWatch #iOS \u2013 How Apple Watch could reshape journalism : With the Apple Watch expected to\u2026 http://t.co/2z7TQlEQOm #iWatch #AppleWatch
p50
aV#AppleWatch #iOS \u2013 How Apple Watch could reshape journalism :\u2026 http://t.co/hPoJmgv5jV #iWatch #AppleWatch #applewatch #glancejournalism
p51
aV#AppleWatch #iOS \u2013 How Apple Watch could reshape journalism : With the Apple Watch expected to\u2026 http://t.co/fKIBRrZhav #iWatch #AppleWatch
p52
aV#AppleWatch #iOS \u2013 How Apple Watch could\u2026 http://t.co/m7KRlQBk7N #iWatch #AppleWatch #applewatch #glancejournalism http://t.co/VOeKlv6JXn
p53
aV#AppleWatch #iOS \u2013 How Apple Watch could\u2026 http://t.co/b8BlsdrZhs #iWatch #AppleWatch #applewatch #glancejournalism http://t.co/bcfHGI5wJB
p54
aV#AppleWatch #iOS \u2013 How Apple Watch could reshape journalism :\u2026 http://t.co/vnLWGyOYOq #iWatch #AppleWatch #applewatch #glancejournalism
p55
aV#iPhone6s #iPhoneSeries \u2013 Next iPhone to\u2026 http://t.co/ckVBdQlBAx #iPhone #7000series #aluminium #Apple #AppleWatch http://t.co/5lkwPw8CZT
p56
aVNext iPhone to feature stronger 7000 series aluminium http://t.co/Jclrwgf40C #iPhone #7000series #aluminium #Apple #AppleWatch
p57
aV#AppleWatch #iOS \u2013 How Apple Watch could reshape journalism : With the Apple Watch expected to\u2026 http://t.co/XtsZsRboFT #iWatch #AppleWatch
p58
aV#AppleWatch #iOS \u2013 How Apple Watch could reshape journalism :\u2026 http://t.co/rEsd3movWA #iWatch #AppleWatch #applewatch #glancejournalism
p59
aV#AppleWatch #iOS \u2013 How Apple Watch could\u2026 http://t.co/BDXI67VfnG #iWatch #AppleWatch #applewatch #glancejournalism http://t.co/oCXRkeJBQ4
p60
aV#AppleWatch #iOS \u2013 How Apple Watch could reshape journalism : With the Apple Watch expected to\u2026 http://t.co/W9TqiIHZjZ #iWatch #AppleWatch
p61
aV#AppleWatch #iOS \u2013 How Apple Watch could reshape journalism :\u2026 http://t.co/UCuyNtkywu #iWatch #AppleWatch #applewatch #glancejournalism
p62
aV#AppleWatch #iOS \u2013 How Apple Watch could reshape journalism : With the Apple Watch expected to\u2026 http://t.co/Ycg4gWHezA #iWatch #AppleWatch
p63
aV#AppleWatch #iOS \u2013 How Apple Watch could reshape journalism :\u2026 http://t.co/lwzOrzgOwG #iWatch #AppleWatch #applewatch #glancejournalism
p64
aV#AppleWatch #iOS \u2013 How Apple Watch could reshape journalism : With the\u2026 http://t.co/VvioOGiZKL #iWatch #AppleWatch http://t.co/mv3GqNnllb
p65
aV#iPhone6s #iPhoneSeries \u2013 Next iPhone to\u2026 http://t.co/YSGkkRdMcs #iPhone #7000series #aluminium #Apple #AppleWatch http://t.co/122mfmsjAQ
p66
aV#AppleWatch #iOS \u2013 How Apple Watch could reshape journalism :\u2026 http://t.co/izlL1tsZSk #iWatch #AppleWatch #applewatch #glancejournalism
p67
aV#AppleWatch #iOS \u2013 How Apple Watch could\u2026 http://t.co/oyczgW52XY #iWatch #AppleWatch #applewatch #glancejournalism http://t.co/2mrRORL7Vd
p68
aV#AppleWatch #iOS \u2013 How Apple Watch could reshape journalism : With the Apple Watch expected to\u2026 http://t.co/sw0noQFsWf #iWatch #AppleWatch
p69
aV#AppleWatch #iOS \u2013 How Apple Watch could reshape journalism :\u2026 http://t.co/vSwbgqLm2d #iWatch #AppleWatch #applewatch #glancejournalism
p70
aV#iPhone6s #iPhoneSeries \u2013 Next iPhone to\u2026 http://t.co/xOYmCq6OQl #iPhone #7000series #aluminium #Apple #AppleWatch http://t.co/ci80JAmiFt
p71
aV#AppleWatch #iOS \u2013 How Apple Watch could reshape journalism : With the\u2026 http://t.co/zRmPCExuoQ #iWatch #AppleWatch http://t.co/NqIRK0zUqB
p72
aV#AppleWatch #iOS \u2013 How Apple Watch could reshape journalism : With the Apple Watch expected to\u2026 http://t.co/97c8aGEmux #iWatch #AppleWatch
p73
aV#AppleWatch #iOS \u2013 How Apple Watch could reshape journalism : With the Apple Watch expected to\u2026 http://t.co/Z89WJr5xEy #iWatch #AppleWatch
p74
aV#AppleWatch #iOS \u2013 How Apple Watch could reshape journalism : With the Apple Watch expected to\u2026 http://t.co/foXeLLu7xA #iWatch #AppleWatch
p75
aVHow Apple Watch could reshape journalism http://t.co/SBzn90r5rO #iWatch #AppleWatch #applewatch #glancejournalism
p76
aVNext iPhone to feature stronger 7000 series aluminium http://t.co/3O2alHnPTb #iPhone #7000series #aluminium #Apple #AppleWatch
p77
aV#AppleWatch #iOS \u2013 How Apple Watch could reshape journalism : With the\u2026 http://t.co/F41nt52mC4 #iWatch #AppleWatch http://t.co/3ZgQatn61Y
p78
aV#AppleWatch #iOS \u2013 How Apple Watch could reshape journalism : With the\u2026 http://t.co/nHjvnBgSFr #iWatch #AppleWatch http://t.co/OG43zzDX0V
p79
aV#AppleWatch #iOS \u2013 How Apple Watch could reshape journalism :\u2026 http://t.co/ZCKjK9rZcL #iWatch #AppleWatch #applewatch #glancejournalism
p80
aV#iPhone6s #iPhoneSeries \u2013 Next iPhone to\u2026 http://t.co/z6rifFCWU0 #iPhone #7000series #aluminium #Apple #AppleWatch http://t.co/W4Oe6QAU45
p81
aV#AppleWatch #iOS \u2013 How Apple Watch could reshape journalism : With the Apple Watch expected to\u2026 http://t.co/0PFT6zPj4Q #iWatch #AppleWatch
p82
aV#AppleWatch #iOS \u2013 How Apple Watch could reshape journalism : With the\u2026 http://t.co/QWlqdE6j7R #iWatch #AppleWatch http://t.co/im8DxzCsKw
p83
aV#AppleWatch #iOS \u2013 How Apple Watch could\u2026 http://t.co/MLwvxNnkAK #iWatch #AppleWatch #applewatch #glancejournalism http://t.co/8WGPgVSmKT
p84
aV#AppleWatch #iOS \u2013 How Apple Watch could reshape journalism : With the\u2026 http://t.co/y5TvIr8Ykh #iWatch #AppleWatch http://t.co/5CSpr1v337
p85
aV#iPhone6s #iPhoneSeries \u2013 Next iPhone to feature stronger 7000\u2026 http://t.co/q8RoxcSybd #iPhone #7000series #aluminium #Apple #AppleWatch
p86
aV#AppleWatch #iOS \u2013 How Apple Watch could reshape journalism : With the Apple Watch expected to\u2026 http://t.co/92AEA3B9AZ #iWatch #AppleWatch
p87
aV#AppleWatch #iOS \u2013 How Apple Watch could reshape journalism :\u2026 http://t.co/ljlPllFcq1 #iWatch #AppleWatch #applewatch #glancejournalism
p88
aV#AppleWatch #iOS \u2013 How Apple Watch could reshape journalism : With the\u2026 http://t.co/ugyleSey38 #iWatch #AppleWatch http://t.co/S3VanJwGFO
p89
aV#AppleWatch #iOS \u2013 How Apple Watch could\u2026 http://t.co/m5gPXjdl0V #iWatch #AppleWatch #applewatch #glancejournalism http://t.co/zXLXwnAkcX
p90
aV#AppleWatch #iOS \u2013 How Apple Watch could reshape journalism :\u2026 http://t.co/6ffgtV4ieD #iWatch #AppleWatch #applewatch #glancejournalism
p91
aV#AppleWatch #iOS \u2013 How Apple Watch could reshape journalism : With the Apple Watch expected to\u2026 http://t.co/r7RujTFc1G #iWatch #AppleWatch
p92
aV#AppleWatch #iOS \u2013 How Apple Watch could reshape journalism :\u2026 http://t.co/MLwvxNnkAK #iWatch #AppleWatch #applewatch #glancejournalism
p93
aV#AppleWatch #iOS \u2013 How Apple Watch could reshape journalism : With the Apple Watch expected to\u2026 http://t.co/Z6wfNbnIiP #iWatch #AppleWatch
p94
aVHow Apple Watch could reshape journalism http://t.co/h9xZ0FCncE #iWatch #AppleWatch #applewatch #glancejournalism http://t.co/7tMYeky3lx
p95
aV#AppleWatch #iOS \u2013 How Apple Watch could reshape journalism :\u2026 http://t.co/7dIkB0WjN0 #iWatch #AppleWatch #applewatch #glancejournalism
p96
aV#AppleWatch #iOS \u2013 How Apple Watch could\u2026 http://t.co/CdHmEziyCY #iWatch #AppleWatch #applewatch #glancejournalism http://t.co/4ShiTusz50
p97
aV#iPhone6s #iPhoneSeries \u2013 Next iPhone to feature stronger 7000\u2026 http://t.co/CMTRSq8PKb #iPhone #7000series #aluminium #Apple #AppleWatch
p98
aV#AppleWatch #iOS \u2013 How Apple Watch could reshape journalism : With the Apple Watch expected to\u2026 http://t.co/DOYDu3aCOy #iWatch #AppleWatch
p99
aV#AppleWatch #iOS \u2013 How Apple Watch could\u2026 http://t.co/lwzOrzgOwG #iWatch #AppleWatch #applewatch #glancejournalism http://t.co/jpdQFG2q3g
p100
a.