(lp0
V#\u30b9\u30de\u30db \u306e#\u30b1\u30fc\u30b9\u3044\u308d\u3044\u308d\u3042\u308a\u307e\u3059\u3002 \u300e\u30b9\u30de\u30db\u30b1\u30fc\u30b9\u300f\u3092\u898b\u308b [\u697d\u5929] http://t.co/xDviUdCyBV #applewatch from instagram http://t.co/toMVjDD1Ba http://t.co/36HlBElLpl
p1
aV#\u30b9\u30de\u30db \u306e#\u30b1\u30fc\u30b9\u3044\u308d\u3044\u308d\u3042\u308a\u307e\u3059\u3002 \u300e\u30b9\u30de\u30db\u30b1\u30fc\u30b9\u300f\u3092\u898b\u308b [\u697d\u5929] http://t.co/xDviUdCyBV #applewatch from instagram http://t.co/n7Qu16JggN http://t.co/nGzxjg5dog
p2
aV#\u30b9\u30de\u30db \u306e#\u30b1\u30fc\u30b9\u3044\u308d\u3044\u308d\u3042\u308a\u307e\u3059\u3002 \u300e\u30b9\u30de\u30db\u30b1\u30fc\u30b9\u300f\u3092\u898b\u308b [\u697d\u5929] http://t.co/xDviUdCyBV #applewatch from instagram http://t.co/dZ9TxlGD2l http://t.co/55RiGAAsUo
p3
aV#\u30b9\u30de\u30db \u306e#\u30b1\u30fc\u30b9\u3044\u308d\u3044\u308d\u3042\u308a\u307e\u3059\u3002 \u300e\u30b9\u30de\u30db\u30b1\u30fc\u30b9\u300f\u3092\u898b\u308b [\u697d\u5929] http://t.co/xDviUdCyBV #applewatch from instagram http://t.co/dz5q6hu8ub http://t.co/Y0lKyOttmN
p4
aV#AppleWatch - Has its time has come at last http://t.co/jXpR540k2w
p5
aVI HAD to flex with the #AppleWatch this is the future. Some of my favorite bands. Gotta get this shit\u2026 https://t.co/nhnoYNnum1
p6
aVNow you can get your selfies printed on your Apple Watch http://t.co/V4jugb0doN #applewatch
p7
aVAppleWatch\u306f\u30c7\u30e2\u3092\u89e6\u3063\u305f\u6642\u306e\u5370\u8c61\u3068\u8a66\u7740\u3057\u305f\u6642\u306e\u5370\u8c61\u304c\u5168\u304f\u9055\u3046\u304b\u3089\u8a66\u7740\u5f8c\u8cfc\u5165\u3092\u30aa\u30b9\u30b9\u30e1
p8
aVRT @iPhoneHackx: ICYMI: Smartwatch Showdown: Pebble Time vs. Apple Watch http://t.co/8Dcufw2NUc #PebbleTime #AppleWatch http://t.co/hO4V8xq\u2026
p9
aVRT @applebluehell: I'm now patiently waiting and going to start checking my order status on my #AppleWatch. This is the week! Excited.\u231a\ufe0f ht\u2026
p10
aVWhat do you want to know about the #AppleWatch? http://t.co/pkBj8dG4Xq
p11
aVRT @tomsguide: What do you want to know about the #AppleWatch? http://t.co/pkBj8dG4Xq
p12
aVover 1k views! RT @Georgia_Dow: Adjusting the size of the #applewatch modern buckle \u000aEasier than I thought - http://t.co/uPYmBsfzgP
p13
aVSend me details/info: contact@oralofori.com https://t.co/TUDRh8ykzp
p14
aV#AppleWatch #T - I am thinking about whether this is worth it. @ Apple Store, Southpoint https://t.co/G89MLTNsLm
p15
aV\u30bd\u30fc\u30b7\u30e3\u30eb\u3067\u9700\u7d66\u304c\u30b3\u30f3\u30c8\u30ed\u30fc\u30eb\u51fa\u6765\u306a\u304f\u306a\u308b\u307b\u3069\u903c\u8feb\u3063\u3066\u3001\u5b9f\u52d9\u3092\u77e5\u3089\u306a\u3044\u4eba\u306e\u622f\u8a00\u3002Applewatch\u306a\u3089\u307e\u3060\u3057\u3082\u3001\u5c71\u7a4d\u307f\u306e\u5e97\u3068\u305d\u3046\u3067\u306a\u3044\u5e97\u306e\u5dee\u304c\u3042\u308b\u306e\u3060\u304b\u3089\u3001\u30bd\u30fc\u30b7\u30e3\u30eb\u306f\u95a2\u4fc2\u306a\u3044\u3088\u3002
p16
aV@jetscott How does sound control work on #AppleWatch? Is it silenced if your iPhone is silenced or is it independent?
p17
aVI wonder how many times I'll check my Apple Order status this week \u2026 #AppleWatch
p18
aV#Watch #Wearable \u2013 Apple Watch: Why its time has come at last \u2013 One of the\u2026 http://t.co/6E0msHiAnR #Apple #iWatch #AppleWatch #apps #iOS
p19
aV#Watch #Wearable \u2013 Apple Watch: Why its time has come at last \u2013 One of the\u2026 http://t.co/bRzYHXEB2c #Apple #iWatch #AppleWatch #apps #iOS
p20
aV#Watch #Wearable \u2013 Apple Watch: Why its time has come at last \u2013 One of the\u2026 http://t.co/p1yAMYzuNu #Apple #iWatch #AppleWatch #apps #iOS
p21
aVWhy its time has come at last: Apple Watch http://t.co/dEinSVYDQw #Apple #iWatch #AppleWatch #apps #iOS
p22
aV#Watch #Wearable \u2013 Apple Watch: Why its time has come at last \u2013 One of the\u2026 http://t.co/LbdlqTGBhm #Apple #iWatch #AppleWatch #apps #iOS
p23
aV#Watch #Wearable \u2013 Apple Watch: Why its time has come at last \u2013 One of the\u2026 http://t.co/Rx8RqEY7Y3 #Apple #iWatch #AppleWatch #apps #iOS
p24
aV#Watch #Wearable \u2013 Apple Watch: Why its time has come at last \u2013 One of the\u2026 http://t.co/XBf4zUDvG2 #Apple #iWatch #AppleWatch #apps #iOS
p25
aV#Watch #Wearable \u2013 Apple Watch: Why its time has come at last \u2013 One of the\u2026 http://t.co/xH5teY5DI7 #Apple #iWatch #AppleWatch #apps #iOS
p26
aV#Watch #Wearable \u2013 Apple Watch: Why its time has come at last \u2013 One of the\u2026 http://t.co/f7bj20ZqZF #Apple #iWatch #AppleWatch #apps #iOS
p27
aV#Watch #Wearable \u2013 Apple Watch: Why its time has come at last \u2013 One of the\u2026 http://t.co/1yoZQVLUfH #Apple #iWatch #AppleWatch #apps #iOS
p28
aV#Watch #Wearable \u2013 Apple Watch: Why its time has come at last \u2013 One of the\u2026 http://t.co/WxiknUOa7F #Apple #iWatch #AppleWatch #apps #iOS
p29
aV#Watch #Wearable \u2013 Apple Watch: Why its time has come at last \u2013 One of the\u2026 http://t.co/cS4pft9BT4 #Apple #iWatch #AppleWatch #apps #iOS
p30
aV#Watch #Wearable \u2013 Apple Watch: Why its time has come at last \u2013 One of the\u2026 http://t.co/hgeOQnt6CK #Apple #iWatch #AppleWatch #apps #iOS
p31
aV#Watch #Wearable \u2013 Apple Watch: Why its time has come at last \u2013 One of the\u2026 http://t.co/E2MSoW2mzu #Apple #iWatch #AppleWatch #apps #iOS
p32
aV#Watch #Wearable \u2013 Apple Watch: Why its time has come at last \u2013 One of the\u2026 http://t.co/ubfDpwarOh #Apple #iWatch #AppleWatch #apps #iOS
p33
aVWhy its time has come at last: Apple Watch http://t.co/rLr6dUKNkg #Apple #iWatch #AppleWatch #apps #iOS
p34
aV#Watch #Wearable \u2013 Apple Watch: Why its time has come at last \u2013 One of the\u2026 http://t.co/pQwYDyOwFu #Apple #iWatch #AppleWatch #apps #iOS
p35
aV#Watch #Wearable \u2013 Apple Watch: Why its time has come at last \u2013 One of the\u2026 http://t.co/HaUaJ3Fony #Apple #iWatch #AppleWatch #apps #iOS
p36
aV#Watch #Wearable \u2013 Apple Watch: Why its time has come at last \u2013 One of the\u2026 http://t.co/6qSSCtwtIp #Apple #iWatch #AppleWatch #apps #iOS
p37
aV#Watch #Wearable \u2013 Apple Watch: Why its time has come at last \u2013 One of the\u2026 http://t.co/389h7I8e7F #Apple #iWatch #AppleWatch #apps #iOS
p38
aV#Watch #Wearable \u2013 Apple Watch: Why its time has come at last \u2013 One of the\u2026 http://t.co/wSAusemYEL #Apple #iWatch #AppleWatch #apps #iOS
p39
aV#Watch #Wearable \u2013 Apple Watch: Why its time has come at last \u2013 One of the\u2026 http://t.co/Xda4XwDLaT #Apple #iWatch #AppleWatch #apps #iOS
p40
aV#Watch #Wearable \u2013 Apple Watch: Why its time has come at last \u2013 One of the\u2026 http://t.co/buA1nRr29L #Apple #iWatch #AppleWatch #apps #iOS
p41
aV#Watch #Wearable \u2013 Apple Watch: Why its time has come at last \u2013 One of the\u2026 http://t.co/D2pXaLI1qG #Apple #iWatch #AppleWatch #apps #iOS
p42
aVWhy its time has come at last: Apple Watch http://t.co/5arLkVaUUB #Apple #iWatch #AppleWatch #apps #iOS
p43
aVWhy its time has come at last: Apple Watch http://t.co/v7u07Q6i5T #Apple #iWatch #AppleWatch #apps #iOS
p44
aV#Watch #Wearable \u2013 Apple Watch: Why its time has come at last \u2013 One of the\u2026 http://t.co/uZ1Bk8WXvK #Apple #iWatch #AppleWatch #apps #iOS
p45
aV#Watch #Wearable \u2013 Apple Watch: Why its time has come at last \u2013 One of the\u2026 http://t.co/sZz0F6qVgW #Apple #iWatch #AppleWatch #apps #iOS
p46
aVWhy its time has come at last: Apple Watch http://t.co/OmIbcOt1TN #Apple #iWatch #AppleWatch #apps #iOS
p47
aV#Watch #Wearable \u2013 Apple Watch: Why its time has come at last \u2013 One of the\u2026 http://t.co/iDBrJNgbRh #Apple #iWatch #AppleWatch #apps #iOS
p48
aV#Watch #Wearable \u2013 Apple Watch: Why its time has come at last \u2013 One of the\u2026 http://t.co/dii8k33xAO #Apple #iWatch #AppleWatch #apps #iOS
p49
aV#Watch #Wearable \u2013 Apple Watch: Why its time has come at last \u2013 One of the\u2026 http://t.co/jefaHTJDge #Apple #iWatch #AppleWatch #apps #iOS
p50
aV#Watch #Wearable \u2013 Apple Watch: Why its time has come at last \u2013 One of the\u2026 http://t.co/8462sKsGZQ #Apple #iWatch #AppleWatch #apps #iOS
p51
aVWhy its time has come at last: Apple Watch http://t.co/21Pf4u0IMm #Apple #iWatch #AppleWatch #apps #iOS
p52
aV#Watch #Wearable \u2013 Apple Watch: Why its time has come at last \u2013 One of the\u2026 http://t.co/1xsXMNKpWy #Apple #iWatch #AppleWatch #apps #iOS
p53
aV#Watch #Wearable \u2013 Apple Watch: Why its time has come at last \u2013 One of the\u2026 http://t.co/S55eVURC01 #Apple #iWatch #AppleWatch #apps #iOS
p54
aV#Watch #Wearable \u2013 Apple Watch: Why its time has come\u2026 http://t.co/ECmVVsB0LZ #Apple #iWatch #AppleWatch #apps #iOS http://t.co/DDKhfPCdds
p55
aV#Watch #Wearable \u2013 Apple Watch: Why its time has come at last \u2013 One of the\u2026 http://t.co/vfanPTe4xr #Apple #iWatch #AppleWatch #apps #iOS
p56
aV#Watch #Wearable \u2013 Apple Watch: Why its time has come at last \u2013 One of the\u2026 http://t.co/iKgeFtD9B5 #Apple #iWatch #AppleWatch #apps #iOS
p57
aV#Watch #Wearable \u2013 Apple Watch: Why its time has come at last \u2013 One of the\u2026 http://t.co/XWICdQ8Cay #Apple #iWatch #AppleWatch #apps #iOS
p58
aV#Watch #Wearable \u2013 Apple Watch: Why its time has come at last \u2013 One of the\u2026 http://t.co/P5Dho76GaQ #Apple #iWatch #AppleWatch #apps #iOS
p59
aV#Watch #Wearable \u2013 Apple Watch: Why its time has come at last \u2013 One of the\u2026 http://t.co/ElnIwqElX2 #Apple #iWatch #AppleWatch #apps #iOS
p60
aVWhy its time has come at last: Apple Watch http://t.co/Ayb1ACAJCf #Apple #iWatch #AppleWatch #apps #iOS http://t.co/p716zDBbAH
p61
aVWhy its time has come at last: Apple Watch http://t.co/qlaPJiKKnl #Apple #iWatch #AppleWatch #apps #iOS http://t.co/ZbkankJF1y
p62
aV#Watch #Wearable \u2013 Apple Watch: Why its time has come at last \u2013 One of the\u2026 http://t.co/WOrtBr1ULH #Apple #iWatch #AppleWatch #apps #iOS
p63
aVWhy its time has come at last: Apple Watch http://t.co/P90NqTAnPV #Apple #iWatch #AppleWatch #apps #iOS http://t.co/zpCREuN10z
p64
aV#Watch #Wearable \u2013 Apple Watch: Why its time has come at last \u2013 One of the\u2026 http://t.co/TI2Ht11cj5 #Apple #iWatch #AppleWatch #apps #iOS
p65
aV#Watch #Wearable \u2013 Apple Watch: Why its time has come at last \u2013 One of the\u2026 http://t.co/NImfpfc72x #Apple #iWatch #AppleWatch #apps #iOS
p66
aVWhy its time has come at last: Apple Watch http://t.co/1zQApvY7Fo #Apple #iWatch #AppleWatch #apps #iOS
p67
aVWhy its time has come at last: Apple Watch http://t.co/vmm2YhWqtc #Apple #iWatch #AppleWatch #apps #iOS
p68
aV#Watch #Wearable \u2013 Apple Watch: Why its time has come\u2026 http://t.co/dii8k33xAO #Apple #iWatch #AppleWatch #apps #iOS http://t.co/sxQavby3iM
p69
aVWhy its time has come at last: Apple Watch http://t.co/FhkbyOhzNQ #Apple #iWatch #AppleWatch #apps #iOS
p70
aVWhy its time has come at last: Apple Watch http://t.co/7vMkr2b8IZ #Apple #iWatch #AppleWatch #apps #iOS
p71
aV#Watch #Wearable \u2013 Apple Watch: Why its time has come at last \u2013 One of the\u2026 http://t.co/3IpZ5DDDPz #Apple #iWatch #AppleWatch #apps #iOS
p72
aV#Watch #Wearable \u2013 Apple Watch: Why its time has come at last \u2013 One of the\u2026 http://t.co/NP5hFHx1Jk #Apple #iWatch #AppleWatch #apps #iOS
p73
aV#Watch #Wearable \u2013 Apple Watch: Why its time has come at last \u2013 One of the\u2026 http://t.co/d8xnbQtKym #Apple #iWatch #AppleWatch #apps #iOS
p74
aVWhy its time has come at last: Apple Watch http://t.co/ijhOjEuE26 #Apple #iWatch #AppleWatch #apps #iOS
p75
aVWhy its time has come at last: Apple Watch http://t.co/TJvE4Bo1XB #Apple #iWatch #AppleWatch #apps #iOS http://t.co/fIlNzDziJi
p76
aV#Watch #Wearable \u2013 Apple Watch: Why its time has come at last \u2013 One of the\u2026 http://t.co/9Daw4bDzwE #Apple #iWatch #AppleWatch #apps #iOS
p77
aV#Watch #Wearable \u2013 Apple Watch: Why its time has come at last \u2013 One of the\u2026 http://t.co/Xt64AY5wXo #Apple #iWatch #AppleWatch #apps #iOS
p78
aVWhy its time has come at last: Apple Watch http://t.co/U17U07QxTs #Apple #iWatch #AppleWatch #apps #iOS
p79
aV#Watch #Wearable \u2013 Apple Watch: Why its time has come at last \u2013 One of the\u2026 http://t.co/pWzbEz0UKB #Apple #iWatch #AppleWatch #apps #iOS
p80
aV#Watch #Wearable \u2013 Apple Watch: Why its time has come at last \u2013 One of the\u2026 http://t.co/rlLRpJnLNb #Apple #iWatch #AppleWatch #apps #iOS
p81
aV#Watch #Wearable \u2013 Apple Watch: Why its time has come at last \u2013 One of the\u2026 http://t.co/G3z743d635 #Apple #iWatch #AppleWatch #apps #iOS
p82
aV#Watch #Wearable \u2013 Apple Watch: Why its time has come at last \u2013 One of the\u2026 http://t.co/yL0i9ZCd0S #Apple #iWatch #AppleWatch #apps #iOS
p83
aV#Watch #Wearable \u2013 Apple Watch: Why its time has come at last \u2013 One of the\u2026 http://t.co/V6dPrHbito #Apple #iWatch #AppleWatch #apps #iOS
p84
aV#Watch #Wearable \u2013 Apple Watch: Why its time has come\u2026 http://t.co/Zt0GRtEY3j #Apple #iWatch #AppleWatch #apps #iOS http://t.co/ym538bERYI
p85
aV#Watch #Wearable \u2013 Apple Watch: Why its time has come at last \u2013 One of the\u2026 http://t.co/MjVJvtQUew #Apple #iWatch #AppleWatch #apps #iOS
p86
aV#Watch #Wearable \u2013 Apple Watch: Why its time has come at last \u2013 One of the\u2026 http://t.co/kqbN2X6uxo #Apple #iWatch #AppleWatch #apps #iOS
p87
aV#Watch #Wearable \u2013 Apple Watch: Why its time has come\u2026 http://t.co/kDsmAz8apo #Apple #iWatch #AppleWatch #apps #iOS http://t.co/AerqYfDHBJ
p88
aVRT @AnthonyCDavison: My son wanted an #AppleWatch, so I obliged.  They`re not doing much though.  I`ll keep you posted. http://t.co/FVWUKzh\u2026
p89
aV#Watch #Wearable \u2013 Apple Watch: Why its time has come at last \u2013 One of the\u2026 http://t.co/Pwpx5ZnWFc #Apple #iWatch #AppleWatch #apps #iOS
p90
aV#Watch #Wearable \u2013 Apple Watch: Why its time has come at last \u2013 One of the\u2026 http://t.co/qsxr9jmt8d #Apple #iWatch #AppleWatch #apps #iOS
p91
aV#AppleWatch pre-orders delays its availability in the stores http://t.co/lSAxTpF0vM
p92
aV#Watch #Wearable \u2013 Apple Watch: Why its time has come at last \u2013 One of the\u2026 http://t.co/Wf5aX6O9Yz #Apple #iWatch #AppleWatch #apps #iOS
p93
aV#Watch #Wearable \u2013 Apple Watch: Why its time has come at last \u2013 One of the\u2026 http://t.co/YnLgyPqPe5 #Apple #iWatch #AppleWatch #apps #iOS
p94
aV#Watch #Wearable \u2013 Apple Watch: Why its time has come at last \u2013 One of the\u2026 http://t.co/JG1kRptnlC #Apple #iWatch #AppleWatch #apps #iOS
p95
aV#Watch #Wearable \u2013 Apple Watch: Why its time has come at last \u2013 One of the\u2026 http://t.co/f4jkn5oUyG #Apple #iWatch #AppleWatch #apps #iOS
p96
aV#Watch #Wearable \u2013 Apple Watch: Why its time has come at last \u2013 One of the\u2026 http://t.co/yRp9ihO3Jg #Apple #iWatch #AppleWatch #apps #iOS
p97
aV#AppleWatch: Why its time has come at last http://t.co/O83UrBTs0f
p98
aV#Watch #Wearable \u2013 Apple Watch: Why its time has come at last \u2013 One of the\u2026 http://t.co/COk6OFDWNt #Apple #iWatch #AppleWatch #apps #iOS
p99
aV#Watch #Wearable \u2013 Apple Watch: Why its time has come at last \u2013 One of the\u2026 http://t.co/dbUCKg3O6P #Apple #iWatch #AppleWatch #apps #iOS
p100
a.