(lp0
V#AppleWatch #iOS \u2013 How Apple Watch could reshape journalism :\u2026 http://t.co/m7KRlQBk7N #iWatch #AppleWatch #applewatch #glancejournalism
p1
aV#AppleWatch #iOS \u2013 How Apple Watch could reshape journalism : With the Apple Watch expected to\u2026 http://t.co/4lgCNBVHOp #iWatch #AppleWatch
p2
aV#AppleWatch #iOS \u2013 How Apple Watch could reshape journalism : With the\u2026 http://t.co/SZceqm7r9p #iWatch #AppleWatch http://t.co/77zdFYOBbV
p3
aV#AppleWatch #iOS \u2013 How Apple Watch could\u2026 http://t.co/hPoJmgMGIv #iWatch #AppleWatch #applewatch #glancejournalism http://t.co/tuxxWxzy3m
p4
aV#AppleWatch #iOS \u2013 How Apple Watch could\u2026 http://t.co/UCuyNtkywu #iWatch #AppleWatch #applewatch #glancejournalism http://t.co/EmicPmF4N5
p5
aV#AppleWatch #iOS \u2013 How Apple Watch could reshape journalism : With the Apple Watch expected to\u2026 http://t.co/VvioOGiZKL #iWatch #AppleWatch
p6
aV#iPhone6s #iPhoneSeries \u2013 Next iPhone to\u2026 http://t.co/ZjhdxG1q8D #iPhone #7000series #aluminium #Apple #AppleWatch http://t.co/33GLFndQ4z
p7
aV#AppleWatch #iOS \u2013 How Apple Watch could reshape journalism :\u2026 http://t.co/BDXI67VfnG #iWatch #AppleWatch #applewatch #glancejournalism
p8
aVHow Apple Watch could reshape journalism http://t.co/Ojkm7AQi4a #iWatch #AppleWatch #applewatch #glancejournalism
p9
aV#AppleWatch #iOS \u2013 How Apple Watch could reshape journalism : With the\u2026 http://t.co/3i0q0zgnP8 #iWatch #AppleWatch http://t.co/NdQDxtkHma
p10
aV#AppleWatch #iOS \u2013 How Apple Watch could\u2026 http://t.co/F586qLU1nL #iWatch #AppleWatch #applewatch #glancejournalism http://t.co/labQYhI9to
p11
aV#AppleWatch #iOS \u2013 How Apple Watch could reshape journalism : With the Apple Watch expected to\u2026 http://t.co/NtJMJOQubS #iWatch #AppleWatch
p12
aV#AppleWatch #iOS \u2013 How Apple Watch could reshape journalism : With the\u2026 http://t.co/PErg0Q56o3 #iWatch #AppleWatch http://t.co/EJDYfUGGYM
p13
aV#AppleWatch #iOS \u2013 How Apple Watch could reshape journalism : With the Apple Watch expected to\u2026 http://t.co/VdLmw5RElO #iWatch #AppleWatch
p14
aVHow Apple Watch could reshape journalism http://t.co/SBzn90r5rO #iWatch #AppleWatch #applewatch #glancejournalism http://t.co/se5FWZBsPy
p15
aV#AppleWatch #iOS \u2013 How Apple Watch could reshape journalism : With the\u2026 http://t.co/ozv6oAUCOH #iWatch #AppleWatch http://t.co/3IPo65emfu
p16
aV#AppleWatch #iOS \u2013 How Apple Watch could reshape journalism : With the\u2026 http://t.co/mmowxo0U84 #iWatch #AppleWatch http://t.co/KK7UKsJHTZ
p17
aVNext iPhone to feature stronger 7000\u2026 http://t.co/Jclrwgf40C #iPhone #7000series #aluminium #Apple #AppleWatch http://t.co/DdzgaMvlTG
p18
aV#AppleWatch #iOS \u2013 How Apple Watch could reshape journalism : With the Apple Watch expected to\u2026 http://t.co/F41nt4KLKw #iWatch #AppleWatch
p19
aV#iPhone6s #iPhoneSeries \u2013 Next iPhone to\u2026 http://t.co/q8RoxcSybd #iPhone #7000series #aluminium #Apple #AppleWatch http://t.co/qwI6Etdi4G
p20
aV#AppleWatch #iOS \u2013 How Apple Watch could reshape journalism : With the Apple Watch expected to\u2026 http://t.co/nHjvnBgSFr #iWatch #AppleWatch
p21
aVHow Apple Watch could reshape journalism http://t.co/1daXv9pkvw #iWatch #AppleWatch #applewatch #glancejournalism
p22
aV#AppleWatch #iOS \u2013 How Apple Watch could\u2026 http://t.co/Vo1xerkp31 #iWatch #AppleWatch #applewatch #glancejournalism http://t.co/yyCZZDHeVx
p23
aV#AppleWatch #iOS \u2013 How Apple Watch could reshape journalism : With the Apple Watch expected to\u2026 http://t.co/zRmPCExuoQ #iWatch #AppleWatch
p24
aV#AppleWatch #iOS \u2013 How Apple Watch could reshape journalism : With the Apple Watch expected to\u2026 http://t.co/CzoSLR7YXO #iWatch #AppleWatch
p25
aV#AppleWatch #iOS \u2013 How Apple Watch could reshape journalism : With the\u2026 http://t.co/4cATiS69ts #iWatch #AppleWatch http://t.co/fHir4rmsAk
p26
aV#AppleWatch #iOS \u2013 How Apple Watch could reshape journalism : With the Apple Watch expected to\u2026 http://t.co/CxiCs3PpGQ #iWatch #AppleWatch
p27
aV#AppleWatch #iOS \u2013 How Apple Watch could reshape journalism : With the Apple Watch expected to\u2026 http://t.co/y5TvIr8Ykh #iWatch #AppleWatch
p28
aV#AppleWatch #iOS \u2013 How Apple Watch could reshape journalism : With the Apple Watch expected to\u2026 http://t.co/F41nt52mC4 #iWatch #AppleWatch
p29
aV#AppleWatch #iOS \u2013 How Apple Watch could reshape journalism :\u2026 http://t.co/j6f77baipm #iWatch #AppleWatch #applewatch #glancejournalism
p30
aV#AppleWatch #iOS \u2013 How Apple Watch could reshape journalism :\u2026 http://t.co/Vo1xerkp31 #iWatch #AppleWatch #applewatch #glancejournalism
p31
aV#AppleWatch #iOS \u2013 How Apple Watch could\u2026 http://t.co/vSwbgqLm2d #iWatch #AppleWatch #applewatch #glancejournalism http://t.co/OiqEEXk472
p32
aV#iPhone6s #iPhoneSeries \u2013 Next iPhone to feature stronger 7000\u2026 http://t.co/SSEMHlyxFu #iPhone #7000series #aluminium #Apple #AppleWatch
p33
aV#AppleWatch #iOS \u2013 How Apple Watch could reshape journalism : With the Apple Watch expected to\u2026 http://t.co/ugyleSey38 #iWatch #AppleWatch
p34
aVNext iPhone to feature stronger 7000\u2026 http://t.co/3O2alHnPTb #iPhone #7000series #aluminium #Apple #AppleWatch http://t.co/Yr6OrHZn7U
p35
aV#AppleWatch #iOS \u2013 How Apple Watch could\u2026 http://t.co/ljlPllFcq1 #iWatch #AppleWatch #applewatch #glancejournalism http://t.co/YQaIVhZNoX
p36
aV#AppleWatch #iOS \u2013 How Apple Watch could\u2026 http://t.co/OpuONRxNdm #iWatch #AppleWatch #applewatch #glancejournalism http://t.co/HGx4rtBFVG
p37
aV#AppleWatch #iOS \u2013 How Apple Watch could reshape journalism : With the\u2026 http://t.co/kXcPoKvS2y #iWatch #AppleWatch http://t.co/u9QZDIUVZz
p38
aVHow Apple Watch could reshape journalism http://t.co/WDYHMwNksB #iWatch #AppleWatch #applewatch #glancejournalism
p39
aV#AppleWatch #iOS \u2013 How Apple Watch could reshape journalism : With the Apple Watch expected to\u2026 http://t.co/SZceqm7r9p #iWatch #AppleWatch
p40
aV#iPhone6s #iPhoneSeries \u2013 Next iPhone to\u2026 http://t.co/SSEMHlyxFu #iPhone #7000series #aluminium #Apple #AppleWatch http://t.co/TToIqAS0iq
p41
aV#AppleWatch #iOS \u2013 How Apple Watch could reshape journalism : With the Apple Watch expected to\u2026 http://t.co/CzoSLQQo6g #iWatch #AppleWatch
p42
aV#AppleWatch #iOS \u2013 How Apple Watch could reshape journalism :\u2026 http://t.co/CdHmEziyCY #iWatch #AppleWatch #applewatch #glancejournalism
p43
aV#AppleWatch #iOS \u2013 How Apple Watch could\u2026 http://t.co/1WeG6LKnbX #iWatch #AppleWatch #applewatch #glancejournalism http://t.co/55azg1DVFk
p44
aV#AppleWatch #iOS \u2013 How Apple Watch could reshape journalism :\u2026 http://t.co/oyczgW52XY #iWatch #AppleWatch #applewatch #glancejournalism
p45
aVHow Apple Watch could reshape journalism http://t.co/Ojkm7AQi4a #iWatch #AppleWatch #applewatch #glancejournalism http://t.co/vU3KOcyUWz
p46
aV#AppleWatch #iOS \u2013 How Apple Watch could\u2026 http://t.co/VcZg3wYcnE #iWatch #AppleWatch #applewatch #glancejournalism http://t.co/n7oul0Atp5
p47
aV#AppleWatch #iOS \u2013 How Apple Watch could reshape journalism : With the Apple Watch expected to\u2026 http://t.co/3i0q0zgnP8 #iWatch #AppleWatch
p48
aV#iPhone6s #iPhoneSeries \u2013 Next iPhone to\u2026 http://t.co/BrBLabaLD8 #iPhone #7000series #aluminium #Apple #AppleWatch http://t.co/ZGSynTiuWm
p49
aV#AppleWatch #iOS \u2013 How Apple Watch could\u2026 http://t.co/vvYurVR3sN #iWatch #AppleWatch #applewatch #glancejournalism http://t.co/wwFDzsje9Z
p50
aVHow Apple Watch could reshape journalism http://t.co/1daXv9pkvw #iWatch #AppleWatch #applewatch #glancejournalism http://t.co/41o3kjy4WR
p51
aV#AppleWatch #iOS \u2013 How Apple Watch could reshape journalism : With the Apple Watch expected to\u2026 http://t.co/PErg0Q56o3 #iWatch #AppleWatch
p52
aV#AppleWatch #iOS \u2013 How Apple Watch could reshape journalism :\u2026 http://t.co/GPM3WePLpZ #iWatch #AppleWatch #applewatch #glancejournalism
p53
aV#AppleWatch #iOS \u2013 How Apple Watch could reshape journalism : With the\u2026 http://t.co/CxiCs3PpGQ #iWatch #AppleWatch http://t.co/oFdHPSe16d
p54
aV#AppleWatch #iOS \u2013 How Apple Watch could reshape journalism : With the Apple Watch expected to\u2026 http://t.co/mmowxo0U84 #iWatch #AppleWatch
p55
aV#AppleWatch #iOS \u2013 How Apple Watch could\u2026 http://t.co/W9Be3jceIM #iWatch #AppleWatch #applewatch #glancejournalism http://t.co/fHELAt6cMu
p56
aV#AppleWatch #iOS \u2013 How Apple Watch could reshape journalism :\u2026 http://t.co/F586qLU1nL #iWatch #AppleWatch #applewatch #glancejournalism
p57
aV#AppleWatch #iOS \u2013 How Apple Watch could\u2026 http://t.co/mAoGGrnnHq #iWatch #AppleWatch #applewatch #glancejournalism http://t.co/mtTSZ9Q5Mp
p58
aV#AppleWatch #iOS \u2013 How Apple Watch could reshape journalism : With the\u2026 http://t.co/EIF1AuS9Zh #iWatch #AppleWatch http://t.co/T7ylRknFzy
p59
aV#AppleWatch #iOS \u2013 How Apple Watch could reshape journalism : With the\u2026 http://t.co/x5pO0ZtKLV #iWatch #AppleWatch http://t.co/X2ebLN4s1r
p60
aVHow Apple Watch could reshape journalism http://t.co/WDYHMwNksB #iWatch #AppleWatch #applewatch #glancejournalism http://t.co/Ap5VpPGSFx
p61
aV#iPhone6s #iPhoneSeries \u2013 Next iPhone to\u2026 http://t.co/xcKixhOWrq #iPhone #7000series #aluminium #Apple #AppleWatch http://t.co/MBR4Pithbp
p62
aV#AppleWatch #iOS \u2013 How Apple Watch could reshape journalism : With the\u2026 http://t.co/1teqyAAPFd #iWatch #AppleWatch http://t.co/vK50MwKJi9
p63
aV#AppleWatch #iOS \u2013 How Apple Watch could reshape journalism : With the\u2026 http://t.co/txd5hMz8Pj #iWatch #AppleWatch http://t.co/6nHnXxeUqZ
p64
aV#AppleWatch #iOS \u2013 How Apple Watch could reshape journalism : With the Apple Watch expected to\u2026 http://t.co/ozv6oAUCOH #iWatch #AppleWatch
p65
aV#AppleWatch #iOS \u2013 How Apple Watch could reshape journalism :\u2026 http://t.co/OpuONRxNdm #iWatch #AppleWatch #applewatch #glancejournalism
p66
aV#AppleWatch #iOS \u2013 How Apple Watch could\u2026 http://t.co/H7ReC6S8mP #iWatch #AppleWatch #applewatch #glancejournalism http://t.co/FbXskeElB2
p67
aV#AppleWatch #iOS \u2013 How Apple Watch could reshape journalism : With the Apple Watch expected to\u2026 http://t.co/kXcPoKvS2y #iWatch #AppleWatch
p68
aV#AppleWatch #iOS \u2013 How Apple Watch could\u2026 http://t.co/GPM3WePLpZ #iWatch #AppleWatch #applewatch #glancejournalism http://t.co/Q90JkwUrK8
p69
aV#AppleWatch #iOS \u2013 How Apple Watch could reshape journalism : With the\u2026 http://t.co/goHKQrr94H #iWatch #AppleWatch http://t.co/PPfue94bmy
p70
aV#AppleWatch #iOS \u2013 How Apple Watch could reshape journalism : With the\u2026 http://t.co/3DMAmUAqYM #iWatch #AppleWatch http://t.co/PalHIBnFoi
p71
aV#AppleWatch #iOS \u2013 How Apple Watch could\u2026 http://t.co/sp4mMlsEmP #iWatch #AppleWatch #applewatch #glancejournalism http://t.co/y89Fxs0bGd
p72
aV#iPhone6s #iPhoneSeries \u2013 Next iPhone to feature stronger 7000\u2026 http://t.co/OuzzQ0JHkf #iPhone #7000series #aluminium #Apple #AppleWatch
p73
aV#AppleWatch #iOS \u2013 How Apple Watch could reshape journalism :\u2026 http://t.co/vvYurVR3sN #iWatch #AppleWatch #applewatch #glancejournalism
p74
aV#AppleWatch #iOS \u2013 How Apple Watch could reshape journalism :\u2026 http://t.co/W9Be3jceIM #iWatch #AppleWatch #applewatch #glancejournalism
p75
aV#AppleWatch #iOS \u2013 How Apple Watch could reshape journalism :\u2026 http://t.co/mAoGGrnnHq #iWatch #AppleWatch #applewatch #glancejournalism
p76
aV#AppleWatch #iOS \u2013 How Apple Watch could\u2026 http://t.co/g8Ww7ZIt7f #iWatch #AppleWatch #applewatch #glancejournalism http://t.co/bW2an8WYz2
p77
aV#AppleWatch #iOS \u2013 How Apple Watch could reshape journalism :\u2026 http://t.co/NRW4JxvWXk #iWatch #AppleWatch #applewatch #glancejournalism
p78
aV#AppleWatch #iOS \u2013 How Apple Watch could reshape journalism : With the Apple Watch expected to\u2026 http://t.co/hV9DnJ1W0Q #iWatch #AppleWatch
p79
aV#iPhone6s #iPhoneSeries \u2013 Next iPhone to\u2026 http://t.co/uE3kTlHcFs #iPhone #7000series #aluminium #Apple #AppleWatch http://t.co/utMz5rDp26
p80
aV#AppleWatch #iOS \u2013 How Apple Watch could\u2026 http://t.co/vyXN9nBLT2 #iWatch #AppleWatch #applewatch #glancejournalism http://t.co/tTEtY2c0pv
p81
aV#AppleWatch #iOS \u2013 How Apple Watch could\u2026 http://t.co/HKG8WPgo6p #iWatch #AppleWatch #applewatch #glancejournalism http://t.co/KDQ64Xak26
p82
aV#AppleWatch #iOS \u2013 How Apple Watch could reshape journalism :\u2026 http://t.co/VcZg3wYcnE #iWatch #AppleWatch #applewatch #glancejournalism
p83
aV#AppleWatch #iOS \u2013 How Apple Watch could reshape journalism :\u2026 http://t.co/b4fDiohi2E #iWatch #AppleWatch #applewatch #glancejournalism
p84
aV#AppleWatch #iOS \u2013 How Apple Watch could reshape journalism :\u2026 http://t.co/g8Ww7ZIt7f #iWatch #AppleWatch #applewatch #glancejournalism
p85
aV#AppleWatch #iOS \u2013 How Apple Watch could reshape journalism : With the Apple Watch expected to\u2026 http://t.co/1teqyAAPFd #iWatch #AppleWatch
p86
aV#AppleWatch #iOS \u2013 How Apple Watch could reshape journalism : With the Apple Watch expected to\u2026 http://t.co/tVJwQH93YE #iWatch #AppleWatch
p87
aV#AppleWatch #iOS \u2013 How Apple Watch could reshape journalism : With the Apple Watch expected to\u2026 http://t.co/vgctsLkaNQ #iWatch #AppleWatch
p88
aV#AppleWatch #iOS \u2013 How Apple Watch could reshape journalism : With the\u2026 http://t.co/jJhbTxhE11 #iWatch #AppleWatch http://t.co/27dnU8SFmM
p89
aV#AppleWatch #iOS \u2013 How Apple Watch could reshape journalism : With the\u2026 http://t.co/8L9yn6vU4O #iWatch #AppleWatch http://t.co/E5cQhqsZR2
p90
aV#AppleWatch #iOS \u2013 How Apple Watch could reshape journalism :\u2026 http://t.co/SrYHWNowcb #iWatch #AppleWatch #applewatch #glancejournalism
p91
aV#AppleWatch #iOS \u2013 How Apple Watch could\u2026 http://t.co/UKgKvnL3mZ #iWatch #AppleWatch #applewatch #glancejournalism http://t.co/bhkWqKBJwc
p92
aV#AppleWatch #iOS \u2013 How Apple Watch could reshape journalism : With the Apple Watch expected to\u2026 http://t.co/goHKQrr94H #iWatch #AppleWatch
p93
aV#AppleWatch #iOS \u2013 How Apple Watch could reshape journalism :\u2026 http://t.co/H7ReC6S8mP #iWatch #AppleWatch #applewatch #glancejournalism
p94
aV#AppleWatch #iOS \u2013 How Apple Watch could reshape journalism : With the Apple Watch expected to\u2026 http://t.co/mZUrBCzC21 #iWatch #AppleWatch
p95
aV#AppleWatch #iOS \u2013 How Apple Watch could reshape journalism : With the Apple Watch expected to\u2026 http://t.co/2ohMJhiHDk #iWatch #AppleWatch
p96
aV#AppleWatch #iOS \u2013 How Apple Watch could reshape journalism :\u2026 http://t.co/HKG8WPgo6p #iWatch #AppleWatch #applewatch #glancejournalism
p97
aVHow Apple Watch could reshape journalism http://t.co/rXF63KbeYl #iWatch #AppleWatch #applewatch #glancejournalism
p98
aV#AppleWatch #iOS \u2013 How Apple Watch could reshape journalism :\u2026 http://t.co/sp4mMlsEmP #iWatch #AppleWatch #applewatch #glancejournalism
p99
aV#AppleWatch #iOS \u2013 How Apple Watch could reshape journalism : With the Apple Watch expected to\u2026 http://t.co/3DMAmUAqYM #iWatch #AppleWatch
p100
a.