(lp0
V#AppleWatch #iOS \u2013 How Apple Watch could\u2026 http://t.co/NRW4JxvWXk #iWatch #AppleWatch #applewatch #glancejournalism http://t.co/qUpZ6BZQZM
p1
aV#AppleWatch #iOS \u2013 How Apple Watch could reshape journalism :\u2026 http://t.co/Sy5jXFF82j #iWatch #AppleWatch #applewatch #glancejournalism
p2
aV#AppleWatch #iOS \u2013 How Apple Watch could reshape journalism : With the\u2026 http://t.co/vgctsLkaNQ #iWatch #AppleWatch http://t.co/WKlMdg7pqg
p3
aV#iPhone6s #iPhoneSeries \u2013 Next iPhone to\u2026 http://t.co/uE3kTlHcFs #iPhone #7000series #aluminium #Apple #AppleWatch http://t.co/aZY3n1pmBQ
p4
aV#AppleWatch #iOS \u2013 How Apple Watch could reshape journalism :\u2026 http://t.co/qMk7f7yvkz #iWatch #AppleWatch #applewatch #glancejournalism
p5
aV#AppleWatch #iOS \u2013 How Apple Watch could reshape journalism :\u2026 http://t.co/vyXN9nBLT2 #iWatch #AppleWatch #applewatch #glancejournalism
p6
aV#iPhone6s #iPhoneSeries \u2013 Next iPhone to\u2026 http://t.co/rYCYl3kdZQ #iPhone #7000series #aluminium #Apple #AppleWatch http://t.co/njikxoVUMx
p7
aV#AppleWatch #iOS \u2013 How Apple Watch could reshape journalism : With the\u2026 http://t.co/tVJwQH93YE #iWatch #AppleWatch http://t.co/JYtPT6q9zV
p8
aV#AppleWatch #iOS \u2013 How Apple Watch could reshape journalism : With the Apple Watch expected to\u2026 http://t.co/txd5hMhxXL #iWatch #AppleWatch
p9
aV#AppleWatch #iOS \u2013 How Apple Watch could reshape journalism :\u2026 http://t.co/K0WpYHpMk7 #iWatch #AppleWatch #applewatch #glancejournalism
p10
aV#AppleWatch #iOS \u2013 How Apple Watch could reshape journalism :\u2026 http://t.co/57SONvn6YC #iWatch #AppleWatch #applewatch #glancejournalism
p11
aV#AppleWatch #iOS \u2013 How Apple Watch could reshape journalism : With the\u2026 http://t.co/N9EraJUkSR #iWatch #AppleWatch http://t.co/e0XkqG8GFa
p12
aV#AppleWatch #iOS \u2013 How Apple Watch could\u2026 http://t.co/SrYHWNowcb #iWatch #AppleWatch #applewatch #glancejournalism http://t.co/pLpJ9sILj7
p13
aV#AppleWatch #iOS \u2013 How Apple Watch could\u2026 http://t.co/WDtxTTZxxS #iWatch #AppleWatch #applewatch #glancejournalism http://t.co/hJitGTfd54
p14
aV#AppleWatch #iOS \u2013 How Apple Watch could reshape journalism : With the Apple Watch expected to\u2026 http://t.co/txd5hMz8Pj #iWatch #AppleWatch
p15
aV#AppleWatch #iOS \u2013 How Apple Watch could\u2026 http://t.co/b4fDiohi2E #iWatch #AppleWatch #applewatch #glancejournalism http://t.co/Z2C0bWwBjU
p16
aV#AppleWatch #iOS \u2013 How Apple Watch could reshape journalism : With the\u2026 http://t.co/eX0PPXduKb #iWatch #AppleWatch http://t.co/bdWhVS3CAf
p17
aV#AppleWatch #iOS \u2013 How Apple Watch could reshape journalism :\u2026 http://t.co/WHu4GvRqEI #iWatch #AppleWatch #applewatch #glancejournalism
p18
aV#AppleWatch #iOS \u2013 How Apple Watch could reshape journalism : With the\u2026 http://t.co/Gs4ogGnCiA #iWatch #AppleWatch http://t.co/lGH5rtxNzw
p19
aV#AppleWatch #iOS \u2013 How Apple Watch could reshape journalism : With the Apple Watch expected to\u2026 http://t.co/AJo2xiH26N #iWatch #AppleWatch
p20
aV#AppleWatch #iOS \u2013 How Apple Watch could reshape journalism : With the Apple Watch expected to\u2026 http://t.co/K7WyQRj564 #iWatch #AppleWatch
p21
aV#AppleWatch #iOS \u2013 How Apple Watch could reshape journalism : With the Apple Watch expected to\u2026 http://t.co/6wMQTqOFpr #iWatch #AppleWatch
p22
aV#AppleWatch #iOS \u2013 How Apple Watch could reshape journalism :\u2026 http://t.co/VMFjDIQsgl #iWatch #AppleWatch #applewatch #glancejournalism
p23
aV#AppleWatch #iOS \u2013 How Apple Watch could reshape journalism : With the\u2026 http://t.co/p1o4R4Flak #iWatch #AppleWatch http://t.co/Tuef1kRjnY
p24
aV#AppleWatch #iOS \u2013 How Apple Watch could reshape journalism : With the\u2026 http://t.co/5a3sepHmdn #iWatch #AppleWatch http://t.co/SqOJUvkC6p
p25
aV#AppleWatch #iOS \u2013 How Apple Watch could\u2026 http://t.co/KX67sgKiAr #iWatch #AppleWatch #applewatch #glancejournalism http://t.co/bIOophIfC0
p26
aV#AppleWatch #iOS \u2013 How Apple Watch could reshape journalism : With the\u2026 http://t.co/mglJd3TkcI #iWatch #AppleWatch http://t.co/TCSWE9Mpld
p27
aV#AppleWatch #iOS \u2013 How Apple Watch could reshape journalism :\u2026 http://t.co/UKgKvnL3mZ #iWatch #AppleWatch #applewatch #glancejournalism
p28
aV#AppleWatch #iOS \u2013 How Apple Watch could reshape journalism : With the Apple Watch expected to\u2026 http://t.co/jJhbTxhE11 #iWatch #AppleWatch
p29
aV#AppleWatch #iOS \u2013 How Apple Watch could reshape journalism : With the\u2026 http://t.co/CAGTIq5yoS #iWatch #AppleWatch http://t.co/jwMqca09ge
p30
aV#AppleWatch #iOS \u2013 How Apple Watch could\u2026 http://t.co/RbALjCh5kY #iWatch #AppleWatch #applewatch #glancejournalism http://t.co/kmjKnF8z2d
p31
aV#AppleWatch #iOS \u2013 How Apple Watch could reshape journalism : With the\u2026 http://t.co/KOOwY0bEE3 #iWatch #AppleWatch http://t.co/8ICGbvn40B
p32
aVHow Apple Watch could reshape journalism http://t.co/rXF63KbeYl #iWatch #AppleWatch #applewatch #glancejournalism http://t.co/vYAk7bpJsn
p33
aV#AppleWatch #iOS \u2013 How Apple Watch could reshape journalism :\u2026 http://t.co/KX67sgKiAr #iWatch #AppleWatch #applewatch #glancejournalism
p34
aV#AppleWatch #iOS \u2013 How Apple Watch could reshape journalism : With the\u2026 http://t.co/DME5dA7M6q #iWatch #AppleWatch http://t.co/cBcbKfB2EV
p35
aV#AppleWatch #iOS \u2013 How Apple Watch could\u2026 http://t.co/K0WpYHpMk7 #iWatch #AppleWatch #applewatch #glancejournalism http://t.co/q07FOSqBav
p36
aV#AppleWatch #iOS \u2013 How Apple Watch could reshape journalism :\u2026 http://t.co/RbALjCh5kY #iWatch #AppleWatch #applewatch #glancejournalism
p37
aV#AppleWatch #iOS \u2013 How Apple Watch could reshape journalism : With the\u2026 http://t.co/JxtIOEhX8Q #iWatch #AppleWatch http://t.co/6E6pcGUTzQ
p38
aV#AppleWatch #iOS \u2013 How Apple Watch could reshape journalism : With the Apple Watch expected to\u2026 http://t.co/HcwwT1mkJ2 #iWatch #AppleWatch
p39
aV#AppleWatch #iOS \u2013 How Apple Watch could\u2026 http://t.co/MvItmtzqo7 #iWatch #AppleWatch #applewatch #glancejournalism http://t.co/1DJgsfY7m5
p40
aV#AppleWatch #iOS \u2013 How Apple Watch could reshape journalism : With the\u2026 http://t.co/5VJCPLlU5W #iWatch #AppleWatch http://t.co/aUGr6nmUc7
p41
aV#AppleWatch #iOS \u2013 How Apple Watch could\u2026 http://t.co/oG3xv5ug0U #iWatch #AppleWatch #applewatch #glancejournalism http://t.co/XgX8KuZB0S
p42
aV#iPhone6s #iPhoneSeries \u2013 Next iPhone to\u2026 http://t.co/XJMaUfZ0w2 #iPhone #7000series #aluminium #Apple #AppleWatch http://t.co/0srH75LovR
p43
aV#AppleWatch #iOS \u2013 How Apple Watch could\u2026 http://t.co/LZ7Cmxz5On #iWatch #AppleWatch #applewatch #glancejournalism http://t.co/gaXodI6jha
p44
aV#AppleWatch #iOS \u2013 How Apple Watch could reshape journalism : With the Apple Watch expected to\u2026 http://t.co/8L9yn6vU4O #iWatch #AppleWatch
p45
aV#AppleWatch #iOS \u2013 How Apple Watch could reshape journalism : With the\u2026 http://t.co/mRtde3cvZd #iWatch #AppleWatch http://t.co/C7qKMsND6S
p46
aV#AppleWatch #iOS \u2013 How Apple Watch could reshape journalism :\u2026 http://t.co/aLpm9xugVN #iWatch #AppleWatch #applewatch #glancejournalism
p47
aV#AppleWatch #iOS \u2013 How Apple Watch could\u2026 http://t.co/X7X7YKSPD5 #iWatch #AppleWatch #applewatch #glancejournalism http://t.co/wPLK7N8gM7
p48
aV#AppleWatch #iOS \u2013 How Apple Watch could reshape journalism : With the Apple Watch expected to\u2026 http://t.co/AptginLa8B #iWatch #AppleWatch
p49
aV#AppleWatch #iOS \u2013 How Apple Watch could reshape journalism : With the\u2026 http://t.co/sl5u8Z6E5S #iWatch #AppleWatch http://t.co/CxnRPHsiLo
p50
aV#AppleWatch #iOS \u2013 How Apple Watch could reshape journalism : With the Apple Watch expected to\u2026 http://t.co/EIF1AuS9Zh #iWatch #AppleWatch
p51
aVHow Apple Watch could reshape journalism http://t.co/EoMDbq7ERm #iWatch #AppleWatch #applewatch #glancejournalism
p52
aV#AppleWatch #iOS \u2013 How Apple Watch could reshape journalism : With the\u2026 http://t.co/K7WyQRj564 #iWatch #AppleWatch http://t.co/bthbeT2hJg
p53
aV#AppleWatch #iOS \u2013 How Apple Watch could reshape journalism : With the\u2026 http://t.co/5Z8SaJQaQe #iWatch #AppleWatch http://t.co/z4gtLEmvH5
p54
aV#AppleWatch #iOS \u2013 How Apple Watch could reshape journalism :\u2026 http://t.co/ZC25EVLf2H #iWatch #AppleWatch #applewatch #glancejournalism
p55
aV#AppleWatch #iOS \u2013 How Apple Watch could reshape journalism :\u2026 http://t.co/lWkfGp67yu #iWatch #AppleWatch #applewatch #glancejournalism
p56
aV#AppleWatch #iOS \u2013 How Apple Watch could reshape journalism : With the\u2026 http://t.co/q3EXdhvYTT #iWatch #AppleWatch http://t.co/ISmMpZ8Sfj
p57
aV#AppleWatch #iOS \u2013 How Apple Watch could reshape journalism : With the Apple Watch expected to\u2026 http://t.co/N9EraJUkSR #iWatch #AppleWatch
p58
aV#AppleWatch #iOS \u2013 How Apple Watch could\u2026 http://t.co/hP0J1TY34U #iWatch #AppleWatch #applewatch #glancejournalism http://t.co/bpS9fy22w6
p59
aV#AppleWatch #iOS \u2013 How Apple Watch could reshape journalism : With the\u2026 http://t.co/6wMQTqOFpr #iWatch #AppleWatch http://t.co/fcSw4mCI9u
p60
aV#AppleWatch #iOS \u2013 How Apple Watch could reshape journalism : With the\u2026 http://t.co/AJo2xiH26N #iWatch #AppleWatch http://t.co/8gMovz7pSR
p61
aV#AppleWatch #iOS \u2013 How Apple Watch could\u2026 http://t.co/hznnuAIX33 #iWatch #AppleWatch #applewatch #glancejournalism http://t.co/tDuLm4X8Dc
p62
aV#AppleWatch #iOS \u2013 How Apple Watch could\u2026 http://t.co/WHu4GvzPNa #iWatch #AppleWatch #applewatch #glancejournalism http://t.co/Lwgl8J413E
p63
aV#AppleWatch #iOS \u2013 How Apple Watch could\u2026 http://t.co/5J65JNPhzy #iWatch #AppleWatch #applewatch #glancejournalism http://t.co/d9O0HaV9Tz
p64
aV#AppleWatch #iOS \u2013 How Apple Watch could reshape journalism : With the Apple Watch expected to\u2026 http://t.co/Fj5QLnXZJK #iWatch #AppleWatch
p65
aVHow Apple Watch could reshape journalism http://t.co/DVP9M6CkTm #iWatch #AppleWatch #applewatch #glancejournalism
p66
aV#AppleWatch #iOS \u2013 How Apple Watch could reshape journalism : With the Apple Watch expected to\u2026 http://t.co/eX0PPXduKb #iWatch #AppleWatch
p67
aVHow Apple Watch could reshape journalism http://t.co/zkxaMBe2nf #iWatch #AppleWatch #applewatch #glancejournalism
p68
aV#AppleWatch #iOS \u2013 How Apple Watch could reshape journalism : With the\u2026 http://t.co/m6rtqF4Oj4 #iWatch #AppleWatch http://t.co/OKWjtmD6uA
p69
aV#AppleWatch #iOS \u2013 How Apple Watch could\u2026 http://t.co/VMFjDIQsgl #iWatch #AppleWatch #applewatch #glancejournalism http://t.co/wLWt5Axbfx
p70
aV#AppleWatch #iOS \u2013 How Apple Watch could\u2026 http://t.co/LqIjfH39zL #iWatch #AppleWatch #applewatch #glancejournalism http://t.co/KRALQxE9nm
p71
aV#AppleWatch #iOS \u2013 How Apple Watch could reshape journalism : With the\u2026 http://t.co/uDxDQ4y595 #iWatch #AppleWatch http://t.co/QLFWUEzoZR
p72
aV#AppleWatch #iOS \u2013 How Apple Watch could reshape journalism : With the\u2026 http://t.co/1gOfP7W3FG #iWatch #AppleWatch http://t.co/W4deZldmtF
p73
aV#AppleWatch #iOS \u2013 How Apple Watch could reshape journalism : With the Apple Watch expected to\u2026 http://t.co/CAGTIq5yoS #iWatch #AppleWatch
p74
aV#AppleWatch #iOS \u2013 How Apple Watch could reshape journalism : With the\u2026 http://t.co/jgnIbULUs2 #iWatch #AppleWatch http://t.co/qkMJ6NiPEI
p75
aV#AppleWatch #iOS \u2013 How Apple Watch could reshape journalism : With the Apple Watch expected to\u2026 http://t.co/p1o4R4Flak #iWatch #AppleWatch
p76
aV#AppleWatch #iOS \u2013 How Apple Watch could reshape journalism : With the\u2026 http://t.co/HcwwT1mkJ2 #iWatch #AppleWatch http://t.co/YYL3dYjl6r
p77
aV#AppleWatch #iOS \u2013 How Apple Watch could reshape journalism : With the Apple Watch expected to\u2026 http://t.co/mglJd3TkcI #iWatch #AppleWatch
p78
aV#AppleWatch #iOS \u2013 How Apple Watch could reshape journalism : With the\u2026 http://t.co/b9JVTZBvrJ #iWatch #AppleWatch http://t.co/aGueF8MU6T
p79
aV#AppleWatch #iOS \u2013 How Apple Watch could reshape journalism : With the Apple Watch expected to\u2026 http://t.co/DME5dA7M6q #iWatch #AppleWatch
p80
aV#AppleWatch #iOS \u2013 How Apple Watch could reshape journalism : With the Apple Watch expected to\u2026 http://t.co/5Z8SaJQaQe #iWatch #AppleWatch
p81
aV#AppleWatch #iOS \u2013 How Apple Watch could reshape journalism : With the\u2026 http://t.co/AptginLa8B #iWatch #AppleWatch http://t.co/GgfGYbKQgE
p82
aV#AppleWatch #iOS \u2013 How Apple Watch could reshape journalism :\u2026 http://t.co/LZ7Cmxz5On #iWatch #AppleWatch #applewatch #glancejournalism
p83
aV#AppleWatch #iOS \u2013 How Apple Watch could\u2026 http://t.co/2BkqmuIQQv #iWatch #AppleWatch #applewatch #glancejournalism http://t.co/8ejbrAQC9w
p84
aV#AppleWatch #iOS \u2013 How Apple Watch could\u2026 http://t.co/aLpm9xugVN #iWatch #AppleWatch #applewatch #glancejournalism http://t.co/NWFybz8yLp
p85
aV#AppleWatch #iOS \u2013 How Apple Watch could reshape journalism : With the Apple Watch expected to\u2026 http://t.co/JxtIOEhX8Q #iWatch #AppleWatch
p86
aVHow Apple Watch could reshape journalism http://t.co/EoMDbq7ERm #iWatch #AppleWatch #applewatch #glancejournalism http://t.co/Y7hrFSMXmX
p87
aVHow Apple Watch could reshape journalism http://t.co/SEtUsdpIGW #iWatch #AppleWatch #applewatch #glancejournalism
p88
aV#AppleWatch #iOS \u2013 How Apple Watch could reshape journalism : With the Apple Watch expected to\u2026 http://t.co/mRtde3cvZd #iWatch #AppleWatch
p89
aV#AppleWatch #iOS \u2013 How Apple Watch could reshape journalism : With the\u2026 http://t.co/Fj5QLnXZJK #iWatch #AppleWatch http://t.co/RHCVDr7NEM
p90
aV#AppleWatch #iOS \u2013 How Apple Watch could\u2026 http://t.co/lWkfGp67yu #iWatch #AppleWatch #applewatch #glancejournalism http://t.co/e5nsD39GTK
p91
aV#AppleWatch #iOS \u2013 How Apple Watch could reshape journalism : With the\u2026 http://t.co/qP2fiJiHcd #iWatch #AppleWatch http://t.co/YjWfykmVMu
p92
aV#iPhone6s #iPhoneSeries \u2013 Next iPhone to feature stronger 7000\u2026 http://t.co/Qdij8WEawD #iPhone #7000series #aluminium #Apple #AppleWatch
p93
aV#AppleWatch #iOS \u2013 How Apple Watch could reshape journalism :\u2026 http://t.co/oG3xv5ug0U #iWatch #AppleWatch #applewatch #glancejournalism
p94
aV#AppleWatch #iOS \u2013 How Apple Watch could reshape journalism : With the Apple Watch expected to\u2026 http://t.co/5Z8SaK7MeO #iWatch #AppleWatch
p95
aV#AppleWatch #iOS \u2013 How Apple Watch could reshape journalism :\u2026 http://t.co/MvItmtzqo7 #iWatch #AppleWatch #applewatch #glancejournalism
p96
aV#AppleWatch #iOS \u2013 How Apple Watch could reshape journalism : With the Apple Watch expected to\u2026 http://t.co/KOOwY0bEE3 #iWatch #AppleWatch
p97
aV#AppleWatch #iOS \u2013 How Apple Watch could reshape journalism : With the Apple Watch expected to\u2026 http://t.co/5VJCPLlU5W #iWatch #AppleWatch
p98
aV#AppleWatch #iOS \u2013 How Apple Watch could reshape journalism : With the Apple Watch expected to\u2026 http://t.co/sl5u8Z6E5S #iWatch #AppleWatch
p99
aV#AppleWatch #iOS \u2013 How Apple Watch could\u2026 http://t.co/10GfQnzieT #iWatch #AppleWatch #applewatch #glancejournalism http://t.co/hte1dlz77N
p100
a.