(lp0
VNext iPhone to feature stronger 7000\u2026 http://t.co/K9ExnfIRza #iPhone #7000series #aluminium #Apple #AppleWatch http://t.co/MjgwN4ibr0
p1
aV#AppleWatch #iOS \u2013 How Apple Watch could reshape journalism : With the Apple Watch expected to\u2026 http://t.co/uJnhTDn0Xq #iWatch #AppleWatch
p2
aV#AppleWatch #iOS \u2013 How Apple Watch could reshape journalism : With the Apple Watch expected to\u2026 http://t.co/smttxyEEfY #iWatch #AppleWatch
p3
aV#iPhone6s #iPhoneSeries \u2013 Next iPhone to feature stronger 7000\u2026 http://t.co/XLts6ZTrPJ #iPhone #7000series #aluminium #Apple #AppleWatch
p4
aV#AppleWatch #iOS \u2013 How Apple Watch could reshape journalism : With the Apple Watch expected to\u2026 http://t.co/ApBJ3BtRwb #iWatch #AppleWatch
p5
aV#AppleWatch #iOS \u2013 How Apple Watch could reshape journalism :\u2026 http://t.co/600K0iz50v #iWatch #AppleWatch #applewatch #glancejournalism
p6
aV#AppleWatch #iOS \u2013 How Apple Watch could reshape journalism : With the\u2026 http://t.co/xkd82dtlza #iWatch #AppleWatch http://t.co/GNQ9yFTD6P
p7
aV#AppleWatch #iOS \u2013 How Apple Watch could reshape journalism : With the\u2026 http://t.co/ZHLdcoHHyD #iWatch #AppleWatch http://t.co/r5fYbSGp1w
p8
aV#AppleWatch #iOS \u2013 How Apple Watch could reshape journalism : With the Apple Watch expected to\u2026 http://t.co/nJD92AIxur #iWatch #AppleWatch
p9
aV#AppleWatch #iOS \u2013 How Apple Watch could\u2026 http://t.co/YSoLtNXrPP #iWatch #AppleWatch #applewatch #glancejournalism http://t.co/YLeTkhYVdf
p10
aV#iPhone6s #iPhoneSeries \u2013 Next iPhone to\u2026 http://t.co/52xP4FB7UN #iPhone #7000series #aluminium #Apple #AppleWatch http://t.co/69IVHlOTPU
p11
aV#AppleWatch #iOS \u2013 How Apple Watch could reshape journalism : With the\u2026 http://t.co/CzoSLR7YXO #iWatch #AppleWatch http://t.co/k3qjzbi9Bv
p12
aV#AppleWatch #iOS \u2013 How Apple Watch could reshape journalism : With the\u2026 http://t.co/LGbEq6EXoG #iWatch #AppleWatch http://t.co/JRnGKhGHeq
p13
aV#AppleWatch #iOS \u2013 How Apple Watch could reshape journalism : With the Apple Watch expected to\u2026 http://t.co/Mrjuwy1mqJ #iWatch #AppleWatch
p14
aV#iPhone6s #iPhoneSeries \u2013 Next iPhone to\u2026 http://t.co/tpzkYhVDkv #iPhone #7000series #aluminium #Apple #AppleWatch http://t.co/GdE1Awmmla
p15
aV#AppleWatch #iOS \u2013 How Apple Watch could reshape journalism : With the Apple Watch expected to\u2026 http://t.co/CpfxWpvEWe #iWatch #AppleWatch
p16
aV#AppleWatch #iOS \u2013 How Apple Watch could reshape journalism : With the\u2026 http://t.co/61jyYmCTy4 #iWatch #AppleWatch http://t.co/TqqUfnN290
p17
aV#AppleWatch #iOS \u2013 How Apple Watch could reshape journalism :\u2026 http://t.co/O2WSDrGjuU #iWatch #AppleWatch #applewatch #glancejournalism
p18
aV#AppleWatch #iOS \u2013 How Apple Watch could reshape journalism :\u2026 http://t.co/IgsV31yKk3 #iWatch #AppleWatch #applewatch #glancejournalism
p19
aV#AppleWatch #iOS \u2013 How Apple Watch could\u2026 http://t.co/pAfY68w9gh #iWatch #AppleWatch #applewatch #glancejournalism http://t.co/8EcBIaA3jr
p20
aV#AppleWatch #iOS \u2013 How Apple Watch could reshape journalism :\u2026 http://t.co/mLgiIQsJar #iWatch #AppleWatch #applewatch #glancejournalism
p21
aV#AppleWatch #iOS \u2013 How Apple Watch could\u2026 http://t.co/NOPAbNrOh9 #iWatch #AppleWatch #applewatch #glancejournalism http://t.co/Au0dh1RKRc
p22
aV#iPhone6s #iPhoneSeries \u2013 Next iPhone to feature stronger 7000\u2026 http://t.co/hfTtDpwdPK #iPhone #7000series #aluminium #Apple #AppleWatch
p23
aVHow Apple Watch could reshape journalism http://t.co/TelJXzQTs8 #iWatch #AppleWatch #applewatch #glancejournalism http://t.co/qWfSMtMFIy
p24
aV#iPhone6s #iPhoneSeries \u2013 Next iPhone to\u2026 http://t.co/vLQ3ZzkSsi #iPhone #7000series #aluminium #Apple #AppleWatch http://t.co/0IosCBSOq0
p25
aV#AppleWatch #iOS \u2013 How Apple Watch could reshape journalism :\u2026 http://t.co/hqddQplVbW #iWatch #AppleWatch #applewatch #glancejournalism
p26
aV#AppleWatch #iOS \u2013 How Apple Watch could reshape journalism : With the\u2026 http://t.co/74Pc1lniPZ #iWatch #AppleWatch http://t.co/mhUMGmQvnr
p27
aV#iPhone6s #iPhoneSeries \u2013 Next iPhone to feature stronger 7000\u2026 http://t.co/hUD2Zx5Jp4 #iPhone #7000series #aluminium #Apple #AppleWatch
p28
aV#AppleWatch #iOS \u2013 How Apple Watch could reshape journalism : With the\u2026 http://t.co/aeYXqrsJF2 #iWatch #AppleWatch http://t.co/JkjCn9AOLO
p29
aV#AppleWatch #iOS \u2013 How Apple Watch could reshape journalism :\u2026 http://t.co/mLgiIQKk1Z #iWatch #AppleWatch #applewatch #glancejournalism
p30
aV#iPhone6s #iPhoneSeries \u2013 Next iPhone to\u2026 http://t.co/Fc20PRiVEr #iPhone #7000series #aluminium #Apple #AppleWatch http://t.co/p02drcIwXg
p31
aV#iPhone6s #iPhoneSeries \u2013 Next iPhone to\u2026 http://t.co/ICMYEQqXbP #iPhone #7000series #aluminium #Apple #AppleWatch http://t.co/XCujkTQ5Tv
p32
aV#AppleWatch #iOS \u2013 How Apple Watch could reshape journalism : With the Apple Watch expected to\u2026 http://t.co/opUZWssFyR #iWatch #AppleWatch
p33
aV#AppleWatch #iOS \u2013 How Apple Watch could reshape journalism : With the\u2026 http://t.co/smttxyEEfY #iWatch #AppleWatch http://t.co/Ga14pSwsOs
p34
aV#AppleWatch #iOS \u2013 How Apple Watch could reshape journalism : With the Apple Watch expected to\u2026 http://t.co/H46Pn0L32j #iWatch #AppleWatch
p35
aV#iPhone6s #iPhoneSeries \u2013 Next iPhone to\u2026 http://t.co/kRLU5zVFyD #iPhone #7000series #aluminium #Apple #AppleWatch http://t.co/kWk91CsKOz
p36
aV#iPhone6s #iPhoneSeries \u2013 Next iPhone to\u2026 http://t.co/1fhimvn8XD #iPhone #7000series #aluminium #Apple #AppleWatch http://t.co/kXLKUTsVP3
p37
aV#AppleWatch #iOS \u2013 How Apple Watch could\u2026 http://t.co/DLPfRKIJqe #iWatch #AppleWatch #applewatch #glancejournalism http://t.co/QUsKFSzhCP
p38
aV#AppleWatch #iOS \u2013 How Apple Watch could\u2026 http://t.co/qMk7f7yvkz #iWatch #AppleWatch #applewatch #glancejournalism http://t.co/M1lfRGLd9J
p39
aV#AppleWatch #iOS \u2013 How Apple Watch could reshape journalism : With the\u2026 http://t.co/kQjc7tEpHj #iWatch #AppleWatch http://t.co/toFEnOSAUW
p40
aV#AppleWatch #iOS \u2013 How Apple Watch could\u2026 http://t.co/Sy5jXFF82j #iWatch #AppleWatch #applewatch #glancejournalism http://t.co/gREhI9Nsij
p41
aV#AppleWatch #iOS \u2013 How Apple Watch could reshape journalism : With the\u2026 http://t.co/EWztsDSxDd #iWatch #AppleWatch http://t.co/ExjEuUIDNH
p42
aV#iPhone6s #iPhoneSeries \u2013 Next iPhone to\u2026 http://t.co/Y0ldqXV8tq #iPhone #7000series #aluminium #Apple #AppleWatch http://t.co/IlTBr7SPsd
p43
aV#AppleWatch #iOS \u2013 How Apple Watch could reshape journalism : With the Apple Watch expected to\u2026 http://t.co/xkd82dtlza #iWatch #AppleWatch
p44
aV#AppleWatch #iOS \u2013 How Apple Watch could reshape journalism : With the Apple Watch expected to\u2026 http://t.co/klwldj6sUY #iWatch #AppleWatch
p45
aV#AppleWatch #iOS \u2013 How Apple Watch could reshape journalism : With the\u2026 http://t.co/97c8aGEmux #iWatch #AppleWatch http://t.co/Du0gGwu5om
p46
aV#iPhone6s #iPhoneSeries \u2013 Next iPhone to feature stronger 7000\u2026 http://t.co/D3Ao8fOauU #iPhone #7000series #aluminium #Apple #AppleWatch
p47
aV#AppleWatch #iOS \u2013 How Apple Watch could reshape journalism : With the Apple Watch expected to\u2026 http://t.co/61jyYmCTy4 #iWatch #AppleWatch
p48
aV#AppleWatch #iOS \u2013 How Apple Watch could reshape journalism :\u2026 http://t.co/C7pxvy0NBm #iWatch #AppleWatch #applewatch #glancejournalism
p49
aV#AppleWatch #iOS \u2013 How Apple Watch could reshape journalism : With the\u2026 http://t.co/odOo54Xz4V #iWatch #AppleWatch http://t.co/GzdBut2M9e
p50
aV#AppleWatch #iOS \u2013 How Apple Watch could reshape journalism :\u2026 http://t.co/Wyrgcx1dt6 #iWatch #AppleWatch #applewatch #glancejournalism
p51
aV#iPhone6s #iPhoneSeries \u2013 Next iPhone to feature stronger 7000\u2026 http://t.co/shiRuMGFAQ #iPhone #7000series #aluminium #Apple #AppleWatch
p52
aVNext iPhone to feature stronger 7000\u2026 http://t.co/p0hxvXb4kD #iPhone #7000series #aluminium #Apple #AppleWatch http://t.co/fGPFLB65BA
p53
aV#iPhone6s #iPhoneSeries \u2013 Next iPhone to\u2026 http://t.co/T7Yxhxnedi #iPhone #7000series #aluminium #Apple #AppleWatch http://t.co/Xkv8ywY2gv
p54
aV#iPhone6s #iPhoneSeries \u2013 Next iPhone to\u2026 http://t.co/BxTRazHa8n #iPhone #7000series #aluminium #Apple #AppleWatch http://t.co/aoOTpmqvwX
p55
aV#AppleWatch #iOS \u2013 How Apple Watch could reshape journalism : With the\u2026 http://t.co/pWw7YrpqgX #iWatch #AppleWatch http://t.co/ywVEvYKzz6
p56
aV#AppleWatch #iOS \u2013 How Apple Watch could reshape journalism : With the\u2026 http://t.co/2ohMJhiHDk #iWatch #AppleWatch http://t.co/iK3CC8DhG0
p57
aV#AppleWatch #iOS \u2013 How Apple Watch could reshape journalism : With the\u2026 http://t.co/ktxzT9TUET #iWatch #AppleWatch http://t.co/5YunjMscnZ
p58
aV#iPhone6s #iPhoneSeries \u2013 Next iPhone to\u2026 http://t.co/hUD2Zx5Jp4 #iPhone #7000series #aluminium #Apple #AppleWatch http://t.co/01cahux1ut
p59
aV#AppleWatch #iOS \u2013 How Apple Watch could\u2026 http://t.co/rEsd3movWA #iWatch #AppleWatch #applewatch #glancejournalism http://t.co/O7QsLc16uX
p60
aV#iPhone6s #iPhoneSeries \u2013 Next iPhone to feature stronger 7000\u2026 http://t.co/YipyzXpEs7 #iPhone #7000series #aluminium #Apple #AppleWatch
p61
aV#AppleWatch #iOS \u2013 How Apple Watch could reshape journalism : With the Apple Watch expected to\u2026 http://t.co/jKqV9jerk8 #iWatch #AppleWatch
p62
aV#AppleWatch #iOS \u2013 How Apple Watch could\u2026 http://t.co/WmNmbxXw1f #iWatch #AppleWatch #applewatch #glancejournalism http://t.co/HZ0aBZ6Xql
p63
aV#AppleWatch #iOS \u2013 How Apple Watch could\u2026 http://t.co/MXBdzBksx6 #iWatch #AppleWatch #applewatch #glancejournalism http://t.co/PNMYLtr2YD
p64
aV#AppleWatch #iOS \u2013 How Apple Watch could reshape journalism : With the\u2026 http://t.co/hqHWBLkbT3 #iWatch #AppleWatch http://t.co/MHk9h6OOzl
p65
aV#AppleWatch #iOS \u2013 How Apple Watch could\u2026 http://t.co/hqddQplVbW #iWatch #AppleWatch #applewatch #glancejournalism http://t.co/0O0BDp2yvs
p66
aV#AppleWatch #iOS \u2013 How Apple Watch could reshape journalism : With the\u2026 http://t.co/g4Yi84JnBU #iWatch #AppleWatch http://t.co/bftYk5VWKN
p67
aV#AppleWatch #iOS \u2013 How Apple Watch could reshape journalism : With the\u2026 http://t.co/v500oZdpk3 #iWatch #AppleWatch http://t.co/D0f2pyELgn
p68
aV#iPhone6s #iPhoneSeries \u2013 Next iPhone to\u2026 http://t.co/rZNVYZteu6 #iPhone #7000series #aluminium #Apple #AppleWatch http://t.co/YwrxCIzyOs
p69
aV#AppleWatch #iOS \u2013 How Apple Watch could reshape journalism : With the Apple Watch expected to\u2026 http://t.co/sBkGQq4UYd #iWatch #AppleWatch
p70
aVHow Apple Watch could reshape journalism http://t.co/SCx6zjdoVv #iWatch #AppleWatch #applewatch #glancejournalism http://t.co/tyZnBxD4d4
p71
aV#iPhone6s #iPhoneSeries \u2013 Next iPhone to\u2026 http://t.co/S7A1JDgtnR #iPhone #7000series #aluminium #Apple #AppleWatch http://t.co/olgsOjJ47w
p72
aV#AppleWatch #iOS \u2013 How Apple Watch could reshape journalism : With the Apple Watch expected to\u2026 http://t.co/ktxzT9TUET #iWatch #AppleWatch
p73
aV#iPhone6s #iPhoneSeries \u2013 Next iPhone to\u2026 http://t.co/rpQE2jMpBF #iPhone #7000series #aluminium #Apple #AppleWatch http://t.co/kxwMrfdWPh
p74
aV#iPhone6s #iPhoneSeries \u2013 Next iPhone to\u2026 http://t.co/shiRuMGFAQ #iPhone #7000series #aluminium #Apple #AppleWatch http://t.co/V0hZNsODy2
p75
aV#AppleWatch #iOS \u2013 How Apple Watch could\u2026 http://t.co/iWiqPf0vQy #iWatch #AppleWatch #applewatch #glancejournalism http://t.co/FIIPoWWVW3
p76
aV#AppleWatch #iOS \u2013 How Apple Watch could reshape journalism : With the\u2026 http://t.co/foXeLLu7xA #iWatch #AppleWatch http://t.co/n5iINYlPRg
p77
aV#AppleWatch #iOS \u2013 How Apple Watch could reshape journalism : With the Apple Watch expected to\u2026 http://t.co/kQjc7tEpHj #iWatch #AppleWatch
p78
aV#AppleWatch #iOS \u2013 How Apple Watch could reshape journalism : With the\u2026 http://t.co/Z89WJr5xEy #iWatch #AppleWatch http://t.co/NzAYDzIslW
p79
aV#AppleWatch #iOS \u2013 How Apple Watch could\u2026 http://t.co/mLgiIQKk1Z #iWatch #AppleWatch #applewatch #glancejournalism http://t.co/ZK3xzyjH1N
p80
aV#AppleWatch #iOS \u2013 How Apple Watch could\u2026 http://t.co/mBLEVW2bfv #iWatch #AppleWatch #applewatch #glancejournalism http://t.co/0USByY6w1c
p81
aV#iPhone6s #iPhoneSeries \u2013 Next iPhone to\u2026 http://t.co/XLts6ZTrPJ #iPhone #7000series #aluminium #Apple #AppleWatch http://t.co/CpoIknZcWq
p82
aV#AppleWatch #iOS \u2013 How Apple Watch could reshape journalism : With the Apple Watch expected to\u2026 http://t.co/v500oZdpk3 #iWatch #AppleWatch
p83
aV#AppleWatch #iOS \u2013 How Apple Watch could\u2026 http://t.co/zkd0k5MNXh #iWatch #AppleWatch #applewatch #glancejournalism http://t.co/WzJg18CAHv
p84
aV#AppleWatch #iOS \u2013 How Apple Watch could reshape journalism : With the\u2026 http://t.co/Ycg4gWHezA #iWatch #AppleWatch http://t.co/BrEMyZpNY4
p85
aV#AppleWatch #iOS \u2013 How Apple Watch could\u2026 http://t.co/WeI0MIu3Ld #iWatch #AppleWatch #applewatch #glancejournalism http://t.co/c79So6AoHd
p86
aV#AppleWatch #iOS \u2013 How Apple Watch could reshape journalism : With the\u2026 http://t.co/ku8xsNfd5x #iWatch #AppleWatch http://t.co/YeJagjOQw3
p87
aV#AppleWatch #iOS \u2013 How Apple Watch could reshape journalism :\u2026 http://t.co/zkd0k5MNXh #iWatch #AppleWatch #applewatch #glancejournalism
p88
aV#AppleWatch #iOS \u2013 How Apple Watch could reshape journalism : With the\u2026 http://t.co/i2snmk1e5i #iWatch #AppleWatch http://t.co/ar7hZkGDuG
p89
aV#AppleWatch #iOS \u2013 How Apple Watch could reshape journalism : With the\u2026 http://t.co/eomyICiN1I #iWatch #AppleWatch http://t.co/13ZqHFreS6
p90
aV#AppleWatch #iOS \u2013 How Apple Watch could reshape journalism : With the Apple Watch expected to\u2026 http://t.co/kWcY0LmC88 #iWatch #AppleWatch
p91
aV#AppleWatch #iOS \u2013 How Apple Watch could reshape journalism : With the\u2026 http://t.co/W9TqiIHZjZ #iWatch #AppleWatch http://t.co/aIRkTL9m3U
p92
aV#AppleWatch #iOS \u2013 How Apple Watch could reshape journalism : With the Apple Watch expected to\u2026 http://t.co/74Pc1lniPZ #iWatch #AppleWatch
p93
aV#AppleWatch #iOS \u2013 How Apple Watch could reshape journalism : With the\u2026 http://t.co/fKIBRrZhav #iWatch #AppleWatch http://t.co/zYNo73gISI
p94
aV#AppleWatch #iOS \u2013 How Apple Watch could\u2026 http://t.co/oLpnSXsqEA #iWatch #AppleWatch #applewatch #glancejournalism http://t.co/lUrMJ62D2N
p95
aV#AppleWatch #iOS \u2013 How Apple Watch could reshape journalism : With the Apple Watch expected to\u2026 http://t.co/pWw7YrpqgX #iWatch #AppleWatch
p96
aV#AppleWatch #iOS \u2013 How Apple Watch could reshape journalism : With the\u2026 http://t.co/8kB2WFc2RM #iWatch #AppleWatch http://t.co/dz9qMhN9Ed
p97
aV#AppleWatch #iOS \u2013 How Apple Watch could reshape journalism :\u2026 http://t.co/mBLEVW2bfv #iWatch #AppleWatch #applewatch #glancejournalism
p98
aV#AppleWatch #iOS \u2013 How Apple Watch could reshape journalism : With the Apple Watch expected to\u2026 http://t.co/q2zJG8rlmI #iWatch #AppleWatch
p99
aV#AppleWatch #iOS \u2013 How Apple Watch could reshape journalism :\u2026 http://t.co/iWiqPf0vQy #iWatch #AppleWatch #applewatch #glancejournalism
p100
a.