(lp0
VRT @Supriya26: #AppleWatch \u000a https://t.co/7NgKk6xT3n
p1
aVApple  https://t.co/ZSh3WZBeBr
p2
aV\u300cApple Watch\u300d\u8cfc\u5165\u5e0c\u671b\u306f8\uff05\u30017\u5272\u8d85\u304c\u300c\u8cfc\u5165\u3059\u308b\u3064\u3082\u308a\u306f\u306a\u3044\u300d http://t.co/fDFGG76Fq7 #AppleWatch #\u30b9\u30de\u30fc\u30c8\u30a6\u30a9\u30c3\u30c1 #iPhone http://t.co/rLIDDbfKWO
p3
aV#Watch #Wearable \u2013 Apple Watch May Not Be Available to Buy in Stores Until\u2026 http://t.co/tetA4Re03e #Apple #iWatch #AppleWatch #apps #iOS
p4
aV#Watch #Wearable \u2013 Apple Watch May Not Be Available to Buy in Stores Until\u2026 http://t.co/GXU4PaBQTN #Apple #iWatch #AppleWatch #apps #iOS
p5
aV#Watch #Wearable \u2013 Apple Watch May Not Be Available to Buy in Stores Until\u2026 http://t.co/lbtNB3LQH6 #Apple #iWatch #AppleWatch #apps #iOS
p6
aV#Watch #Wearable \u2013 Apple Watch May Not Be Available\u2026 http://t.co/tetA4Re03e #Apple #iWatch #AppleWatch #apps #iOS http://t.co/w5Ily0vG2c
p7
aV#Watch #Wearable \u2013 Apple Watch May Not Be Available\u2026 http://t.co/GXU4PaBQTN #Apple #iWatch #AppleWatch #apps #iOS http://t.co/nkZFERMiW1
p8
aV#Watch #Wearable \u2013 Apple Watch May Not Be Available to Buy in Stores Until\u2026 http://t.co/qyO71kbt5k #Apple #iWatch #AppleWatch #apps #iOS
p9
aV#Watch #Wearable \u2013 Apple Watch May Not Be Available\u2026 http://t.co/lbtNB3LQH6 #Apple #iWatch #AppleWatch #apps #iOS http://t.co/wTvbBPhCrj
p10
aV#Watch #Wearable \u2013 Apple Watch May Not Be Available to Buy in Stores Until\u2026 http://t.co/JeMFDPZ4vh #Apple #iWatch #AppleWatch #apps #iOS
p11
aV#Watch #Wearable \u2013 Apple Watch May Not Be Available to Buy in Stores Until\u2026 http://t.co/QKwmpzgQpC #Apple #iWatch #AppleWatch #apps #iOS
p12
aV#Watch #Wearable \u2013 Apple Watch May Not Be Available to Buy in Stores Until\u2026 http://t.co/KSN6g6dmDF #Apple #iWatch #AppleWatch #apps #iOS
p13
aV#Watch #Wearable \u2013 Apple Watch May Not Be Available\u2026 http://t.co/qyO71kbt5k #Apple #iWatch #AppleWatch #apps #iOS http://t.co/eZTmd6IjHp
p14
aV#Watch #Wearable \u2013 Apple Watch May Not Be Available\u2026 http://t.co/FpES12pSyX #Apple #iWatch #AppleWatch #apps #iOS http://t.co/xWMfQpKjSK
p15
aV#Watch #Wearable \u2013 Apple Watch May Not Be Available\u2026 http://t.co/KSN6g6dmDF #Apple #iWatch #AppleWatch #apps #iOS http://t.co/Rmr6ZA8Rtg
p16
aV#Watch #Wearable \u2013 Apple Watch May Not Be Available to Buy in Stores Until\u2026 http://t.co/MdpA21n8nr #Apple #iWatch #AppleWatch #apps #iOS
p17
aV#Watch #Wearable \u2013 Apple Watch May Not Be Available\u2026 http://t.co/QKwmpzgQpC #Apple #iWatch #AppleWatch #apps #iOS http://t.co/XftDJIPvhj
p18
aV#Watch #Wearable \u2013 Apple Watch May Not Be Available to Buy in Stores Until\u2026 http://t.co/IImLTBd9vn #Apple #iWatch #AppleWatch #apps #iOS
p19
aV#Watch #Wearable \u2013 Apple Watch May Not Be Available\u2026 http://t.co/JeMFDPZ4vh #Apple #iWatch #AppleWatch #apps #iOS http://t.co/a7RTQCJlYk
p20
aV#Watch #Wearable \u2013 Apple Watch May Not Be Available to Buy in Stores Until\u2026 http://t.co/H7lfnIN3ZY #Apple #iWatch #AppleWatch #apps #iOS
p21
aV#Watch #Wearable \u2013 Apple Watch May Not Be Available to Buy in Stores Until\u2026 http://t.co/lJncyQsooz #Apple #iWatch #AppleWatch #apps #iOS
p22
aV#Watch #Wearable \u2013 Apple Watch May Not Be Available\u2026 http://t.co/MdpA21n8nr #Apple #iWatch #AppleWatch #apps #iOS http://t.co/7cHS7QzQyE
p23
aV#Watch #Wearable \u2013 Apple Watch May Not Be Available\u2026 http://t.co/H7lfnIN3ZY #Apple #iWatch #AppleWatch #apps #iOS http://t.co/e6SKtxerOe
p24
aV#Watch #Wearable \u2013 Apple Watch May Not Be Available to Buy in Stores Until\u2026 http://t.co/Ii3Uw3o9Ct #Apple #iWatch #AppleWatch #apps #iOS
p25
aV#Watch #Wearable \u2013 Apple Watch May Not Be Available to Buy in Stores Until\u2026 http://t.co/GvUxPXiPnJ #Apple #iWatch #AppleWatch #apps #iOS
p26
aV#Watch #Wearable \u2013 Apple Watch May Not Be Available to Buy in Stores Until\u2026 http://t.co/yMDGvwemD4 #Apple #iWatch #AppleWatch #apps #iOS
p27
aV#Watch #Wearable \u2013 Apple Watch May Not Be Available to Buy in Stores Until\u2026 http://t.co/JmMcZoaWvP #Apple #iWatch #AppleWatch #apps #iOS
p28
aV#Watch #Wearable \u2013 Apple Watch May Not Be Available\u2026 http://t.co/IImLTBd9vn #Apple #iWatch #AppleWatch #apps #iOS http://t.co/vvvLTt0Kij
p29
aV#Watch #Wearable \u2013 Apple Watch May Not Be Available to Buy in Stores Until\u2026 http://t.co/WDzciq1ghj #Apple #iWatch #AppleWatch #apps #iOS
p30
aV#Watch #Wearable \u2013 Apple Watch May Not Be Available to Buy in Stores Until\u2026 http://t.co/sNaN56ZJLM #Apple #iWatch #AppleWatch #apps #iOS
p31
aV#Watch #Wearable \u2013 Apple Watch May Not Be Available\u2026 http://t.co/lJncyQsooz #Apple #iWatch #AppleWatch #apps #iOS http://t.co/iswij6lWmG
p32
aV#Watch #Wearable \u2013 Apple Watch May Not Be Available\u2026 http://t.co/yMDGvwemD4 #Apple #iWatch #AppleWatch #apps #iOS http://t.co/wTMOlDOHrV
p33
aV#Watch #Wearable \u2013 Apple Watch May Not Be Available\u2026 http://t.co/GvUxPXiPnJ #Apple #iWatch #AppleWatch #apps #iOS http://t.co/yyHqvp2hS5
p34
aV#Watch #Wearable \u2013 Apple Watch May Not Be Available\u2026 http://t.co/Ii3Uw3o9Ct #Apple #iWatch #AppleWatch #apps #iOS http://t.co/c375Afdq32
p35
aV#Watch #Wearable \u2013 Apple Watch May Not Be Available\u2026 http://t.co/sNaN56ZJLM #Apple #iWatch #AppleWatch #apps #iOS http://t.co/Nbc3RYuQmc
p36
aV#Watch #Wearable \u2013 Apple Watch May Not Be Available to Buy in Stores Until\u2026 http://t.co/Smmii2DflX #Apple #iWatch #AppleWatch #apps #iOS
p37
aV#Watch #Wearable \u2013 Apple Watch May Not Be Available\u2026 http://t.co/WDzciq1ghj #Apple #iWatch #AppleWatch #apps #iOS http://t.co/dF3QVnzHJH
p38
aV#Watch #Wearable \u2013 Apple Watch May Not Be Available\u2026 http://t.co/JmMcZoaWvP #Apple #iWatch #AppleWatch #apps #iOS http://t.co/DerMlmOPYI
p39
aV#Watch #Wearable \u2013 Apple Watch May Not Be Available\u2026 http://t.co/Smmii2DflX #Apple #iWatch #AppleWatch #apps #iOS http://t.co/3ZTVnZ8SyR
p40
aV#Watch #Wearable \u2013 Apple Watch May Not Be Available to Buy in Stores Until\u2026 http://t.co/ON4qy6Xwg5 #Apple #iWatch #AppleWatch #apps #iOS
p41
aV#Watch #Wearable \u2013 Apple Watch May Not Be Available to Buy in Stores Until\u2026 http://t.co/9Mzxss1TC7 #Apple #iWatch #AppleWatch #apps #iOS
p42
aV#Watch #Wearable \u2013 Apple Watch May Not Be Available to Buy in Stores Until\u2026 http://t.co/80fPl7TRNj #Apple #iWatch #AppleWatch #apps #iOS
p43
aV#Watch #Wearable \u2013 Apple Watch May Not Be Available to Buy in Stores Until\u2026 http://t.co/rzMAIcEx3M #Apple #iWatch #AppleWatch #apps #iOS
p44
aV#Watch #Wearable \u2013 Apple Watch May Not Be Available\u2026 http://t.co/rzMAIcEx3M #Apple #iWatch #AppleWatch #apps #iOS http://t.co/X416LyXXN3
p45
aV#Watch #Wearable \u2013 Apple Watch May Not Be Available to Buy in Stores Until\u2026 http://t.co/hwKAZHfZtI #Apple #iWatch #AppleWatch #apps #iOS
p46
aV#Watch #Wearable \u2013 Apple Watch May Not Be Available to Buy in Stores Until\u2026 http://t.co/hwKAZHxAlg #Apple #iWatch #AppleWatch #apps #iOS
p47
aV#Watch #Wearable \u2013 Apple Watch May Not Be Available to Buy in Stores Until\u2026 http://t.co/4xthhsZKDt #Apple #iWatch #AppleWatch #apps #iOS
p48
aV#Watch #Wearable \u2013 Apple Watch May Not Be Available\u2026 http://t.co/80fPl7TRNj #Apple #iWatch #AppleWatch #apps #iOS http://t.co/HevqZYGb4M
p49
aV#Watch #Wearable \u2013 Apple Watch May Not Be Available\u2026 http://t.co/ON4qy6Xwg5 #Apple #iWatch #AppleWatch #apps #iOS http://t.co/GcjV6rmn3t
p50
aV#Watch #Wearable \u2013 Apple Watch May Not Be Available\u2026 http://t.co/hwKAZHxAlg #Apple #iWatch #AppleWatch #apps #iOS http://t.co/OuqEmJAtLE
p51
aV#Watch #Wearable \u2013 Apple Watch May Not Be Available\u2026 http://t.co/9Mzxss1TC7 #Apple #iWatch #AppleWatch #apps #iOS http://t.co/TbpQ1J9Jra
p52
aV#Watch #Wearable \u2013 Apple Watch May Not Be Available to Buy in Stores Until\u2026 http://t.co/dtV8jNNw6e #Apple #iWatch #AppleWatch #apps #iOS
p53
aV#Watch #Wearable \u2013 Apple Watch May Not Be Available\u2026 http://t.co/4xthhsZKDt #Apple #iWatch #AppleWatch #apps #iOS http://t.co/PzCaj0AUYQ
p54
aV#Watch #Wearable \u2013 Apple Watch May Not Be Available\u2026 http://t.co/dtV8jNNw6e #Apple #iWatch #AppleWatch #apps #iOS http://t.co/iFcwEXjHpR
p55
aV#Watch #Wearable \u2013 Apple Watch May Not Be Available to Buy in Stores Until\u2026 http://t.co/NDUW9L85F2 #Apple #iWatch #AppleWatch #apps #iOS
p56
aV#Watch #Wearable \u2013 Apple Watch May Not Be Available\u2026 http://t.co/DhDG7mvufZ #Apple #iWatch #AppleWatch #apps #iOS http://t.co/9MAyxNsgnv
p57
aV#Watch #Wearable \u2013 Apple Watch May Not Be Available\u2026 http://t.co/NDUW9L85F2 #Apple #iWatch #AppleWatch #apps #iOS http://t.co/VTtf5MzvrP
p58
aV#Watch #Wearable \u2013 Apple Watch May Not Be Available to Buy in Stores Until\u2026 http://t.co/mlXQVE9Zle #Apple #iWatch #AppleWatch #apps #iOS
p59
aV#Watch #Wearable \u2013 Apple Watch May Not Be Available\u2026 http://t.co/mlXQVE9Zle #Apple #iWatch #AppleWatch #apps #iOS http://t.co/R1B9GltlgB
p60
aVRT @GeorgeBray: First look at the #AppleWatch http://t.co/4fl4nmj36i
p61
aVRT @pschiller: Accessibility built-in\u000ahttp://t.co/7U0GhO1kN6\u000a#AppleWatch
p62
aVApple Watch Rocks With Soaring Pre-Orders #applewatch, #apple, #watchpreorders,#applewatchrocks http://t.co/Z0VWuQEZRk
p63
aVRT @G_Liberty_Voice: Apple Watch Rocks With Soaring Pre-Orders #applewatch, #apple, #watchpreorders,#applewatchrocks http://t.co/Z0VWuQEZRk
p64
aVApple Watch Rocks With Soaring Pre-Orders #applewatch, #apple, #watchpreorders,#applewatchrocks http://t.co/UKKfDxBU86
p65
aVApple Watch Rocks With Soaring Pre-Orders #applewatch, #apple, #watchpreorders,#applewatchrocks http://t.co/lNrXgZvSLn
p66
aVApple Watch Rocks With Soaring Pre-Orders #applewatch, #apple, #watchpreorders,#applewatchrocks http://t.co/4CGnSDDdp1
p67
aVApple Watch Rocks With Soaring Pre-Orders #applewatch, #apple, #watchpreorders,#applewatchrocks http://t.co/vmpAeXcqfN
p68
aVApple Watch Rocks With Soaring Pre-Orders #applewatch, #apple, #watchpreorders,#applewatchrocks http://t.co/hxzLcB2ZfL
p69
aVApple Watch Rocks With Soaring Pre-Orders #applewatch, #apple, #watchpreorders,#applewatchrocks http://t.co/eWNcDDjUhf
p70
aVApple Watch Rocks With Soaring Pre-Orders #applewatch, #apple, #watchpreorders,#applewatchrocks http://t.co/NebH6eeUCz
p71
aVApple Watch Rocks With Soaring Pre-Orders #applewatch, #apple, #watchpreorders,#applewatchrocks http://t.co/YDhKhaIScR
p72
aVAppleWatch pre-order sold out quick. Develop with WatchKit at http://t.co/7wq1Wat6nt to get your app seen by millions. #WatchKit #AppleWatch
p73
aV#AppleWatch on my wrist! \U0001f60e http://t.co/79aEwrM8ep
p74
aVRT @jic_news: \u300cApple Watch\u300d\u8cfc\u5165\u5e0c\u671b\u306f8\uff05\u30017\u5272\u8d85\u304c\u300c\u8cfc\u5165\u3059\u308b\u3064\u3082\u308a\u306f\u306a\u3044\u300d http://t.co/fDFGG76Fq7 #AppleWatch #\u30b9\u30de\u30fc\u30c8\u30a6\u30a9\u30c3\u30c1 #iPhone http://t.co/rLIDDbfKWO
p75
aVApple Watch\u3092\u8cfc\u5165\u3059\u308b\u4eba\u306e\u5927\u534a\u306fApple\u4fe1\u8005\u3060\u3068\u601d\u3046 \u7b11 https://t.co/LZONjTsLOn
p76
aV\u305d\u308c\u306fAppleWatch\u3068\u30ab\u30e9\u30b7\u30cb\u30b3\u30d5\u3092\u5408\u308f\u305b\u305f\u3001\u5168\u304f\u65b0\u3057\u3044\u683c\u95d8\u6280
p77
aVRT @MacinCloud: AppleWatch pre-order sold out quick. Develop with WatchKit at http://t.co/7wq1Wat6nt to get your app seen by millions. #Wat\u2026
p78
aVhttp://t.co/0mAj3I9KDn  on eBay #Apple #AppleWatch #London #NewYork #HongKong #Samsung http://t.co/gH9waYpzWB . 17.04 04:08
p79
aVRT @UK_EuroMillions: It's giveaway time! RT for the chance to win an #AppleWatch Sport from http://t.co/Uzemubox8X http://t.co/MNlbpqdm5M
p80
aVOrdered my #AppleWatch today. Happy camper. http://t.co/Of935A4sMu
p81
aVRT @V8JuiceUK: It's no #AppleWatch but you don't have to wait until June to #win with #HourGiftToYou &gt;&gt; http://t.co/GurTgx1CWP http://t.co/\u2026
p82
aVWatch the take off @DanyDeGrave Launch Secrets Hidden In Plain Sight http://t.co/bZuQuzE5JV #AppleWatch #strategy http://t.co/wZnameAt0x
p83
aVRT @FlurryMobile: Another packed house at the @yahoo #yodelmeetup ! #applewatch best practices revealed http://t.co/1WOAwpgRI6
p84
aVApple Maps partner Yelp announces Apple Watch app with local li http://t.co/o36cw4CN7V  #applewatch #apps #Tech #Startups #Apple #News #KOT
p85
aVRT @Appsoko: Apple Maps partner Yelp announces Apple Watch app with local li http://t.co/o36cw4CN7V  #applewatch #apps #Tech #Startups #App\u2026
p86
aVWin an #AppleWatch from http://t.co/HzdugMTLIc #contest #painrelief @lakotaherbs Enter here: http://t.co/l0v6uLlRTZ
p87
aV#AppleWatch #Shipgate
p88
aVhttp://t.co/WL0LvbYW5D #win #iwatch #applewatch #competition
p89
aVThe AppleWatch is not intended for my age group. It's intended for business people, people with a busy life. It's not a independent piece.
p90
aVRT @Jessewelle: Look what came in the mail today. #AppleWatch http://t.co/SyFdaQKHGc
p91
aVThanks for all your tolerance, followers! The person who bought my computer just paid! Thank you, buyer! #applewatch here I come!
p92
aVWatch: Official Guided Video Tour Of Music On Apple Watch http://t.co/hdTiTvqsAJ #AppleWatch #MusicTech #Apple
p93
aVWatch: Conan ruthlessly trashes the #AppleWatch via @BGR http://t.co/tDf4ze5YVi
p94
aVRT @UK_EuroMillions: It's giveaway time! RT for the chance to win an #AppleWatch Sport from http://t.co/Uzemubox8X http://t.co/MNlbpqdm5M
p95
aVRT @UK_EuroMillions: It's giveaway time! RT for the chance to win an #AppleWatch Sport from http://t.co/w52l92JTBj http://t.co/4A7mcV1aU7
p96
aVSo frothing over #ForceAwakens teaser! Plus JJ Abrams wearing #applewatch at the launch just adds to it!
p97
aVComing soon to Flurry Analytics - #AppleWatch Analytics. Interested? Email us at applewatch@flurry.com. #yodelmeetup http://t.co/eIXbzeoLEI
p98
aVhttp://t.co/H50m7odVZt iPhone\u30e6\u30fc\u30b6\u30fc\u5fc5\u898b\u300cApplewatch\u3067\u4f55\u304c\u51fa\u6765\u308b\u306e\uff1f\u300d
p99
aVHow a one-time Apple critic made key contributions to Apple Watch #apple #applewatch = http://t.co/Icq6okFge0 http://t.co/WCEHbSDSGN
p100
a.