(lp0
V#Watch #Wearable \u2013 Apple Watch May Not Be Available\u2026 http://t.co/IWQU7ijHDx #Apple #iWatch #AppleWatch #apps #iOS http://t.co/cTrixmAOGS
p1
aV#Watch #Wearable \u2013 Apple Watch May Not Be Available\u2026 http://t.co/2n4XRQobXs #Apple #iWatch #AppleWatch #apps #iOS http://t.co/4KwE90rc6f
p2
aV#Watch #Wearable \u2013 Apple Watch May Not Be Available\u2026 http://t.co/sXaXc3pzug #Apple #iWatch #AppleWatch #apps #iOS http://t.co/ZFPUDNB6Rl
p3
aV#Watch #Wearable \u2013 Apple Watch May Not Be Available\u2026 http://t.co/X563PPLN7V #Apple #iWatch #AppleWatch #apps #iOS http://t.co/NW76jJmwOI
p4
aV#Watch #Wearable \u2013 Apple Watch May Not Be Available to Buy in Stores Until\u2026 http://t.co/QIrASsOTEn #Apple #iWatch #AppleWatch #apps #iOS
p5
aV#Watch #Wearable \u2013 Apple Watch May Not Be Available to Buy in Stores Until\u2026 http://t.co/CNWSuN0CM0 #Apple #iWatch #AppleWatch #apps #iOS
p6
aV#Watch #Wearable \u2013 Apple Watch May Not Be Available to Buy in Stores Until\u2026 http://t.co/KaAduefSYb #Apple #iWatch #AppleWatch #apps #iOS
p7
aV#Watch #Wearable \u2013 Apple Watch May Not Be Available\u2026 http://t.co/jLY9HdvoZC #Apple #iWatch #AppleWatch #apps #iOS http://t.co/MqPKzzP6j5
p8
aV#Watch #Wearable \u2013 Apple Watch May Not Be Available to Buy in Stores Until\u2026 http://t.co/rKUSUjJw7L #Apple #iWatch #AppleWatch #apps #iOS
p9
aV#Watch #Wearable \u2013 Apple Watch May Not Be Available to Buy in Stores Until\u2026 http://t.co/6N7f5GaWLY #Apple #iWatch #AppleWatch #apps #iOS
p10
aV#Watch #Wearable \u2013 Apple Watch May Not Be Available\u2026 http://t.co/xeumPHovwz #Apple #iWatch #AppleWatch #apps #iOS http://t.co/XrDFwHCbFD
p11
aVTo Buy in Stores Until June, Apple Watch May Not Be\u2026 http://t.co/v4NMBhbxEa #Apple #iWatch #AppleWatch #apps #iOS http://t.co/SZKZwIMU7D
p12
aV#Watch #Wearable \u2013 Apple Watch May Not Be Available to Buy in Stores Until\u2026 http://t.co/Zgv83IpcIG #Apple #iWatch #AppleWatch #apps #iOS
p13
aV#Watch #Wearable \u2013 Apple Watch May Not Be Available\u2026 http://t.co/jLY9HdvoZC #Apple #iWatch #AppleWatch #apps #iOS http://t.co/QMYhWu4fjn
p14
aV#Watch #Wearable \u2013 Apple Watch May Not Be Available\u2026 http://t.co/h02xMK0nWI #Apple #iWatch #AppleWatch #apps #iOS http://t.co/JVb0ZdPnIU
p15
aV#Watch #Wearable \u2013 Apple Watch May Not Be Available to Buy in Stores Until\u2026 http://t.co/5ZvZT1RWUP #Apple #iWatch #AppleWatch #apps #iOS
p16
aV#Watch #Wearable \u2013 Apple Watch May Not Be Available to Buy in Stores Until\u2026 http://t.co/nf0YQUdtCP #Apple #iWatch #AppleWatch #apps #iOS
p17
aVTo Buy in Stores Until June, Apple Watch May Not Be Available http://t.co/8wPw4jn3Gx #Apple #iWatch #AppleWatch #apps #iOS
p18
aV#Watch #Wearable \u2013 Apple Watch May Not Be Available\u2026 http://t.co/KaAduefSYb #Apple #iWatch #AppleWatch #apps #iOS http://t.co/g0AtT1KoYa
p19
aV#Watch #Wearable \u2013 Apple Watch May Not Be Available\u2026 http://t.co/UoprybwlzW #Apple #iWatch #AppleWatch #apps #iOS http://t.co/T0nnAIE0EI
p20
aV#Watch #Wearable \u2013 Apple Watch May Not Be Available\u2026 http://t.co/QIrASsOTEn #Apple #iWatch #AppleWatch #apps #iOS http://t.co/dtL4kOruL0
p21
aVTo Buy in Stores Until June, Apple Watch May Not Be Available http://t.co/shxfR2IqlY #Apple #iWatch #AppleWatch #apps #iOS
p22
aV#Watch #Wearable \u2013 Apple Watch May Not Be Available\u2026 http://t.co/5ZvZT1RWUP #Apple #iWatch #AppleWatch #apps #iOS http://t.co/Q3r8spV5ul
p23
aV#Watch #Wearable \u2013 Apple Watch May Not Be Available\u2026 http://t.co/nf0YQUdtCP #Apple #iWatch #AppleWatch #apps #iOS http://t.co/1cqW3LqNCx
p24
aV#Watch #Wearable \u2013 Apple Watch May Not Be Available to Buy in Stores Until\u2026 http://t.co/7aYOb5JKJO #Apple #iWatch #AppleWatch #apps #iOS
p25
aV#Watch #Wearable \u2013 Apple Watch May Not Be Available\u2026 http://t.co/rKUSUjJw7L #Apple #iWatch #AppleWatch #apps #iOS http://t.co/S49cV2Kzt4
p26
aV#Watch #Wearable \u2013 Apple Watch May Not Be Available to Buy in Stores Until\u2026 http://t.co/K75fM0dI5l #Apple #iWatch #AppleWatch #apps #iOS
p27
aV#Watch #Wearable \u2013 Apple Watch May Not Be Available to Buy in Stores Until\u2026 http://t.co/TS3pE2wGS8 #Apple #iWatch #AppleWatch #apps #iOS
p28
aV#Watch #Wearable \u2013 Apple Watch May Not Be Available\u2026 http://t.co/6N7f5GaWLY #Apple #iWatch #AppleWatch #apps #iOS http://t.co/cCOqBujwf1
p29
aV#Watch #Wearable \u2013 Apple Watch May Not Be Available to Buy in Stores Until\u2026 http://t.co/BObRI9f1Ss #Apple #iWatch #AppleWatch #apps #iOS
p30
aV#Watch #Wearable \u2013 Apple Watch May Not Be Available to Buy in Stores Until\u2026 http://t.co/S5e64GuC1x #Apple #iWatch #AppleWatch #apps #iOS
p31
aV#Watch #Wearable \u2013 Apple Watch May Not Be Available\u2026 http://t.co/CNWSuN0CM0 #Apple #iWatch #AppleWatch #apps #iOS http://t.co/UkcFstxoCt
p32
aV#Watch #Wearable \u2013 Apple Watch May Not Be Available to Buy in Stores Until\u2026 http://t.co/LaAUgfXFT5 #Apple #iWatch #AppleWatch #apps #iOS
p33
aV#Watch #Wearable \u2013 Apple Watch May Not Be Available to Buy in Stores Until\u2026 http://t.co/e7VFsggzu6 #Apple #iWatch #AppleWatch #apps #iOS
p34
aV#Watch #Wearable \u2013 Apple Watch May Not Be Available\u2026 http://t.co/Zgv83IpcIG #Apple #iWatch #AppleWatch #apps #iOS http://t.co/am7zkLLW1o
p35
aVTo Buy in Stores Until June, Apple Watch May Not Be\u2026 http://t.co/shxfR2IqlY #Apple #iWatch #AppleWatch #apps #iOS http://t.co/mK3IGjv5iq
p36
aV#Watch #Wearable \u2013 Apple Watch May Not Be Available to Buy in Stores Until\u2026 http://t.co/fgrwk8lnBL #Apple #iWatch #AppleWatch #apps #iOS
p37
aVTo Buy in Stores Until June, Apple Watch May Not Be\u2026 http://t.co/8wPw4jn3Gx #Apple #iWatch #AppleWatch #apps #iOS http://t.co/bEg9JWxSto
p38
aVTo Buy in Stores Until June, Apple Watch May Not Be Available http://t.co/qfvL7EVvzL #Apple #iWatch #AppleWatch #apps #iOS
p39
aV#Watch #Wearable \u2013 Apple Watch May Not Be Available to Buy in Stores Until\u2026 http://t.co/1fk6S4wTbl #Apple #iWatch #AppleWatch #apps #iOS
p40
aV#Watch #Wearable \u2013 Apple Watch May Not Be Available to Buy in Stores Until\u2026 http://t.co/oC5vypYnQq #Apple #iWatch #AppleWatch #apps #iOS
p41
aV#Watch #Wearable \u2013 Apple Watch May Not Be Available\u2026 http://t.co/BObRI9f1Ss #Apple #iWatch #AppleWatch #apps #iOS http://t.co/9MALmnB6lr
p42
aV#Watch #Wearable \u2013 Apple Watch May Not Be Available to Buy in Stores Until\u2026 http://t.co/xQLKXxw261 #Apple #iWatch #AppleWatch #apps #iOS
p43
aV#Watch #Wearable \u2013 Apple Watch May Not Be Available to Buy in Stores Until\u2026 http://t.co/TtKBoJujOH #Apple #iWatch #AppleWatch #apps #iOS
p44
aVTo Buy in Stores Until June, Apple Watch May Not Be Available http://t.co/3fNGvPdnNK #Apple #iWatch #AppleWatch #apps #iOS
p45
aV#Watch #Wearable \u2013 Apple Watch May Not Be Available\u2026 http://t.co/S5e64GuC1x #Apple #iWatch #AppleWatch #apps #iOS http://t.co/yV3V7B2xWK
p46
aVTo Buy in Stores Until June, Apple Watch May Not Be\u2026 http://t.co/FDy8DABDL2 #Apple #iWatch #AppleWatch #apps #iOS http://t.co/UN5RDxjdd1
p47
aV#Watch #Wearable \u2013 Apple Watch May Not Be Available\u2026 http://t.co/TS3pE2wGS8 #Apple #iWatch #AppleWatch #apps #iOS http://t.co/wQW34XjSH9
p48
aV#Watch #Wearable \u2013 Apple Watch May Not Be Available\u2026 http://t.co/fgrwk8lnBL #Apple #iWatch #AppleWatch #apps #iOS http://t.co/A0ZxUYlqVT
p49
aV#Watch #Wearable \u2013 Apple Watch May Not Be Available to Buy in Stores Until\u2026 http://t.co/R0OSb3t1xF #Apple #iWatch #AppleWatch #apps #iOS
p50
aVTo Buy in Stores Until June, Apple Watch May Not Be Available http://t.co/vYHywQgeE9 #Apple #iWatch #AppleWatch #apps #iOS
p51
aV#Watch #Wearable \u2013 Apple Watch May Not Be Available\u2026 http://t.co/1fk6S4wTbl #Apple #iWatch #AppleWatch #apps #iOS http://t.co/6BiUfMLHlf
p52
aV#Watch #Wearable \u2013 Apple Watch May Not Be Available\u2026 http://t.co/7aYOb5JKJO #Apple #iWatch #AppleWatch #apps #iOS http://t.co/UcC8d489fO
p53
aV#Watch #Wearable \u2013 Apple Watch May Not Be Available\u2026 http://t.co/LaAUgfXFT5 #Apple #iWatch #AppleWatch #apps #iOS http://t.co/t7evpcbK0z
p54
aV#Watch #Wearable \u2013 Apple Watch May Not Be Available\u2026 http://t.co/e7VFsggzu6 #Apple #iWatch #AppleWatch #apps #iOS http://t.co/HePPIzso04
p55
aV#Watch #Wearable \u2013 Apple Watch May Not Be Available\u2026 http://t.co/xQLKXxw261 #Apple #iWatch #AppleWatch #apps #iOS http://t.co/kvlvG99a8P
p56
aV#Watch #Wearable \u2013 Apple Watch May Not Be Available\u2026 http://t.co/TtKBoJujOH #Apple #iWatch #AppleWatch #apps #iOS http://t.co/WFWcvvz59U
p57
aV#Watch #Wearable \u2013 Apple Watch May Not Be Available to Buy in Stores Until\u2026 http://t.co/EqQs9IqbcB #Apple #iWatch #AppleWatch #apps #iOS
p58
aV#Watch #Wearable \u2013 Apple Watch May Not Be Available to Buy in Stores Until\u2026 http://t.co/VEcfH05IH4 #Apple #iWatch #AppleWatch #apps #iOS
p59
aVTo Buy in Stores Until June, Apple Watch May Not Be Available http://t.co/eAi2bKkjnS #Apple #iWatch #AppleWatch #apps #iOS
p60
aV#Watch #Wearable \u2013 Apple Watch May Not Be Available to Buy in Stores Until\u2026 http://t.co/ijuGWqRyFx #Apple #iWatch #AppleWatch #apps #iOS
p61
aV#Watch #Wearable \u2013 Apple Watch May Not Be Available to Buy in Stores Until\u2026 http://t.co/foZ93LwES9 #Apple #iWatch #AppleWatch #apps #iOS
p62
aVTo Buy in Stores Until June, Apple Watch May Not Be\u2026 http://t.co/qfvL7EVvzL #Apple #iWatch #AppleWatch #apps #iOS http://t.co/2fWkFuDlXg
p63
aV#Watch #Wearable \u2013 Apple Watch May Not Be Available\u2026 http://t.co/EqQs9IqbcB #Apple #iWatch #AppleWatch #apps #iOS http://t.co/KzpXR5yW1H
p64
aV#Watch #Wearable \u2013 Apple Watch May Not Be Available\u2026 http://t.co/oC5vypYnQq #Apple #iWatch #AppleWatch #apps #iOS http://t.co/w8ykxPsWBk
p65
aV#Watch #Wearable \u2013 Apple Watch May Not Be Available to Buy in Stores Until\u2026 http://t.co/XPIQkydRd8 #Apple #iWatch #AppleWatch #apps #iOS
p66
aV#Watch #Wearable \u2013 Apple Watch May Not Be Available to Buy in Stores Until\u2026 http://t.co/EnxPJH1e8e #Apple #iWatch #AppleWatch #apps #iOS
p67
aVTo Buy in Stores Until June, Apple Watch May Not Be\u2026 http://t.co/3fNGvPdnNK #Apple #iWatch #AppleWatch #apps #iOS http://t.co/VxWH0N6kl0
p68
aV#Watch #Wearable \u2013 Apple Watch May Not Be Available\u2026 http://t.co/ijuGWqRyFx #Apple #iWatch #AppleWatch #apps #iOS http://t.co/wr1TLof5E4
p69
aVTo Buy in Stores Until June, Apple Watch May Not Be\u2026 http://t.co/vYHywQgeE9 #Apple #iWatch #AppleWatch #apps #iOS http://t.co/kEJUdolcfB
p70
aV#Watch #Wearable \u2013 Apple Watch May Not Be Available\u2026 http://t.co/foZ93LwES9 #Apple #iWatch #AppleWatch #apps #iOS http://t.co/CRGETU0B6r
p71
aV#Watch #Wearable \u2013 Apple Watch May Not Be Available\u2026 http://t.co/VEcfH05IH4 #Apple #iWatch #AppleWatch #apps #iOS http://t.co/tknEukAD6b
p72
aV#Watch #Wearable \u2013 Apple Watch May Not Be Available\u2026 http://t.co/XPIQkydRd8 #Apple #iWatch #AppleWatch #apps #iOS http://t.co/9AofpVQxFI
p73
aVTo Buy in Stores Until June, Apple Watch May Not Be Available http://t.co/GtoQWCFOWl #Apple #iWatch #AppleWatch #apps #iOS
p74
aV#Watch #Wearable \u2013 Apple Watch May Not Be Available to Buy in Stores Until\u2026 http://t.co/g9w2sPsLlF #Apple #iWatch #AppleWatch #apps #iOS
p75
aV#Watch #Wearable \u2013 Apple Watch May Not Be Available to Buy in Stores Until\u2026 http://t.co/6YjdWpl9NR #Apple #iWatch #AppleWatch #apps #iOS
p76
aVTo Buy in Stores Until June, Apple Watch May Not Be\u2026 http://t.co/eAi2bKkjnS #Apple #iWatch #AppleWatch #apps #iOS http://t.co/KltfYIVci0
p77
aV#Watch #Wearable \u2013 Apple Watch May Not Be Available\u2026 http://t.co/R0OSb3t1xF #Apple #iWatch #AppleWatch #apps #iOS http://t.co/RwBQKdFVPP
p78
aV#Watch #Wearable \u2013 Apple Watch May Not Be Available\u2026 http://t.co/EnxPJH1e8e #Apple #iWatch #AppleWatch #apps #iOS http://t.co/4CnksysSXS
p79
aV#Watch #Wearable \u2013 Apple Watch May Not Be Available to Buy in Stores Until\u2026 http://t.co/zLXvMO4B1g #Apple #iWatch #AppleWatch #apps #iOS
p80
aV#Watch #Wearable \u2013 Apple Watch May Not Be Available to Buy in Stores Until\u2026 http://t.co/LSzoAu96Si #Apple #iWatch #AppleWatch #apps #iOS
p81
aV#Watch #Wearable \u2013 Apple Watch May Not Be Available to Buy in Stores Until\u2026 http://t.co/6YjdWpCKFp #Apple #iWatch #AppleWatch #apps #iOS
p82
aV#Watch #Wearable \u2013 Apple Watch May Not Be Available to Buy in Stores Until\u2026 http://t.co/92RNTS1YWn #Apple #iWatch #AppleWatch #apps #iOS
p83
aV#Watch #Wearable \u2013 Apple Watch May Not Be Available\u2026 http://t.co/6YjdWpCKFp #Apple #iWatch #AppleWatch #apps #iOS http://t.co/vK9Z8ngN0N
p84
aV#Watch #Wearable \u2013 Apple Watch May Not Be Available\u2026 http://t.co/g9w2sPsLlF #Apple #iWatch #AppleWatch #apps #iOS http://t.co/2A7V3o51nG
p85
aVTo Buy in Stores Until June, Apple Watch May Not Be\u2026 http://t.co/GtoQWCFOWl #Apple #iWatch #AppleWatch #apps #iOS http://t.co/a6WbYBFWlw
p86
aV#Watch #Wearable \u2013 Apple Watch May Not Be Available\u2026 http://t.co/zLXvMO4B1g #Apple #iWatch #AppleWatch #apps #iOS http://t.co/kI54KrW5k3
p87
aV#Watch #Wearable \u2013 Apple Watch May Not Be Available to Buy in Stores Until\u2026 http://t.co/NBXvassEH0 #Apple #iWatch #AppleWatch #apps #iOS
p88
aV#Watch #Wearable \u2013 Apple Watch May Not Be Available to Buy in Stores Until\u2026 http://t.co/CHvsbquMiV #Apple #iWatch #AppleWatch #apps #iOS
p89
aV#Watch #Wearable \u2013 Apple Watch May Not Be Available\u2026 http://t.co/92RNTS1YWn #Apple #iWatch #AppleWatch #apps #iOS http://t.co/w7e6R4YpyE
p90
aV#Watch #Wearable \u2013 Apple Watch May Not Be Available\u2026 http://t.co/K75fM0dI5l #Apple #iWatch #AppleWatch #apps #iOS http://t.co/jOgDj2BJ4w
p91
aV#Watch #Wearable \u2013 Apple Watch May Not Be Available\u2026 http://t.co/LSzoAu96Si #Apple #iWatch #AppleWatch #apps #iOS http://t.co/u0GAreueia
p92
aV#Watch #Wearable \u2013 Apple Watch May Not Be Available\u2026 http://t.co/K75fM0dI5l #Apple #iWatch #AppleWatch #apps #iOS http://t.co/hYji5ihyyT
p93
aV#Watch #Wearable \u2013 Apple Watch May Not Be Available to Buy in Stores Until\u2026 http://t.co/hQ5WP7mUM9 #Apple #iWatch #AppleWatch #apps #iOS
p94
aV#Watch #Wearable \u2013 Apple Watch May Not Be Available\u2026 http://t.co/NBXvassEH0 #Apple #iWatch #AppleWatch #apps #iOS http://t.co/sWYjyBaeIU
p95
aV#Watch #Wearable \u2013 Apple Watch May Not Be Available to Buy in Stores Until\u2026 http://t.co/4vsDFERIn2 #Apple #iWatch #AppleWatch #apps #iOS
p96
aV#Watch #Wearable \u2013 Apple Watch May Not Be Available\u2026 http://t.co/hQ5WP7mUM9 #Apple #iWatch #AppleWatch #apps #iOS http://t.co/487hq3wrWE
p97
aV#Watch #Wearable \u2013 Apple Watch May Not Be Available\u2026 http://t.co/4vsDFERIn2 #Apple #iWatch #AppleWatch #apps #iOS http://t.co/4YxxKOUUbV
p98
aV#Watch #Wearable \u2013 Apple Watch May Not Be Available\u2026 http://t.co/CHvsbquMiV #Apple #iWatch #AppleWatch #apps #iOS http://t.co/TI06U8iL1G
p99
aV#Watch #Wearable \u2013 Apple Watch May Not Be Available\u2026 http://t.co/CHvsbquMiV #Apple #iWatch #AppleWatch #apps #iOS http://t.co/ByVLTODYao
p100
a.