(lp0
V#Watch #Wearable \u2013 Apple Watch May Not Be Available\u2026 http://t.co/JTbOc1mcyy #Apple #iWatch #AppleWatch #apps #iOS http://t.co/DJ1ltHssb9
p1
aV#Watch #Wearable \u2013 Apple Watch May Not Be Available to Buy in Stores Until\u2026 http://t.co/Ixf2rH64x1 #Apple #iWatch #AppleWatch #apps #iOS
p2
aV#Watch #Wearable \u2013 Apple Watch May Not Be Available to Buy in Stores Until\u2026 http://t.co/KcfM7dmfJQ #Apple #iWatch #AppleWatch #apps #iOS
p3
aV#Watch #Wearable \u2013 Apple Watch May Not Be Available\u2026 http://t.co/d5FDClkIiq #Apple #iWatch #AppleWatch #apps #iOS http://t.co/LDLAsyao9t
p4
aVTo Buy in Stores Until June, Apple Watch May Not Be\u2026 http://t.co/9Ai29s52U3 #Apple #iWatch #AppleWatch #apps #iOS http://t.co/OWp40Iv89z
p5
aV#Watch #Wearable \u2013 Apple Watch May Not Be Available to Buy in Stores Until\u2026 http://t.co/hqHexr8tru #Apple #iWatch #AppleWatch #apps #iOS
p6
aVTo Buy in Stores Until June, Apple Watch May Not Be\u2026 http://t.co/2qfr0BV3nC #Apple #iWatch #AppleWatch #apps #iOS http://t.co/jgNxrmwya1
p7
aV#Watch #Wearable \u2013 Apple Watch May Not Be Available to Buy in Stores Until\u2026 http://t.co/18RTAHAiau #Apple #iWatch #AppleWatch #apps #iOS
p8
aV#Watch #Wearable \u2013 Apple Watch May Not Be Available to Buy in Stores Until\u2026 http://t.co/KgYAKxobGv #Apple #iWatch #AppleWatch #apps #iOS
p9
aV#Watch #Wearable \u2013 Apple Watch May Not Be Available\u2026 http://t.co/Yd8CwGhBgP #Apple #iWatch #AppleWatch #apps #iOS http://t.co/9SMt1Dp12J
p10
aV#Watch #Wearable \u2013 Apple Watch May Not Be Available to Buy in Stores Until\u2026 http://t.co/klt6bxutur #Apple #iWatch #AppleWatch #apps #iOS
p11
aV#Watch #Wearable \u2013 Apple Watch May Not Be Available to Buy in Stores Until\u2026 http://t.co/LylFIKGD7M #Apple #iWatch #AppleWatch #apps #iOS
p12
aV#Watch #Wearable \u2013 Apple Watch May Not Be Available to Buy in Stores Until\u2026 http://t.co/E0i4BjSxFk #Apple #iWatch #AppleWatch #apps #iOS
p13
aV#Watch #Wearable \u2013 Apple Watch May Not Be Available to Buy in Stores Until\u2026 http://t.co/uU2GMIeQ5p #Apple #iWatch #AppleWatch #apps #iOS
p14
aV#Watch #Wearable \u2013 Apple Watch May Not Be Available\u2026 http://t.co/1DwlI3x9VA #Apple #iWatch #AppleWatch #apps #iOS http://t.co/jvQ7DG92yc
p15
aV#Watch #Wearable \u2013 Apple Watch May Not Be Available\u2026 http://t.co/EOdk1xS6AH #Apple #iWatch #AppleWatch #apps #iOS http://t.co/lFEte37Gmx
p16
aVTo Buy in Stores Until June, Apple Watch May Not Be Available http://t.co/ueklM62S8y #Apple #iWatch #AppleWatch #apps #iOS
p17
aV#Watch #Wearable \u2013 Apple Watch May Not Be Available\u2026 http://t.co/aFtQpl9hCG #Apple #iWatch #AppleWatch #apps #iOS http://t.co/AGnbOVXC9J
p18
aV#Watch #Wearable \u2013 Apple Watch May Not Be Available to Buy in Stores Until\u2026 http://t.co/1rPLUQWcLW #Apple #iWatch #AppleWatch #apps #iOS
p19
aV#Watch #Wearable \u2013 Apple Watch May Not Be Available\u2026 http://t.co/6frrRDebug #Apple #iWatch #AppleWatch #apps #iOS http://t.co/TxnCpOqtg3
p20
aV#Watch #Wearable \u2013 Apple Watch May Not Be Available\u2026 http://t.co/eiQdBrdPLA #Apple #iWatch #AppleWatch #apps #iOS http://t.co/PakQuZiz2K
p21
aV#Watch #Wearable \u2013 Apple Watch May Not Be Available to Buy in Stores Until\u2026 http://t.co/1diiOfDJyi #Apple #iWatch #AppleWatch #apps #iOS
p22
aV#Watch #Wearable \u2013 Apple Watch May Not Be Available to Buy in Stores Until\u2026 http://t.co/X3Jkcy8fRs #Apple #iWatch #AppleWatch #apps #iOS
p23
aVTo Buy in Stores Until June, Apple Watch May Not Be Available http://t.co/v6CuKrCidW #Apple #iWatch #AppleWatch #apps #iOS
p24
aV#Watch #Wearable \u2013 Apple Watch May Not Be Available to Buy in Stores Until\u2026 http://t.co/amTdAiNzIz #Apple #iWatch #AppleWatch #apps #iOS
p25
aV#Watch #Wearable \u2013 Apple Watch May Not Be Available\u2026 http://t.co/xgOGDc5OTv #Apple #iWatch #AppleWatch #apps #iOS http://t.co/ikQScKsPiq
p26
aV#Watch #Wearable \u2013 Apple Watch May Not Be Available\u2026 http://t.co/Uz0tgiUjQN #Apple #iWatch #AppleWatch #apps #iOS http://t.co/pWvxYTSYAp
p27
aV#Watch #Wearable \u2013 Apple Watch May Not Be Available\u2026 http://t.co/IUKD0O0zQa #Apple #iWatch #AppleWatch #apps #iOS http://t.co/a44weCFFCw
p28
aV#Watch #Wearable \u2013 Apple Watch May Not Be Available to Buy in Stores Until\u2026 http://t.co/AoMK8xvTtf #Apple #iWatch #AppleWatch #apps #iOS
p29
aV#Watch #Wearable \u2013 Apple Watch May Not Be Available\u2026 http://t.co/nTdgFCa3yT #Apple #iWatch #AppleWatch #apps #iOS http://t.co/qZEPLL8SKc
p30
aV#Watch #Wearable \u2013 Apple Watch May Not Be Available to Buy in Stores Until\u2026 http://t.co/rIGUfZEMTX #Apple #iWatch #AppleWatch #apps #iOS
p31
aV#Watch #Wearable \u2013 Apple Watch May Not Be Available to Buy in Stores Until\u2026 http://t.co/pQUs7wPVao #Apple #iWatch #AppleWatch #apps #iOS
p32
aVTo Buy in Stores Until June, Apple Watch May Not Be Available http://t.co/nY5psNUdYZ #Apple #iWatch #AppleWatch #apps #iOS
p33
aV#Watch #Wearable \u2013 Apple Watch May Not Be Available to Buy in Stores Until\u2026 http://t.co/mAZE32JtHj #Apple #iWatch #AppleWatch #apps #iOS
p34
aV#Watch #Wearable \u2013 Apple Watch May Not Be Available\u2026 http://t.co/yKKGQw4zV3 #Apple #iWatch #AppleWatch #apps #iOS http://t.co/9zW3Z9gKxg
p35
aV#Watch #Wearable \u2013 Apple Watch May Not Be Available to Buy in Stores Until\u2026 http://t.co/TJ21VBfFtS #Apple #iWatch #AppleWatch #apps #iOS
p36
aV#Watch #Wearable \u2013 Apple Watch May Not Be Available\u2026 http://t.co/MsgpMCDF6I #Apple #iWatch #AppleWatch #apps #iOS http://t.co/tHFUVtSCQ3
p37
aV#Watch #Wearable \u2013 Apple Watch May Not Be Available\u2026 http://t.co/yHhiywEzwO #Apple #iWatch #AppleWatch #apps #iOS http://t.co/bFV5rdD3H0
p38
aVTo Buy in Stores Until June, Apple Watch May Not Be Available http://t.co/WFzUm2i6SF #Apple #iWatch #AppleWatch #apps #iOS
p39
aV#Watch #Wearable \u2013 Apple Watch May Not Be Available\u2026 http://t.co/1diiOfDJyi #Apple #iWatch #AppleWatch #apps #iOS http://t.co/Gioil8xRUi
p40
aV#Watch #Wearable \u2013 Apple Watch May Not Be Available\u2026 http://t.co/X3Jkcy8fRs #Apple #iWatch #AppleWatch #apps #iOS http://t.co/pdDg5yOwS5
p41
aV#Watch #Wearable \u2013 Apple Watch May Not Be Available to Buy in Stores Until\u2026 http://t.co/p0sRoMB6d3 #Apple #iWatch #AppleWatch #apps #iOS
p42
aVTo Buy in Stores Until June, Apple Watch May Not Be\u2026 http://t.co/ueklM62S8y #Apple #iWatch #AppleWatch #apps #iOS http://t.co/ouCDnLyKIl
p43
aV#Watch #Wearable \u2013 Apple Watch May Not Be Available\u2026 http://t.co/1rPLUQWcLW #Apple #iWatch #AppleWatch #apps #iOS http://t.co/EdOfLWXZn4
p44
aV#Watch #Wearable \u2013 Apple Watch May Not Be Available\u2026 http://t.co/RaoshCPd7S #Apple #iWatch #AppleWatch #apps #iOS http://t.co/044LUp4EM7
p45
aV#Watch #Wearable \u2013 Apple Watch May Not Be Available to Buy in Stores Until\u2026 http://t.co/CnsdW9Z4VE #Apple #iWatch #AppleWatch #apps #iOS
p46
aV#Watch #Wearable \u2013 Apple Watch May Not Be Available\u2026 http://t.co/zyhytlN9Uu #Apple #iWatch #AppleWatch #apps #iOS http://t.co/HUOuccRLPy
p47
aV#Watch #Wearable \u2013 Apple Watch May Not Be Available to Buy in Stores Until\u2026 http://t.co/sKLFtEeMUp #Apple #iWatch #AppleWatch #apps #iOS
p48
aV#Watch #Wearable \u2013 Apple Watch May Not Be Available\u2026 http://t.co/knI15PhfUy #Apple #iWatch #AppleWatch #apps #iOS http://t.co/MbPYG3LFci
p49
aV#Watch #Wearable \u2013 Apple Watch May Not Be Available to Buy in Stores Until\u2026 http://t.co/qs8i4wH39n #Apple #iWatch #AppleWatch #apps #iOS
p50
aV#Watch #Wearable \u2013 Apple Watch May Not Be Available\u2026 http://t.co/hRNQpv8A8v #Apple #iWatch #AppleWatch #apps #iOS http://t.co/FcJhAlGcNW
p51
aV#Watch #Wearable \u2013 Apple Watch May Not Be Available to Buy in Stores Until\u2026 http://t.co/SYifcRvrL3 #Apple #iWatch #AppleWatch #apps #iOS
p52
aV#Watch #Wearable \u2013 Apple Watch May Not Be Available\u2026 http://t.co/uU2GMIeQ5p #Apple #iWatch #AppleWatch #apps #iOS http://t.co/KOAJ7Fq5qU
p53
aV#Watch #Wearable \u2013 Apple Watch May Not Be Available\u2026 http://t.co/pQUs7wPVao #Apple #iWatch #AppleWatch #apps #iOS http://t.co/grksS4DDdv
p54
aV#Watch #Wearable \u2013 Apple Watch May Not Be Available to Buy in Stores Until\u2026 http://t.co/iqtb2YWXg5 #Apple #iWatch #AppleWatch #apps #iOS
p55
aV#Watch #Wearable \u2013 Apple Watch May Not Be Available to Buy in Stores Until\u2026 http://t.co/PJNlpHfA8D #Apple #iWatch #AppleWatch #apps #iOS
p56
aVTo Buy in Stores Until June, Apple Watch May Not Be\u2026 http://t.co/nY5psNUdYZ #Apple #iWatch #AppleWatch #apps #iOS http://t.co/I7YAuG21G1
p57
aV#Watch #Wearable \u2013 Apple Watch May Not Be Available to Buy in Stores Until\u2026 http://t.co/JnZB0JBoaN #Apple #iWatch #AppleWatch #apps #iOS
p58
aV#Watch #Wearable \u2013 Apple Watch May Not Be Available\u2026 http://t.co/CnsdW9Z4VE #Apple #iWatch #AppleWatch #apps #iOS http://t.co/XAfN94DxFD
p59
aV#Watch #Wearable \u2013 Apple Watch May Not Be Available to Buy in Stores Until\u2026 http://t.co/mpGS9j2PQs #Apple #iWatch #AppleWatch #apps #iOS
p60
aV#Watch #Wearable \u2013 Apple Watch May Not Be Available to Buy in Stores Until\u2026 http://t.co/sXaXc3pzug #Apple #iWatch #AppleWatch #apps #iOS
p61
aV#Watch #Wearable \u2013 Apple Watch May Not Be Available\u2026 http://t.co/mAZE32JtHj #Apple #iWatch #AppleWatch #apps #iOS http://t.co/L6g0KFQUej
p62
aV#Watch #Wearable \u2013 Apple Watch May Not Be Available to Buy in Stores Until\u2026 http://t.co/2AqZyWX5tY #Apple #iWatch #AppleWatch #apps #iOS
p63
aV#Watch #Wearable \u2013 Apple Watch May Not Be Available to Buy in Stores Until\u2026 http://t.co/I0kvyc7ITa #Apple #iWatch #AppleWatch #apps #iOS
p64
aV#Watch #Wearable \u2013 Apple Watch May Not Be Available to Buy in Stores Until\u2026 http://t.co/2Wk8RoMAfk #Apple #iWatch #AppleWatch #apps #iOS
p65
aV#Watch #Wearable \u2013 Apple Watch May Not Be Available\u2026 http://t.co/qs8i4wH39n #Apple #iWatch #AppleWatch #apps #iOS http://t.co/EbqhYgVPoi
p66
aVTo Buy in Stores Until June, Apple Watch May Not Be\u2026 http://t.co/WFzUm2i6SF #Apple #iWatch #AppleWatch #apps #iOS http://t.co/3quc3LQqE7
p67
aV#Watch #Wearable \u2013 Apple Watch May Not Be Available to Buy in Stores Until\u2026 http://t.co/sKgS1pleuJ #Apple #iWatch #AppleWatch #apps #iOS
p68
aVTo Buy in Stores Until June, Apple Watch May Not Be Available http://t.co/86xEnDy3gH #Apple #iWatch #AppleWatch #apps #iOS
p69
aV#Watch #Wearable \u2013 Apple Watch May Not Be Available to Buy in Stores Until\u2026 http://t.co/ru3kEmGAyF #Apple #iWatch #AppleWatch #apps #iOS
p70
aV#Watch #Wearable \u2013 Apple Watch May Not Be Available\u2026 http://t.co/sKLFtEeMUp #Apple #iWatch #AppleWatch #apps #iOS http://t.co/rMOWs0Jntz
p71
aV#Watch #Wearable \u2013 Apple Watch May Not Be Available\u2026 http://t.co/p0sRoMB6d3 #Apple #iWatch #AppleWatch #apps #iOS http://t.co/Xa2jopItj8
p72
aV#Watch #Wearable \u2013 Apple Watch May Not Be Available to Buy in Stores Until\u2026 http://t.co/0S5yOwnAvM #Apple #iWatch #AppleWatch #apps #iOS
p73
aV#Watch #Wearable \u2013 Apple Watch May Not Be Available\u2026 http://t.co/PJNlpHfA8D #Apple #iWatch #AppleWatch #apps #iOS http://t.co/rDSK6Fp45K
p74
aV#Watch #Wearable \u2013 Apple Watch May Not Be Available to Buy in Stores Until\u2026 http://t.co/LcyMn8C2y9 #Apple #iWatch #AppleWatch #apps #iOS
p75
aV#Watch #Wearable \u2013 Apple Watch May Not Be Available\u2026 http://t.co/TJ21VBfFtS #Apple #iWatch #AppleWatch #apps #iOS http://t.co/wHuawpGFK6
p76
aV#Watch #Wearable \u2013 Apple Watch May Not Be Available\u2026 http://t.co/iqtb2YWXg5 #Apple #iWatch #AppleWatch #apps #iOS http://t.co/WqAtrgNyWC
p77
aV#Watch #Wearable \u2013 Apple Watch May Not Be Available to Buy in Stores Until\u2026 http://t.co/fJ8c8p6Ndl #Apple #iWatch #AppleWatch #apps #iOS
p78
aV#Watch #Wearable \u2013 Apple Watch May Not Be Available to Buy in Stores Until\u2026 http://t.co/jLY9HdvoZC #Apple #iWatch #AppleWatch #apps #iOS
p79
aV#Watch #Wearable \u2013 Apple Watch May Not Be Available to Buy in Stores Until\u2026 http://t.co/UoprybwlzW #Apple #iWatch #AppleWatch #apps #iOS
p80
aV#Watch #Wearable \u2013 Apple Watch May Not Be Available to Buy in Stores Until\u2026 http://t.co/2n4XRQobXs #Apple #iWatch #AppleWatch #apps #iOS
p81
aV#Watch #Wearable \u2013 Apple Watch May Not Be Available to Buy in Stores Until\u2026 http://t.co/55LCYTiEdt #Apple #iWatch #AppleWatch #apps #iOS
p82
aV#Watch #Wearable \u2013 Apple Watch May Not Be Available to Buy in Stores Until\u2026 http://t.co/IWQU7ijHDx #Apple #iWatch #AppleWatch #apps #iOS
p83
aV#Watch #Wearable \u2013 Apple Watch May Not Be Available\u2026 http://t.co/2AqZyWX5tY #Apple #iWatch #AppleWatch #apps #iOS http://t.co/JSipF0XHqi
p84
aV#Watch #Wearable \u2013 Apple Watch May Not Be Available\u2026 http://t.co/SYifcRvrL3 #Apple #iWatch #AppleWatch #apps #iOS http://t.co/z44NVPfm4t
p85
aVTo Buy in Stores Until June, Apple Watch May Not Be\u2026 http://t.co/86xEnDy3gH #Apple #iWatch #AppleWatch #apps #iOS http://t.co/fW6esJY8oi
p86
aV#Watch #Wearable \u2013 Apple Watch May Not Be Available\u2026 http://t.co/2Wk8RoMAfk #Apple #iWatch #AppleWatch #apps #iOS http://t.co/nE5Tva8KvQ
p87
aV#Watch #Wearable \u2013 Apple Watch May Not Be Available\u2026 http://t.co/ru3kEmGAyF #Apple #iWatch #AppleWatch #apps #iOS http://t.co/kTGmmXhy5l
p88
aV#Watch #Wearable \u2013 Apple Watch May Not Be Available\u2026 http://t.co/0S5yOwnAvM #Apple #iWatch #AppleWatch #apps #iOS http://t.co/byAhxlUvKQ
p89
aV#Watch #Wearable \u2013 Apple Watch May Not Be Available to Buy in Stores Until\u2026 http://t.co/xeumPHovwz #Apple #iWatch #AppleWatch #apps #iOS
p90
aVTo Buy in Stores Until June, Apple Watch May Not Be Available http://t.co/v4NMBhbxEa #Apple #iWatch #AppleWatch #apps #iOS
p91
aV#Watch #Wearable \u2013 Apple Watch May Not Be Available\u2026 http://t.co/JnZB0JBoaN #Apple #iWatch #AppleWatch #apps #iOS http://t.co/1ryoDTpVuv
p92
aV#Watch #Wearable \u2013 Apple Watch May Not Be Available\u2026 http://t.co/sKgS1pleuJ #Apple #iWatch #AppleWatch #apps #iOS http://t.co/9QCQ7TKX2c
p93
aV#Watch #Wearable \u2013 Apple Watch May Not Be Available to Buy in Stores Until\u2026 http://t.co/X563PPLN7V #Apple #iWatch #AppleWatch #apps #iOS
p94
aV#Watch #Wearable \u2013 Apple Watch May Not Be Available\u2026 http://t.co/fJ8c8p6Ndl #Apple #iWatch #AppleWatch #apps #iOS http://t.co/PXzJChUYOF
p95
aV#Watch #Wearable \u2013 Apple Watch May Not Be Available\u2026 http://t.co/LcyMn8C2y9 #Apple #iWatch #AppleWatch #apps #iOS http://t.co/2epCCNkbKo
p96
aV#Watch #Wearable \u2013 Apple Watch May Not Be Available\u2026 http://t.co/I0kvyc7ITa #Apple #iWatch #AppleWatch #apps #iOS http://t.co/H1wAPItIfJ
p97
aV#Watch #Wearable \u2013 Apple Watch May Not Be Available\u2026 http://t.co/55LCYTiEdt #Apple #iWatch #AppleWatch #apps #iOS http://t.co/58g5IXIzJ1
p98
aV#Watch #Wearable \u2013 Apple Watch May Not Be Available to Buy in Stores Until\u2026 http://t.co/h02xMK0nWI #Apple #iWatch #AppleWatch #apps #iOS
p99
aV#Watch #Wearable \u2013 Apple Watch May Not Be Available\u2026 http://t.co/mpGS9j2PQs #Apple #iWatch #AppleWatch #apps #iOS http://t.co/YnKaF235qB
p100
a.