(lp0
V\u0427\u0430\u0441\u044b #Moto 360 \u043f\u043e\u0434\u0435\u0448\u0435\u0432\u0435\u043b\u0438 \u0434\u043e 165 \u0434\u043e\u043b\u043b\u0430\u0440\u043e\u0432 #\u043d\u043e\u0432\u043e\u0441\u0442\u0438 #androidwear #apple #applewatch #droid #google #googlestore #ios
p1
aV#applewatch \u0432\u0441\u0435 \u043e\u0447\u0435\u043d\u044c \u043a\u0440\u0430\u0441\u0438\u0432\u043e, \u043e\u0433\u0440\u043e\u043c\u043d\u043e\u0435 \u0436\u0435\u043b\u0430\u043d\u0438\u0435 \u043a\u0443\u043f\u0438\u0442\u044c, \u043d\u043e \u044f \u0432\u0441\u0451 \u0436\u0435 \u043f\u043e\u0434\u043e\u0436\u0434\u0443 \u043d\u043e\u0432\u044b\u0439 \u0430\u0439\u0444\u043e\u043d http://t.co/IV9gf4NsmW
p2
aVRT @ParisInstagram: \u0412 \u041f\u0430\u0440\u0438\u0436\u0435 \u043e\u0444\u0438\u0446\u0438\u0430\u043b\u044c\u043d\u043e \u043f\u0440\u0435\u0434\u0441\u0442\u0430\u0432\u0438\u043b\u0438 #applewatch. \u0421\u0442\u0430\u0440\u0442 \u043f\u0440\u043e\u0434\u0430\u0436 \u0441 24 \u0430\u043f\u0440\u0435\u043b\u044f, \u043d\u043e \u043e\u043d\u0438 \u0443\u0436\u0435 \u0434\u043e\u0441\u0442\u0443\u043f\u043d\u044b\u2026 http://t.co/XhR1sZsT1R http\u2026
p3
aVRT @Timofeev: \u041f\u043e \u043f\u0440\u0435\u0434\u0432\u0430\u0440\u0438\u0442\u0435\u043b\u044c\u043d\u044b\u043c \u043e\u0446\u0435\u043d\u043a\u0430\u043c \u0442\u043e\u043b\u044c\u043a\u043e 1 \u0447\u0435\u043b\u043e\u0432\u0435\u043a \u0438\u0437 10 \u043d\u0435 \u0440\u0435\u0448\u0438\u043b\u0441\u044f \u043d\u0430 \u043f\u043e\u043a\u0443\u043f\u043a\u0443 #AppleWatch \u043f\u043e\u0441\u043b\u0435 \u0438\u0445 \u043f\u0440\u0438\u043c\u0435\u0440\u043a\u0438. http://t.co/Dxu5orMStQ
p4
aV\u0410 Apple Watch \u0442\u0430\u043a \u0436\u0435 \u0433\u043d\u0443\u0442\u0441\u044f? #applewatch
p5
aVRT @GeekSputnikTV: \u041d\u0430 #AppleWatch \u043d\u0430\u0447\u0438\u043d\u0430\u044e\u0442 \u043f\u043e\u044f\u0432\u043b\u044f\u0442\u044c\u0441\u044f \u043f\u043e\u043b\u0435\u0437\u043d\u044b\u0435 \u043f\u0440\u0438\u043b\u043e\u0436\u0435\u043d\u0438\u044f #1Password. \u041e\u0441\u0442\u0430\u043b\u043e\u0441\u044c \u043e\u0442\u043a\u0440\u044b\u0442\u044c \u0432\u0441\u0435\u043c #NFC http://t.co/DyqZW5dNvB htt\u2026
p6
a.