(lp0
V\u0633\u0627\u0639\u0629 #Apple \u062a\u062a\u062d\u0643\u0651\u0645 \u0628\u0633\u064a\u0627\u0631\u0627\u062a #BMW \u0639\u0646 \u0628\u0639\u062f #\u062a\u0637\u0628\u064a\u0642 #\u062a\u0643\u0646\u0648\u0644\u0648\u062c\u064a\u0627 #AppleWatch\u000ahttp://t.co/gI4FmIYhSN https://t.co/KQNbB1RGnR http://t.co/u08E2kJv0X
p1
aVRT @krim111: @krim111 \u000a\u0645\u062a\u0627\u0628\u0639\u0629 + \u0631\u062a\u0648\u064a\u062a \u0644\u0647\u0630\u064a \u0627\u0644\u062a\u063a\u0631\u064a\u062f\u0629 \u0644\u062a\u062f\u062e\u0644 \u0627\u0644\u0633\u062d\u0628\u000ahttp://t.co/bp4I7GRPml\u000a#\u062a\u0642\u0646\u064a\u0629 #\u062a\u0643\u0646\u0648\u0644\u0648\u062c\u064a\u0627 #\u0623\u0628\u0644 #\u0622\u064a\u0641\u0648\u0646 #\u0628\u0631\u0627\u0645\u062c #\u0633\u0627\u0639\u0629_\u0623\u0628\u0644 #Appl\u2026
p2
aV\u0627\u0644\u0637\u0644\u0628 \u0627\u0644\u0645\u0633\u0628\u0642 \u0639\u0644\u0649 #AppleWatch \u0645\u062a\u0627\u062d \u0627\u0644\u0622\u0646 \u0639\u0644\u0649 \u0645\u062a\u062c\u0631 #\u0622\u0628\u0644\u000ahttp://t.co/xjtHgTRXRu\u000a\u000a#\u0645\u062f\u0648\u0646\u0629_\u0623\u0628\u0648\u0639\u0645\u0631
p3
aVRT @krim111: @krim111 \u000a\u0645\u062a\u0627\u0628\u0639\u0629 + \u0631\u062a\u0648\u064a\u062a \u0644\u0647\u0630\u064a \u0627\u0644\u062a\u063a\u0631\u064a\u062f\u0629 \u0644\u062a\u062f\u062e\u0644 \u0627\u0644\u0633\u062d\u0628\u000ahttp://t.co/bp4I7GRPml\u000a#\u062a\u0642\u0646\u064a\u0629 #\u062a\u0643\u0646\u0648\u0644\u0648\u062c\u064a\u0627 #\u0623\u0628\u0644 #\u0622\u064a\u0641\u0648\u0646 #\u0628\u0631\u0627\u0645\u062c #\u0633\u0627\u0639\u0629_\u0623\u0628\u0644 #Appl\u2026
p4
aVRT @krim111: @krim111 \u000a\u0645\u062a\u0627\u0628\u0639\u0629 + \u0631\u062a\u0648\u064a\u062a \u0644\u0647\u0630\u064a \u0627\u0644\u062a\u063a\u0631\u064a\u062f\u0629 \u0644\u062a\u062f\u062e\u0644 \u0627\u0644\u0633\u062d\u0628\u000ahttp://t.co/bp4I7GRPml\u000a#\u062a\u0642\u0646\u064a\u0629 #\u062a\u0643\u0646\u0648\u0644\u0648\u062c\u064a\u0627 #\u0623\u0628\u0644 #\u0622\u064a\u0641\u0648\u0646 #\u0628\u0631\u0627\u0645\u062c #\u0633\u0627\u0639\u0629_\u0623\u0628\u0644 #Appl\u2026
p5
aVRT @ia7md88: [ \u062e\u0628\u0631 \U0001f4c3 ]\u000a\u000a\u0623\u0639\u0644\u0646\u062a \u0634\u0631\u0643\u0629 @AgileBits \u0639\u0646 \u062a\u062d\u062f\u064a\u062b \u062a\u0637\u0628\u064a\u0642 @1Password \u0644\u0644\u0623\u064a\u0641\u0648\u0646\U0001f4f1 \u0648\u0627\u0644\u0622\u064a\u0628\u0627\u062f \u062d\u064a\u062b \u062a\u0645 \u0625\u0636\u0627\u0641\u0629 \u062f\u0639\u0645 \u0633\u0627\u0639\u0629 #AppleWatch.\u000a\u000a- http://t.co\u2026
p6
aVRT @krim111: @krim111 \u000a\u0645\u062a\u0627\u0628\u0639\u0629 + \u0631\u062a\u0648\u064a\u062a \u0644\u0647\u0630\u064a \u0627\u0644\u062a\u063a\u0631\u064a\u062f\u0629 \u0644\u062a\u062f\u062e\u0644 \u0627\u0644\u0633\u062d\u0628\u000ahttp://t.co/bp4I7GRPml\u000a#\u062a\u0642\u0646\u064a\u0629 #\u062a\u0643\u0646\u0648\u0644\u0648\u062c\u064a\u0627 #\u0623\u0628\u0644 #\u0622\u064a\u0641\u0648\u0646 #\u0628\u0631\u0627\u0645\u062c #\u0633\u0627\u0639\u0629_\u0623\u0628\u0644 #Appl\u2026
p7
aV#\u0622\u0628\u0644_\u0648\u0648\u062a\u0634 \u0642\u0628\u0644 \u0635\u062f\u0648\u0631\u0647\u0627 \u062a\u062e\u0637\u062a \u0645\u0628\u064a\u0639\u0627\u062a\u0647\u0627 \u0633\u0627\u0639\u0627\u062a #\u0627\u0644\u0623\u0646\u062f\u0631\u0648\u064a\u062f_\u0648\u064a\u0631!\u000a#AppleWatch\u000a\u000ahttp://t.co/jYC3dqyHz8
p8
aV\u0641\u064a \u064a\u0648\u0645 \u0648\u0627\u062d\u062f \u0633\u062c\u0644\u062a #Apple \u0623\u0643\u062b\u0631 \u0645\u0646 \u0645\u0644\u064a\u0648\u0646 \u0637\u0644\u0628 '\u0645\u062f\u0641\u0648\u0639' \u0644\u0633\u0627\u0639\u062a\u0647\u0627 \u0627\u0644\u062c\u062f\u064a\u062f\u0629 ..\u000a\u0639\u0644\u0645\u0627 \u0627\u0646\u0647\u0627 \u0627\u0644\u0633\u0627\u0639\u0629 \u0627\u0644\u0623\u0648\u0644\u0649 \u0644\u0644\u0634\u0631\u0643\u0629 \u0648 \u0644\u0645 \u064a\u0631\u0627\u0647\u0627 \u0623\u062d\u062f \u0639\u0644\u0649 \u0627\u0644\u0637\u0628\u064a\u0639\u0629 \u000a\u000a#AppleWatch
p9
aVRT @krim111: @krim111 \u000a\u0645\u062a\u0627\u0628\u0639\u0629 + \u0631\u062a\u0648\u064a\u062a \u0644\u0647\u0630\u064a \u0627\u0644\u062a\u063a\u0631\u064a\u062f\u0629 \u0644\u062a\u062f\u062e\u0644 \u0627\u0644\u0633\u062d\u0628\u000ahttp://t.co/bp4I7GRPml\u000a#\u062a\u0642\u0646\u064a\u0629 #\u062a\u0643\u0646\u0648\u0644\u0648\u062c\u064a\u0627 #\u0623\u0628\u0644 #\u0622\u064a\u0641\u0648\u0646 #\u0628\u0631\u0627\u0645\u062c #\u0633\u0627\u0639\u0629_\u0623\u0628\u0644 #Appl\u2026
p10
aVRT @krim111: @krim111 \u000a\u0645\u062a\u0627\u0628\u0639\u0629 + \u0631\u062a\u0648\u064a\u062a \u0644\u0647\u0630\u064a \u0627\u0644\u062a\u063a\u0631\u064a\u062f\u0629 \u0644\u062a\u062f\u062e\u0644 \u0627\u0644\u0633\u062d\u0628\u000ahttp://t.co/bp4I7GRPml\u000a#\u062a\u0642\u0646\u064a\u0629 #\u062a\u0643\u0646\u0648\u0644\u0648\u062c\u064a\u0627 #\u0623\u0628\u0644 #\u0622\u064a\u0641\u0648\u0646 #\u0628\u0631\u0627\u0645\u062c #\u0633\u0627\u0639\u0629_\u0623\u0628\u0644 #Appl\u2026
p11
aVRT @krim111: @krim111 \u000a\u0645\u062a\u0627\u0628\u0639\u0629 + \u0631\u062a\u0648\u064a\u062a \u0644\u0647\u0630\u064a \u0627\u0644\u062a\u063a\u0631\u064a\u062f\u0629 \u0644\u062a\u062f\u062e\u0644 \u0627\u0644\u0633\u062d\u0628\u000ahttp://t.co/bp4I7GRPml\u000a#\u062a\u0642\u0646\u064a\u0629 #\u062a\u0643\u0646\u0648\u0644\u0648\u062c\u064a\u0627 #\u0623\u0628\u0644 #\u0622\u064a\u0641\u0648\u0646 #\u0628\u0631\u0627\u0645\u062c #\u0633\u0627\u0639\u0629_\u0623\u0628\u0644 #Appl\u2026
p12
aV@AppleGreener1 \u000a\u0635\u0648\u0631\u0629 \u0644\u0627\u0633\u062a\u062e\u062f\u0627\u0645 \u0627\u0644\u0627\u0646\u0633\u062a\u0642\u0631\u0627\u0645 \u0639\u0644\u0649 \u0627\u0644\u0633\u0627\u0639\u0629 http://t.co/xVre94PZ3d\u000a#\u0627\u0628\u0644 #\u062c\u0631\u064a\u0646\u0631 #\u0627\u062e\u062a\u0641\u0627\u0621_\u0637\u0627\u0644\u0628_\u0633\u0639\u0648\u062f\u064a_\u0641\u064a_\u0623\u0645\u0631\u064a\u0643\u0627\u000a#AppleWatch
p13
aVRT @i_Cydia: \u0645\u0642\u0627\u0644\u064a \u0641\u064a \u0627\u0644\u062a\u0642\u0646\u064a\u0629 |\u000a\u0623\u0645\u0648\u0631 \u0645\u0646 \u0627\u0644\u0645\u0645\u0643\u0646 \u0623\u0646 \u062a\u062c\u0639\u0644\u0643 \u062a\u0634\u062a\u0631\u064a \u0633\u0627\u0639\u0629 \u0627\u0628\u0644\u000a\u000ahttp://t.co/er14KHyAQT\u000a\u000a#AppleWatch \u000a- http://t.co/sbP4xegleT
p14
aVRT @krim111: @krim111 \u000a\u0645\u062a\u0627\u0628\u0639\u0629 + \u0631\u062a\u0648\u064a\u062a \u0644\u0647\u0630\u064a \u0627\u0644\u062a\u063a\u0631\u064a\u062f\u0629 \u0644\u062a\u062f\u062e\u0644 \u0627\u0644\u0633\u062d\u0628\u000ahttp://t.co/bp4I7GRPml\u000a#\u062a\u0642\u0646\u064a\u0629 #\u062a\u0643\u0646\u0648\u0644\u0648\u062c\u064a\u0627 #\u0623\u0628\u0644 #\u0622\u064a\u0641\u0648\u0646 #\u0628\u0631\u0627\u0645\u062c #\u0633\u0627\u0639\u0629_\u0623\u0628\u0644 #Appl\u2026
p15
aVRT @i_Cydia: \u0645\u0642\u0627\u0644\u064a \u0641\u064a \u0627\u0644\u062a\u0642\u0646\u064a\u0629 |\u000a\u0623\u0645\u0648\u0631 \u0645\u0646 \u0627\u0644\u0645\u0645\u0643\u0646 \u0623\u0646 \u062a\u062c\u0639\u0644\u0643 \u062a\u0634\u062a\u0631\u064a \u0633\u0627\u0639\u0629 \u0627\u0628\u0644\u000a\u000ahttp://t.co/er14KHyAQT\u000a\u000a#AppleWatch \u000a- http://t.co/sbP4xegleT
p16
aVRT @krim111: @krim111 \u000a\u0645\u062a\u0627\u0628\u0639\u0629 + \u0631\u062a\u0648\u064a\u062a \u0644\u0647\u0630\u064a \u0627\u0644\u062a\u063a\u0631\u064a\u062f\u0629 \u0644\u062a\u062f\u062e\u0644 \u0627\u0644\u0633\u062d\u0628\u000ahttp://t.co/bp4I7GRPml\u000a#\u062a\u0642\u0646\u064a\u0629 #\u062a\u0643\u0646\u0648\u0644\u0648\u062c\u064a\u0627 #\u0623\u0628\u0644 #\u0622\u064a\u0641\u0648\u0646 #\u0628\u0631\u0627\u0645\u062c #\u0633\u0627\u0639\u0629_\u0623\u0628\u0644 #Appl\u2026
p17
aVRT @krim111: @krim111 \u000a\u0645\u062a\u0627\u0628\u0639\u0629 + \u0631\u062a\u0648\u064a\u062a \u0644\u0647\u0630\u064a \u0627\u0644\u062a\u063a\u0631\u064a\u062f\u0629 \u0644\u062a\u062f\u062e\u0644 \u0627\u0644\u0633\u062d\u0628\u000ahttp://t.co/bp4I7GRPml\u000a#\u062a\u0642\u0646\u064a\u0629 #\u062a\u0643\u0646\u0648\u0644\u0648\u062c\u064a\u0627 #\u0623\u0628\u0644 #\u0622\u064a\u0641\u0648\u0646 #\u0628\u0631\u0627\u0645\u062c #\u0633\u0627\u0639\u0629_\u0623\u0628\u0644 #Appl\u2026
p18
aV\u062e\u0628\u0631 \U0001f4f0 :\u000a\u000a\u0627\u0628\u0644 \u0642\u062f \u062a\u0637\u0644\u0642 \u0627\u0633\u0627\u0648\u0631 \u0631\u064a\u0627\u0636\u064a\u0629 \u062c\u062f\u064a\u062f\u0629 \u0644\u0640 \u0633\u0627\u0639\u0629 \u0627\u0628\u0644 \u0628\u0623\u0644\u0648\u0627\u0646 \u062c\u062f\u064a\u062f\u0629 \u0641\u064a \u0627\u0644\u0641\u062a\u0631\u0629 \u0627\u0644\u0642\u0627\u062f\u0645\u0629\u000a\u000a#AppleWatch \u000a- http://t.co/vU2DjtGJvY
p19
aV\u062e\u0628\u0631 \U0001f4f0 :\u000a\u000a\u0627\u0628\u0644 \u0642\u062f \u062a\u0637\u0644\u0642 \u0627\u0633\u0627\u0648\u0631 \u0631\u064a\u0627\u0636\u064a\u0629 \u062c\u062f\u064a\u062f\u0629 \u0644\u0640 \u0633\u0627\u0639\u0629 \u0627\u0628\u0644 \u0628\u0623\u0644\u0648\u0627\u0646 \u062c\u062f\u064a\u062f\u0629 \u0641\u064a \u0627\u0644\u0641\u062a\u0631\u0629 \u0627\u0644\u0642\u0627\u062f\u0645\u0629\u000a\u000a#AppleWatch \u000a- http://t.co/HoPRZW2zL8
p20
aVRT @i_Cydia: \u062e\u0628\u0631 \U0001f4f0 :\u000a\u000a\u0627\u0628\u0644 \u0642\u062f \u062a\u0637\u0644\u0642 \u0627\u0633\u0627\u0648\u0631 \u0631\u064a\u0627\u0636\u064a\u0629 \u062c\u062f\u064a\u062f\u0629 \u0644\u0640 \u0633\u0627\u0639\u0629 \u0627\u0628\u0644 \u0628\u0623\u0644\u0648\u0627\u0646 \u062c\u062f\u064a\u062f\u0629 \u0641\u064a \u0627\u0644\u0641\u062a\u0631\u0629 \u0627\u0644\u0642\u0627\u062f\u0645\u0629\u000a\u000a#AppleWatch \u000a- http://t.co/HoPRZW2zL8
p21
aVRT @i_Cydia: \u062e\u0628\u0631 \U0001f4f0 :\u000a\u000a\u0627\u0628\u0644 \u0642\u062f \u062a\u0637\u0644\u0642 \u0627\u0633\u0627\u0648\u0631 \u0631\u064a\u0627\u0636\u064a\u0629 \u062c\u062f\u064a\u062f\u0629 \u0644\u0640 \u0633\u0627\u0639\u0629 \u0627\u0628\u0644 \u0628\u0623\u0644\u0648\u0627\u0646 \u062c\u062f\u064a\u062f\u0629 \u0641\u064a \u0627\u0644\u0641\u062a\u0631\u0629 \u0627\u0644\u0642\u0627\u062f\u0645\u0629\u000a\u000a#AppleWatch \u000a- http://t.co/HoPRZW2zL8
p22
aV\u062e\u0628\u0631 \U0001f4f0 :\u000a\u000a\u0627\u0628\u0644 \u0642\u062f \u062a\u0637\u0644\u0642 \u0627\u0633\u0627\u0648\u0631 \u0631\u064a\u0627\u0636\u064a\u0629 \u062c\u062f\u064a\u062f\u0629 \u0644\u0640 \u0633\u0627\u0639\u0629 \u0627\u0628\u0644 \u0628\u0623\u0644\u0648\u0627\u0646 \u062c\u062f\u064a\u062f\u0629 \u0641\u064a \u0627\u0644\u0641\u062a\u0631\u0629 \u0627\u0644\u0642\u0627\u062f\u0645\u0629\u000a\u000a#AppleWatch http://t.co/mQomlQlrHI
p23
aVRT @i_Cydia: \u062e\u0628\u0631 \U0001f4f0 :\u000a\u000a\u0627\u0628\u0644 \u0642\u062f \u062a\u0637\u0644\u0642 \u0627\u0633\u0627\u0648\u0631 \u0631\u064a\u0627\u0636\u064a\u0629 \u062c\u062f\u064a\u062f\u0629 \u0644\u0640 \u0633\u0627\u0639\u0629 \u0627\u0628\u0644 \u0628\u0623\u0644\u0648\u0627\u0646 \u062c\u062f\u064a\u062f\u0629 \u0641\u064a \u0627\u0644\u0641\u062a\u0631\u0629 \u0627\u0644\u0642\u0627\u062f\u0645\u0629\u000a\u000a#AppleWatch \u000a- http://t.co/HoPRZW2zL8
p24
aV\u0627\u0628\u0644 \u0642\u062f \u062a\u0637\u0644\u0642 \u0627\u0633\u0627\u0648\u0631 \u0631\u064a\u0627\u0636\u064a\u0629 \u062c\u062f\u064a\u062f\u0629 \u0644\u0640 \u0633\u0627\u0639\u0629 \u0627\u0628\u0644 \u0628\u0623\u0644\u0648\u0627\u0646 \u062c\u062f\u064a\u062f\u0629 \u0641\u064a \u0627\u0644\u0641\u062a\u0631\u0629 \u0627\u0644\u0642\u0627\u062f\u0645\u0629\u000a\u000a#AppleWatch \u000a- http://t.co/zxgu3ssYoj\u000a\u000a\u064a\u0627\u0632\u064a\u0646 \u0627\u0644\u0623\u0635\u0641\u0631 \U0001f60d\U0001f49b
p25
aVRT @i_Cydia: \u062e\u0628\u0631 \U0001f4f0 :\u000a\u000a\u0627\u0628\u0644 \u0642\u062f \u062a\u0637\u0644\u0642 \u0627\u0633\u0627\u0648\u0631 \u0631\u064a\u0627\u0636\u064a\u0629 \u062c\u062f\u064a\u062f\u0629 \u0644\u0640 \u0633\u0627\u0639\u0629 \u0627\u0628\u0644 \u0628\u0623\u0644\u0648\u0627\u0646 \u062c\u062f\u064a\u062f\u0629 \u0641\u064a \u0627\u0644\u0641\u062a\u0631\u0629 \u0627\u0644\u0642\u0627\u062f\u0645\u0629\u000a\u000a#AppleWatch \u000a- http://t.co/HoPRZW2zL8
p26
aVRT @i_Cydia: \u062e\u0628\u0631 \U0001f4f0 :\u000a\u000a\u0627\u0628\u0644 \u0642\u062f \u062a\u0637\u0644\u0642 \u0627\u0633\u0627\u0648\u0631 \u0631\u064a\u0627\u0636\u064a\u0629 \u062c\u062f\u064a\u062f\u0629 \u0644\u0640 \u0633\u0627\u0639\u0629 \u0627\u0628\u0644 \u0628\u0623\u0644\u0648\u0627\u0646 \u062c\u062f\u064a\u062f\u0629 \u0641\u064a \u0627\u0644\u0641\u062a\u0631\u0629 \u0627\u0644\u0642\u0627\u062f\u0645\u0629\u000a\u000a#AppleWatch \u000a- http://t.co/HoPRZW2zL8
p27
aVRT @i_Cydia: \u062e\u0628\u0631 \U0001f4f0 :\u000a\u000a\u0627\u0628\u0644 \u0642\u062f \u062a\u0637\u0644\u0642 \u0627\u0633\u0627\u0648\u0631 \u0631\u064a\u0627\u0636\u064a\u0629 \u062c\u062f\u064a\u062f\u0629 \u0644\u0640 \u0633\u0627\u0639\u0629 \u0627\u0628\u0644 \u0628\u0623\u0644\u0648\u0627\u0646 \u062c\u062f\u064a\u062f\u0629 \u0641\u064a \u0627\u0644\u0641\u062a\u0631\u0629 \u0627\u0644\u0642\u0627\u062f\u0645\u0629\u000a\u000a#AppleWatch \u000a- http://t.co/HoPRZW2zL8
p28
aVRT @i_Cydia: \u062e\u0628\u0631 \U0001f4f0 :\u000a\u000a\u0627\u0628\u0644 \u0642\u062f \u062a\u0637\u0644\u0642 \u0627\u0633\u0627\u0648\u0631 \u0631\u064a\u0627\u0636\u064a\u0629 \u062c\u062f\u064a\u062f\u0629 \u0644\u0640 \u0633\u0627\u0639\u0629 \u0627\u0628\u0644 \u0628\u0623\u0644\u0648\u0627\u0646 \u062c\u062f\u064a\u062f\u0629 \u0641\u064a \u0627\u0644\u0641\u062a\u0631\u0629 \u0627\u0644\u0642\u0627\u062f\u0645\u0629\u000a\u000a#AppleWatch \u000a- http://t.co/HoPRZW2zL8
p29
aV\u062e\u0628\u0631 \U0001f4f0 :\u000a\u000a\u0627\u0628\u0644 \u0642\u062f \u062a\u0637\u0644\u0642 \u0627\u0633\u0627\u0648\u0631 \u0631\u064a\u0627\u0636\u064a\u0629 \u062c\u062f\u064a\u062f\u0629 \u0644\u0640 \u0633\u0627\u0639\u0629 \u0627\u0628\u0644 \u0628\u0623\u0644\u0648\u0627\u0646 \u062c\u062f\u064a\u062f\u0629 \u0641\u064a \u0627\u0644\u0641\u062a\u0631\u0629 \u0627\u0644\u0642\u0627\u062f\u0645\u0629\u000a\u000a#AppleWatch \u000a- http://t.co/s4WNkBX09l
p30
a.