(lp0
V\u062e\u0628\u0631 \U0001f4f0 :\u000a\u000a\u0627\u0628\u0644 \u0642\u062f \u062a\u0637\u0644\u0642 \u0627\u0633\u0627\u0648\u0631 \u0631\u064a\u0627\u0636\u064a\u0629 \u062c\u062f\u064a\u062f\u0629 \u0644\u0640 \u0633\u0627\u0639\u0629 \u0627\u0628\u0644 \u0628\u0623\u0644\u0648\u0627\u0646 \u062c\u062f\u064a\u062f\u0629 \u0641\u064a \u0627\u0644\u0641\u062a\u0631\u0629 \u0627\u0644\u0642\u0627\u062f\u0645\u0629\u000a\u000a#AppleWatch \u000a- http://t.co/s4WNkBFoKL
p1
aV\u0645\u0627 \u0627\u0644\u0630\u064a \u0644\u0627 \u064a\u0641\u0647\u0645\u0647 \u0646\u0642\u0627\u062f \u0623\u0628\u0644 \u0648\u0648\u062a\u0634 \u000a\u000ahttp://t.co/FsZVmUOX6b\u000a\u000a#Applewatch http://t.co/oEgEhfLuC8
p2
aVRT @krim111: @krim111 \u000a\u0645\u062a\u0627\u0628\u0639\u0629 + \u0631\u062a\u0648\u064a\u062a \u0644\u0647\u0630\u064a \u0627\u0644\u062a\u063a\u0631\u064a\u062f\u0629 \u0644\u062a\u062f\u062e\u0644 \u0627\u0644\u0633\u062d\u0628\u000ahttp://t.co/bp4I7GRPml\u000a#\u062a\u0642\u0646\u064a\u0629 #\u062a\u0643\u0646\u0648\u0644\u0648\u062c\u064a\u0627 #\u0623\u0628\u0644 #\u0622\u064a\u0641\u0648\u0646 #\u0628\u0631\u0627\u0645\u062c #\u0633\u0627\u0639\u0629_\u0623\u0628\u0644 #Appl\u2026
p3
aV\u0631\u0648\u064a\u062a\u0631\u0632 \u0633\u0648\u062a \u0625\u0633\u062a\u0637\u0644\u0627\u0639 \u0648\u0648\u062c\u062f\u062a \u0623\u0646 1 \u0645\u0646 \u0643\u0644 6 \u0623\u0645\u0631\u064a\u0643\u0627\u0646 \u0631\u0627\u062d \u064a\u0634\u062a\u0631\u064a \u0633\u0627\u0639\u0629 \u0622\u0628\u0644 \u000a\u000a#\u062a\u0642\u0646\u064a\u0629  #AppleWatch
p4
aVRT @SaudiAndroid: \u0631\u0648\u064a\u062a\u0631\u0632 \u0633\u0648\u062a \u0625\u0633\u062a\u0637\u0644\u0627\u0639 \u0648\u0648\u062c\u062f\u062a \u0623\u0646 1 \u0645\u0646 \u0643\u0644 6 \u0623\u0645\u0631\u064a\u0643\u0627\u0646 \u0631\u0627\u062d \u064a\u0634\u062a\u0631\u064a \u0633\u0627\u0639\u0629 \u0622\u0628\u0644 \u000a\u000a#\u062a\u0642\u0646\u064a\u0629  #AppleWatch
p5
aVRT @i_Cydia: \u062e\u0628\u0631 \U0001f4f0 :\u000a\u000a\u0627\u0628\u0644 \u0642\u062f \u062a\u0637\u0644\u0642 \u0627\u0633\u0627\u0648\u0631 \u0631\u064a\u0627\u0636\u064a\u0629 \u062c\u062f\u064a\u062f\u0629 \u0644\u0640 \u0633\u0627\u0639\u0629 \u0627\u0628\u0644 \u0628\u0623\u0644\u0648\u0627\u0646 \u062c\u062f\u064a\u062f\u0629 \u0641\u064a \u0627\u0644\u0641\u062a\u0631\u0629 \u0627\u0644\u0642\u0627\u062f\u0645\u0629\u000a\u000a#AppleWatch \u000a- http://t.co/HoPRZW2zL8
p6
aVRT @SaudiAndroid: \u0631\u0648\u064a\u062a\u0631\u0632 \u0633\u0648\u062a \u0625\u0633\u062a\u0637\u0644\u0627\u0639 \u0648\u0648\u062c\u062f\u062a \u0623\u0646 1 \u0645\u0646 \u0643\u0644 6 \u0623\u0645\u0631\u064a\u0643\u0627\u0646 \u0631\u0627\u062d \u064a\u0634\u062a\u0631\u064a \u0633\u0627\u0639\u0629 \u0622\u0628\u0644 \u000a\u000a#\u062a\u0642\u0646\u064a\u0629  #AppleWatch
p7
aV@AppleGreener1 \u000a\u0635\u0648\u0631\u0629 \u0644\u0627\u0633\u062a\u062e\u062f\u0627\u0645 \u0627\u0644\u0627\u0646\u0633\u062a\u0642\u0631\u0627\u0645 \u0639\u0644\u0649 \u0627\u0644\u0633\u0627\u0639\u0629 http://t.co/xVre94ynED\u000a#\u0627\u0628\u0644\u000a#AppleWatch \u000a#\u062c\u0631\u064a\u0646\u0631 #\u062d\u064a\u0627\u062a\u064a_\u0647\u062a\u062a\u063a\u064a\u0631
p8
aV@AppleGreener1 \u062a\u062d\u062f\u064a\u062f \u0645\u0648\u0642\u0639 \u0633\u064a\u0627\u0631\u062a\u0643 \u0628\u0648\u0627\u0633\u0637\u0629 \u0633\u0627\u0639\u0629 \u0627\u0628\u0644 \u0648\u062a\u062d\u062f\u064a\u062f \u0645\u062f\u0629 \u0627\u0644\u0648\u0635\u0648\u0644 \u0627\u0644\u064a\u0647\u0627\u000a#\u0645\u0624\u062a\u0645\u0631_\u0627\u0628\u0644 \u000a#\u0627\u0628\u0644 #\u062d\u064a\u0627\u062a\u064a_\u0647\u062a\u062a\u063a\u064a\u0631\u000a#\u062c\u0631\u064a\u0646\u0631 \u000a#AppleWatch
p9
aV[ \u062e\u0628\u0631 \U0001f4c3 ]\u000a\u000a\u062a\u0645 \u0627\u0644\u064a\u0648\u0645 \u062a\u062d\u062f\u064a\u062b \u062a\u0637\u0628\u064a\u0642 Glide \u0644\u0644\u0623\u064a\u0641\u0648\u0646 \U0001f4f1 \u062d\u064a\u062b \u062a\u0645 \u0625\u0636\u0627\u0641\u0629 \u062f\u0639\u0645 \u0633\u0627\u0639\u0629 #AppleWatch \u0644\u064a\u0643\u0648\u0646 \u0623\u0648\u0644 \u062a\u0637\u0628\u064a\u0642 \u064a\u062a\u064a\u062d \u0644\u0643 \u0627\u0644\u0645\u0643\u0627\u0644\u0645\u0647 \u0627\u0644\u0645\u0631\u0626\u064a\u0647 \u0645\u0646 \u062e\u0644\u0627\u0644 \u0627\u0644\u0633\u0627\u0639\u0647.
p10
aVRT @SaudiAndroid: \u0631\u0648\u064a\u062a\u0631\u0632 \u0633\u0648\u062a \u0625\u0633\u062a\u0637\u0644\u0627\u0639 \u0648\u0648\u062c\u062f\u062a \u0623\u0646 1 \u0645\u0646 \u0643\u0644 6 \u0623\u0645\u0631\u064a\u0643\u0627\u0646 \u0631\u0627\u062d \u064a\u0634\u062a\u0631\u064a \u0633\u0627\u0639\u0629 \u0622\u0628\u0644 \u000a\u000a#\u062a\u0642\u0646\u064a\u0629  #AppleWatch
p11
aVRT @Mostafaa_Kamell: \u0623\u0646 \u0645\u0634 \u0639\u0627\u064a\u0632 \u0627\u0631\u062a\u0628\u0637 \u0628\u0648\u062d\u062f\u0629 \u0627\u0644\u0627 \u0644\u0645\u0627 \u064a\u0643\u0648\u0646 \u0639\u0646\u062f\u0647\u0627 \u0627\u0644\u0645\u0642\u062f\u0631\u0629 \u062a\u062c\u064a\u0628\u0644\u064a \u0647\u062f\u064a\u0629 \u0632\u064a \u062f\u0629 :) \U0001f339\u2764\ufe0f \u000a\u0627\u062a\u0641\u0642\u0646\u0627 !\u061f\u061f\u000a#AppleWatch \U0001f602 http://t.co/UrBje\u2026
p12
aV@AppleGreener1 \u000a\u0635\u0648\u0631\u0629 \u0644\u0627\u0633\u062a\u062e\u062f\u0627\u0645 \u0627\u0644\u0627\u0646\u0633\u062a\u0642\u0631\u0627\u0645 \u0639\u0644\u0649 \u0627\u0644\u0633\u0627\u0639\u0629 http://t.co/xVre94ynED\u000a#\u0627\u0628\u0644 #\u0643\u0644\u0645\u0627\u062a_\u062a\u0639\u0628\u0631_\u0639\u0646_\u0627\u0644\u062d\u0628\u000a#AppleWatch \u000a#\u062c\u0631\u064a\u0646\u0631
p13
aV@AppleGreener1 \u000a\u0635\u0648\u0631\u0629 \u0644\u0627\u0633\u062a\u062e\u062f\u0627\u0645 \u0627\u0644\u0627\u0646\u0633\u062a\u0642\u0631\u0627\u0645 \u0639\u0644\u0649 \u0627\u0644\u0633\u0627\u0639\u0629 http://t.co/xVre94ynED\u000a#\u0627\u0628\u0644 #\u0648\u0638\u0627\u0626\u0641_STO\u000a#AppleWatch \u000a#\u062c\u0631\u064a\u0646\u0631
p14
aV@AppleGreener1 \u000a\u0635\u0648\u0631\u0629 \u0644\u0627\u0633\u062a\u062e\u062f\u0627\u0645 \u0627\u0644\u0627\u0646\u0633\u062a\u0642\u0631\u0627\u0645 \u0639\u0644\u0649 \u0627\u0644\u0633\u0627\u0639\u0629 http://t.co/xVre94ynED\u000a#\u0627\u0628\u0644 #\u0627\u0634\u064a\u0627\u0621_\u0641\u064a_\u0645\u062c\u062a\u0645\u0639\u0646\u0627_\u0644\u0627\u0628\u062f_\u0627\u0646_\u062a\u062a\u0648\u0642\u0641\u000a#AppleWatch \u000a#\u062c\u0631\u064a\u0646\u0631
p15
aV\u062e\u0628\u0631 | \u0645\u0648\u0642\u0639 @MacRumors \u064a\u062d\u0635\u0644 \u0639\u0644\u0649 \u0645\u0639\u0644\u0648\u0645\u0627\u062a \u062a\u0634\u064a\u0631 \u0628\u0623\u0646 #\u0622\u0628\u0644 \u062a\u0646\u0648\u064a \u0628\u062f\u0621 \u0634\u062d\u0646 \u0633\u0627\u0639\u0629 #AppleWatch \u0644\u0644\u0639\u0645\u0644\u0627\u0621 \u0642\u0628\u0644 \u062d\u0644\u0648\u0644 \u0634\u0647\u0631 \u064a\u0648\u0646\u064a\u0648 \u000a\u000a#\u062a\u0642\u0646\u064a\u0629 #Apple_ar
p16
aV\u062e\u0628\u0631 | #\u0622\u0628\u0644 \u062a\u0646\u0634\u0631 \u0641\u064a\u062f\u064a\u0648\u0647\u0627\u062a \u062c\u062f\u064a\u062f\u0629 \u0644\u062e\u062f\u0645\u0629 \u0633\u064a\u0631\u064a \u0648 \u062a\u0637\u0628\u064a\u0642 \u0627\u0644\u062e\u0631\u0627\u0626\u0637 \u0648 \u0627\u0644\u0645\u0648\u0633\u064a\u0642\u0649 \u0639\u0644\u0649 \u0633\u0627\u0639\u0629 #AppleWatch \u000a\u000a http://t.co/8GeMiQwPhe\u000a\u000a#\u062a\u0642\u0646\u064a\u0629 #Apple_ar
p17
aV\u062e\u0628\u0631 | #\u0622\u0628\u0644 \u062a\u0646\u0634\u0631 \u0641\u064a\u062f\u064a\u0648\u0647\u0627\u062a \u062c\u062f\u064a\u062f\u0629 \u0644\u0644\u0645\u0643\u0627\u0644\u0645\u0627\u062a \u0648\u0633\u064a\u0631\u064a \u0648\u062a\u0637\u0628\u064a\u0642 \u0627\u0644\u062e\u0631\u0627\u0626\u0637 \u0648\u0627\u0644\u0645\u0648\u0633\u064a\u0642\u0649 \u0639\u0644\u0649 \u0633\u0627\u0639\u0629 #AppleWatch \u000a\u000a http://t.co/8GeMiQwPhe\u000a\u000a#\u062a\u0642\u0646\u064a\u0629 #Apple_ar
p18
aV@: #Apple #apple_ar #AppleWatch #\u0627\u0628\u0644_\u0648\u0627\u0644\u062c\u064a\u0644\u0628\u0631\u064a\u0643 #\u0627\u0628\u0644 #\u0633\u0627\u0639\u0629_\u0627\u0628\u0644 #\u0627\u0649_\u0648\u0648\u062a\u0634 #\u0623\u062d\u0644\u0649_\u062d\u064a\u0627\u0629_\u0641\u0649_\u0637\u0627\u0639\u0629_\u0627\u0644\u0644\u0647 #\u0627\u064a\u0641\u0648\u0646 http://t.co/YVZd9J9KGV
p19
aV\u062e\u0628\u0631 \U0001f4f0 :\u000a\u000a\u062a\u0642\u0627\u0631\u064a\u0631 \u062c\u062f\u064a\u062f\u0647 \u062a\u0634\u064a\u0631 \u0627\u0644\u0649 \u0627\u0646 \u0627\u0644\u0637\u0644\u0628 \u0627\u0644\u0645\u0633\u0628\u0642 \u0639\u0644\u0649 \u0633\u0627\u0639\u0629 \u0627\u0628\u0644 \u0633\u064a\u0635\u0644 \u0627\u0644\u0649 2.3 \u0645\u0644\u064a\u0648\u0646 \u0633\u0627\u0639\u0629\u000a\u000a#AppleWatch\u000a- http://t.co/JYOc8IHuEy
p20
aVRT @i_Cydia: \u062e\u0628\u0631 \U0001f4f0 :\u000a\u000a\u062a\u0642\u0627\u0631\u064a\u0631 \u062c\u062f\u064a\u062f\u0647 \u062a\u0634\u064a\u0631 \u0627\u0644\u0649 \u0627\u0646 \u0627\u0644\u0637\u0644\u0628 \u0627\u0644\u0645\u0633\u0628\u0642 \u0639\u0644\u0649 \u0633\u0627\u0639\u0629 \u0627\u0628\u0644 \u0633\u064a\u0635\u0644 \u0627\u0644\u0649 2.3 \u0645\u0644\u064a\u0648\u0646 \u0633\u0627\u0639\u0629\u000a\u000a#AppleWatch\u000a- http://t.co/JYOc8IHuEy
p21
aVRT @i_Cydia: \u062e\u0628\u0631 \U0001f4f0 :\u000a\u000a\u062a\u0642\u0627\u0631\u064a\u0631 \u062c\u062f\u064a\u062f\u0647 \u062a\u0634\u064a\u0631 \u0627\u0644\u0649 \u0627\u0646 \u0627\u0644\u0637\u0644\u0628 \u0627\u0644\u0645\u0633\u0628\u0642 \u0639\u0644\u0649 \u0633\u0627\u0639\u0629 \u0627\u0628\u0644 \u0633\u064a\u0635\u0644 \u0627\u0644\u0649 2.3 \u0645\u0644\u064a\u0648\u0646 \u0633\u0627\u0639\u0629\u000a\u000a#AppleWatch\u000a- http://t.co/JYOc8IHuEy
p22
aVRT @i_Cydia: \u062e\u0628\u0631 \U0001f4f0 :\u000a\u000a\u062a\u0642\u0627\u0631\u064a\u0631 \u062c\u062f\u064a\u062f\u0647 \u062a\u0634\u064a\u0631 \u0627\u0644\u0649 \u0627\u0646 \u0627\u0644\u0637\u0644\u0628 \u0627\u0644\u0645\u0633\u0628\u0642 \u0639\u0644\u0649 \u0633\u0627\u0639\u0629 \u0627\u0628\u0644 \u0633\u064a\u0635\u0644 \u0627\u0644\u0649 2.3 \u0645\u0644\u064a\u0648\u0646 \u0633\u0627\u0639\u0629\u000a\u000a#AppleWatch\u000a- http://t.co/JYOc8IHuEy
p23
aVRT @i_Cydia: \u062e\u0628\u0631 \U0001f4f0 :\u000a\u000a\u062a\u0642\u0627\u0631\u064a\u0631 \u062c\u062f\u064a\u062f\u0647 \u062a\u0634\u064a\u0631 \u0627\u0644\u0649 \u0627\u0646 \u0627\u0644\u0637\u0644\u0628 \u0627\u0644\u0645\u0633\u0628\u0642 \u0639\u0644\u0649 \u0633\u0627\u0639\u0629 \u0627\u0628\u0644 \u0633\u064a\u0635\u0644 \u0627\u0644\u0649 2.3 \u0645\u0644\u064a\u0648\u0646 \u0633\u0627\u0639\u0629\u000a\u000a#AppleWatch\u000a- http://t.co/JYOc8IHuEy
p24
aVRT @i_Cydia: \u062e\u0628\u0631 \U0001f4f0 :\u000a\u000a\u062a\u0642\u0627\u0631\u064a\u0631 \u062c\u062f\u064a\u062f\u0647 \u062a\u0634\u064a\u0631 \u0627\u0644\u0649 \u0627\u0646 \u0627\u0644\u0637\u0644\u0628 \u0627\u0644\u0645\u0633\u0628\u0642 \u0639\u0644\u0649 \u0633\u0627\u0639\u0629 \u0627\u0628\u0644 \u0633\u064a\u0635\u0644 \u0627\u0644\u0649 2.3 \u0645\u0644\u064a\u0648\u0646 \u0633\u0627\u0639\u0629\u000a\u000a#AppleWatch\u000a- http://t.co/JYOc8IHuEy
p25
aVRT @i_Cydia: \u062e\u0628\u0631 \U0001f4f0 :\u000a\u000a\u062a\u0642\u0627\u0631\u064a\u0631 \u062c\u062f\u064a\u062f\u0647 \u062a\u0634\u064a\u0631 \u0627\u0644\u0649 \u0627\u0646 \u0627\u0644\u0637\u0644\u0628 \u0627\u0644\u0645\u0633\u0628\u0642 \u0639\u0644\u0649 \u0633\u0627\u0639\u0629 \u0627\u0628\u0644 \u0633\u064a\u0635\u0644 \u0627\u0644\u0649 2.3 \u0645\u0644\u064a\u0648\u0646 \u0633\u0627\u0639\u0629\u000a\u000a#AppleWatch\u000a- http://t.co/JYOc8IHuEy
p26
aV\u062e\u0628\u0631 \U0001f4f0 :\u000a\u000a\u062a\u0642\u0627\u0631\u064a\u0631 \u062c\u062f\u064a\u062f\u0647 \u062a\u0634\u064a\u0631 \u0627\u0644\u0649 \u0627\u0646 \u0627\u0644\u0637\u0644\u0628 \u0627\u0644\u0645\u0633\u0628\u0642 \u0639\u0644\u0649 \u0633\u0627\u0639\u0629 \u0627\u0628\u0644 \u0633\u064a\u0635\u0644 \u0627\u0644\u0649 2.3 \u0645\u0644\u064a\u0648\u0646 \u0633\u0627\u0639\u0629\u000a\u000a#AppleWatch\u000a- http://t.co/4uvaueCJJj
p27
a.