(lp0
V\u0412 \u043f\u0440\u043e\u0434\u0430\u0436\u0435 \u043f\u043e\u044f\u0432\u0438\u043b\u0438\u0441\u044c \u0437\u043e\u043b\u043e\u0442\u044b\u0435 #AppleWatch \u0437\u0430 $177,000. \u0411\u0440\u044e\u043b\u0438\u043a\u0438,\u0430\u043b\u043c\u0430\u0437\u044b \u0438 \u0442.\u0434 http://t.co/gxh4dYIcCL
p1
aV#Apple #iPhone #iPad #AppleWatch\u000a\u041e \u0432\u044b\u0441\u043e\u043a\u0438\u0445 \u0442\u0435\u0445\u043d\u043e\u043b\u043e\u0433\u0438\u044f\u0445 \u0438 \u0440\u044f\u0434\u043e\u043c\u000a https://t.co/GtmDgLTmwC
p2
aVRT @yura_pavlyt: \u0412 \u043f\u0440\u043e\u0434\u0430\u0436\u0435 \u043f\u043e\u044f\u0432\u0438\u043b\u0438\u0441\u044c \u0437\u043e\u043b\u043e\u0442\u044b\u0435 #AppleWatch \u0437\u0430 $177,000. \u0411\u0440\u044e\u043b\u0438\u043a\u0438,\u0430\u043b\u043c\u0430\u0437\u044b \u0438 \u0442.\u0434 http://t.co/gxh4dYIcCL
p3
aV@wylsacom \u043a\u0441\u0442\u0430\u0442\u0438, \u0414\u0436.\u0414\u0436. \u0410\u0431\u0440\u0430\u043c\u0441 \u043d\u0430 \u043f\u0440\u0435\u0437\u0435\u043d\u0442\u0430\u0446\u0438\u0438 \u043d\u043e\u0432\u044b\u0445 Star Wars \u0431\u044b\u043b \u0441 #AppleWatch http://t.co/9xHOR8DThh
p4
aV\u0411\u0440\u0438\u0442\u0430\u043d\u0441\u043a\u0438\u0439 \u0434\u0438\u0437\u0430\u0439\u043d\u0435\u0440 \u043f\u043e\u043a\u0430\u0437\u0430\u043b \u043a\u043e\u043d\u0446\u0435\u043f\u0442 #AppleWatch  \u0441 \u043a\u0440\u0443\u0433\u043b\u044b\u043c \u044d\u043a\u0440\u0430\u043d\u043e\u043c http://t.co/bOlOYxk17a http://t.co/x1MHKT7qew
p5
aV#Apple \u043f\u0435\u0440\u0435\u043d\u0435\u0441\u043b\u0430 \u043d\u0430\u0447\u0430\u043b\u043e \u043f\u0440\u043e\u0434\u0430\u0436 #AppleWatch  \u043d\u0430 \u0438\u044e\u043d\u044c \u0438\u0437-\u0437\u0430 \u0430\u0436\u0438\u043e\u0442\u0430\u0436\u043d\u043e\u0433\u043e \u0441\u043f\u0440\u043e\u0441\u0430 http://t.co/6kaYcNAwVi http://t.co/mK7jAZHt8X
p6
aV\u041f\u0440\u0435\u0434\u0437\u0430\u043a\u0430\u0437 \u043d\u0430 #AppleWatch \u043e\u0444\u043e\u0440\u043c\u0438\u043b\u0438 \u0431\u043e\u043b\u0435\u0435 2,3 \u043c\u043b\u043d \u0447\u0435\u043b\u043e\u0432\u0435\u043a, \u0441\u0430\u043c\u0430\u044f \u043f\u043e\u043f\u0443\u043b\u044f\u0440\u043d\u0430\u044f \u043c\u043e\u0434\u0435\u043b\u044c #Sport http://t.co/A8zi8B09CS http://t.co/ZfFFBgmtSc
p7
aVRT @ReillyTwit: \u041f\u0440\u0435\u0434\u0437\u0430\u043a\u0430\u0437 \u043d\u0430 #AppleWatch \u043e\u0444\u043e\u0440\u043c\u0438\u043b\u0438 \u0431\u043e\u043b\u0435\u0435 2,3 \u043c\u043b\u043d \u0447\u0435\u043b\u043e\u0432\u0435\u043a, \u0441\u0430\u043c\u0430\u044f \u043f\u043e\u043f\u0443\u043b\u044f\u0440\u043d\u0430\u044f \u043c\u043e\u0434\u0435\u043b\u044c #Sport http://t.co/A8zi8B09CS http://t.co/\u2026
p8
aV\u041a\u0430\u043a \u0440\u0430\u0431\u043e\u0442\u0430\u0435\u0442 \u0438\u043d\u0442\u0435\u0440\u0444\u0435\u0439\u0441 Apple Watch\u000a#Apple #AppleWatch #news\u000a\u000a\u0421\u0430\u043c\u043e\u0435 \u043f\u0435\u0440\u0441\u043e\u043d\u0430\u043b\u044c\u043d\u043e\u0435 \u0443\u0441\u0442\u0440\u043e\u0439\u0441\u0442\u0432\u043e... https://t.co/pV2ziXQCzh http://t.co/z0hHFBTJ9Y
p9
aVApple Watch \u0438\u0437 \u0437\u043e\u043b\u043e\u0442\u0430 \u0438 \u0430\u043b\u043c\u0430\u0437\u043e\u0432. \u0426\u0435\u043d\u0430 9 \u043c\u0438\u043b\u043b\u0438\u043e\u043d \u0440\u0443\u0431\u043b\u0435\u0439 #Apple #AppleWatch #Gold $ http://t.co/8ytfv6OsU8
p10
aV\u041e\u0431\u0449\u0435\u0435 \u043a\u043e\u043b\u0438\u0447\u0435\u0441\u0442\u0432\u043e \u043f\u0440\u0435\u0434\u0437\u0430\u043a\u0430\u0437\u043e\u0432 \u043d\u0430 #AppleWatch \u043f\u0440\u0435\u0432\u044b\u0441\u0438\u0442 2,3 \u043c\u043b\u043d #apple http://t.co/pwbvcIAAgx http://t.co/tmThF7xQdc
p11
aV#AppleWatch \u0410\u043d\u0430\u043b\u0438\u0442\u0438\u043a\u0438 \u043f\u044b\u0442\u0430\u044e\u0442\u0441\u044f \u043f\u0440\u0435\u0434\u0443\u0433\u0430\u0434\u0430\u0442\u044c \u0441\u043f\u0440\u043e\u0441 \u043d\u0430 \u043d\u043e\u0432\u044b\u0435 \u0447\u0430\u0441\u044b Apple, \u0438\u0437\u0443\u0447\u0430\u044f \u043c\u043d\u0435\u043d\u0438\u0435 \u043b\u044e\u0434\u0435\u0439, \u043f\u0440\u0438\u043d\u0430\u0434\u043b\u0435\u0436\u0430\u0449\u0438\u0445 \u043a \u0440\u0430\u0437\u043d\u044b\u043c \u0432\u043e\u0437\u0440\u0430\u0441\u0442\u043d\u044b\u043c\u2026 #apple
p12
aV#AppleWatch \u0427\u0442\u043e \u0434\u0443\u043c\u0430\u044e\u0442 \u043f\u0440\u0435\u0434\u0441\u0442\u0430\u0432\u0438\u0442\u0435\u043b\u0438 \u0440\u043e\u0441\u0441\u0438\u0439\u0441\u043a\u043e\u0439 IT-\u0438\u043d\u0434\u0443\u0441\u0442\u0440\u0438\u0438 \u043e\u0431 Apple Watch #Apple
p13
aV#AppleWatch \u041f\u043e\u0434\u0440\u043e\u0441\u0442\u043a\u0438 \u043d\u0435 \u0437\u0430\u0438\u043d\u0442\u0435\u0440\u0435\u0441\u043e\u0432\u0430\u043d\u044b \u0432 \u043f\u043e\u043a\u0443\u043f\u043a\u0435 Apple Watch #Apple
p14
a.