(lp0
V[ \u062e\u0628\u0631 \U0001f4f0 ]\u000a\u000a\u0623\u0639\u0644\u0646\u062a \u0634\u0631\u0643\u0629 @Yahoo \u0627\u0644\u064a\u0648\u0645 \u0639\u0646 \u0623\u0633\u062a\u0639\u062f\u0627\u062f\u0647\u0627 \u0644\u062a\u0648\u0641\u064a\u0631 \u0664 \u0645\u0646 \u062a\u0637\u0628\u064a\u0642\u0627\u062a\u0647\u0627 \u0644\u062a\u0639\u0645\u0644 \u0639\u0644\u0649 \u0633\u0627\u0639\u0629 #AppleWatch.\u000a\u000a- https://t.co/3OtKumTUtc\u000a\u000a#iA7MD88Tech
p1
aV\u0643\u0627\u0631\u064a\u0643\u0627\u062a\u064a\u0631 | \u0633\u0648\u0631\u064a\u0627 \u0648\u0627\u0644\u0645\u062c\u062a\u0645\u0639 \u0627\u0644\u062f\u0648\u0644\u064a \u000ahttp://t.co/9qfsUPJ72B http://t.co/iDrr80CLaU"\u000a#AppleWatch \u000a#\u0627\u0646\u0642\u0637\u0627\u0639_stc \u000a#Apple
p2
aVRT @i_Cydia: \u062e\u0628\u0631 \U0001f4f0 :\u000a\u000a\u062a\u0642\u0627\u0631\u064a\u0631 \u062c\u062f\u064a\u062f\u0647 \u062a\u0634\u064a\u0631 \u0627\u0644\u0649 \u0627\u0646 \u0627\u0644\u0637\u0644\u0628 \u0627\u0644\u0645\u0633\u0628\u0642 \u0639\u0644\u0649 \u0633\u0627\u0639\u0629 \u0627\u0628\u0644 \u0633\u064a\u0635\u0644 \u0627\u0644\u0649 2.3 \u0645\u0644\u064a\u0648\u0646 \u0633\u0627\u0639\u0629\u000a\u000a#AppleWatch\u000a- http://t.co/JYOc8IHuEy
p3
aV\u0633\u0627\u0639\u0629 \u0623\u0628\u0644 \u0645\u0646\u062a\u062c \u062c\u062f\u064a\u062f \u0644\u0646\u0627 \u0643\u0627\u0646 \u0647\u0646\u0627\u0643 \u0637\u0644\u0628 \u0636\u062e\u0645 \u064a\u0641\u0648\u0642 \u0627\u0644\u0643\u0645\u064a\u0627\u062a \u0627\u0644\u0623\u0648\u0644\u0648\u064a\u0629 \u0627\u0644\u0645\u0648\u0631\u062f\u0629 \u0627\u0644\u0633\u0627\u0639\u0629 \u0644\u0646 \u062a\u062a\u0648\u0641\u0631 \u0644\u0644\u0634\u0631\u0627\u0621 \u0641\u064a 24 \u0623\u0628\u0631\u064a\u0644 \u0623\u0648 \u062d\u062a\u0649 \u062e\u0644\u0627\u0644 \u0645\u0627\u064a\u0648 #AppleWatch #Apple
p4
aV#\u062a\u0648\u064a\u062a\u0633\u0648_\u062e\u0628\u0631 | \u0627\u0644\u0637\u0644\u0628 \u0627\u0644\u0645\u0633\u0628\u0642 \u0644\u0633\u0627\u0639\u0629 #AppleWatch \u062a\u062e\u0637\u0649 \u062d\u0627\u062c\u0632 2.3 \u0645\u0644\u064a\u0648\u0646 \u0637\u0644\u0628 \u060c\u0648\u0641\u0642\u064b\u0627 \u0644\u062a\u0642\u062f\u064a\u0631\u0627\u062a \u0627\u0644\u0645\u062d\u0644\u0644 Ming-Chi Kuo .\u000a\u000a29 http://t.co/iTPfFT5Saw
p5
aV#\u0633\u0627\u0639\u0629 #\u0627\u0628\u0644 \u062a\u0647\u0631\u0628\u0643 \u0645\u0646 \u0631\u0627\u062f\u0627\u0631 #\u0627\u0644\u0645\u062e\u0627\u0644\u0641\u0627\u062a \u0623\u062b\u0646\u0627\u0621 #\u0627\u0644\u0642\u064a\u0627\u062f\u0629 !\u000a#AppleWatch\u000a\u000ahttp://t.co/qEClsEF05c
p6
aV\u062e\u0628\u0631 | \u0634\u0631\u0643\u0629 IFTTT \u062a\u0637\u0644\u0642 \u062a\u062d\u062f\u064a\u062b \u0644\u062a\u0637\u0628\u064a\u0642 Do Button \u0648 Do Note \u0644\u062f\u0639\u0645 \u0633\u0627\u0639\u0629 #AppleWatch \u000a\u000a#\u062a\u0642\u0646\u064a\u0629 #Apple_ar http://t.co/q3eLshCwna
p7
aV@AppleGreener1 \u062a\u062d\u062f\u064a\u062f \u0645\u0648\u0642\u0639 \u0633\u064a\u0627\u0631\u062a\u0643 \u0628\u0648\u0627\u0633\u0637\u0629 \u0633\u0627\u0639\u0629 \u0627\u0628\u0644 \u0648\u062a\u062d\u062f\u064a\u062f \u0645\u062f\u0629 \u0627\u0644\u0648\u0635\u0648\u0644 \u0627\u0644\u064a\u0647\u0627\u000a#\u0645\u0624\u062a\u0645\u0631_\u0627\u0628\u0644 \u000a#\u0627\u0628\u0644 #\u0645\u0632\u0627\u062c\u0643_\u0627\u0644\u062d\u064a\u0646_\u0648\u0627\u0646\u062a_\u062a\u063a\u0631\u062f\u000a#\u062c\u0631\u064a\u0646\u0631 \u000a#AppleWatch
p8
aV@AppleGreener1 \u062a\u062d\u062f\u064a\u062f \u0645\u0648\u0642\u0639 \u0633\u064a\u0627\u0631\u062a\u0643 \u0628\u0648\u0627\u0633\u0637\u0629 \u0633\u0627\u0639\u0629 \u0627\u0628\u0644 \u0648\u062a\u062d\u062f\u064a\u062f \u0645\u062f\u0629 \u0627\u0644\u0648\u0635\u0648\u0644 \u0627\u0644\u064a\u0647\u0627\u000a#\u0645\u0624\u062a\u0645\u0631_\u0627\u0628\u0644 \u000a#\u0627\u0628\u0644 #\u0645\u0627\u0630\u0627_\u0633\u064a\u0643\u062a\u0628_\u0639\u0646\u0627_\u0627\u0644\u062a\u0627\u0631\u064a\u062e\u000a#\u062c\u0631\u064a\u0646\u0631 \u000a#AppleWatch
p9
aV@AppleGreener1 \u062a\u062d\u062f\u064a\u062f \u0645\u0648\u0642\u0639 \u0633\u064a\u0627\u0631\u062a\u0643 \u0628\u0648\u0627\u0633\u0637\u0629 \u0633\u0627\u0639\u0629 \u0627\u0628\u0644 \u0648\u062a\u062d\u062f\u064a\u062f \u0645\u062f\u0629 \u0627\u0644\u0648\u0635\u0648\u0644 \u0627\u0644\u064a\u0647\u0627\u000a#\u0645\u0624\u062a\u0645\u0631_\u0627\u0628\u0644 \u000a#\u0627\u0628\u0644 #\u0634\u0631\u064a\u0641\u0647_\u062a\u062d\u0627\u0631\u0628_\u0627\u0644\u0633\u0631\u0637\u0627\u0646\u000a#\u062c\u0631\u064a\u0646\u0631 \u000a#AppleWatch
p10
aV@AppleGreener1 \u062a\u062d\u062f\u064a\u062f \u0645\u0648\u0642\u0639 \u0633\u064a\u0627\u0631\u062a\u0643 \u0628\u0648\u0627\u0633\u0637\u0629 \u0633\u0627\u0639\u0629 \u0627\u0628\u0644 \u0648\u062a\u062d\u062f\u064a\u062f \u0645\u062f\u0629 \u0627\u0644\u0648\u0635\u0648\u0644 \u0627\u0644\u064a\u0647\u0627\u000a#\u0645\u0624\u062a\u0645\u0631_\u0627\u0628\u0644 \u000a#\u0627\u0628\u0644 #\u0647\u0644_\u062a\u0633\u062a\u0637\u064a\u0639_\u0627\u0644\u062a\u062e\u0644\u064a_\u0639\u0646_\u062a\u0648\u064a\u062a\u0631\u000a#\u062c\u0631\u064a\u0646\u0631 \u000a#AppleWatch
p11
aV@AppleGreener1 \u000a\u0635\u0648\u0631\u0629 \u0644\u0627\u0633\u062a\u062e\u062f\u0627\u0645 \u0627\u0644\u0627\u0646\u0633\u062a\u0642\u0631\u0627\u0645 \u0639\u0644\u0649 \u0627\u0644\u0633\u0627\u0639\u0629 http://t.co/xVre94ynED\u000a#\u0627\u0628\u0644 #\u0645\u0632\u0627\u062c\u0643_\u0627\u0644\u062d\u064a\u0646_\u0648\u0627\u0646\u062a_\u062a\u063a\u0631\u062f\u000a#AppleWatch \u000a#\u062c\u0631\u064a\u0646\u0631
p12
aV@AppleGreener1 \u000a\u0635\u0648\u0631\u0629 \u0644\u0627\u0633\u062a\u062e\u062f\u0627\u0645 \u0627\u0644\u0627\u0646\u0633\u062a\u0642\u0631\u0627\u0645 \u0639\u0644\u0649 \u0627\u0644\u0633\u0627\u0639\u0629 http://t.co/xVre94ynED\u000a#\u0627\u0628\u0644 #\u0634\u0631\u064a\u0641\u0647_\u062a\u062d\u0627\u0631\u0628_\u0627\u0644\u0633\u0631\u0637\u0627\u0646\u000a#AppleWatch \u000a#\u062c\u0631\u064a\u0646\u0631
p13
aV@AppleGreener1 \u000a\u0635\u0648\u0631\u0629 \u0644\u0627\u0633\u062a\u062e\u062f\u0627\u0645 \u0627\u0644\u0627\u0646\u0633\u062a\u0642\u0631\u0627\u0645 \u0639\u0644\u0649 \u0627\u0644\u0633\u0627\u0639\u0629 http://t.co/xVre94ynED\u000a#\u0627\u0628\u0644 #\u0645\u0627\u0630\u0627_\u0633\u064a\u0643\u062a\u0628_\u0639\u0646\u0627_\u0627\u0644\u062a\u0627\u0631\u064a\u062e\u000a#AppleWatch \u000a#\u062c\u0631\u064a\u0646\u0631
p14
aV@AppleGreener1 \u000a\u0635\u0648\u0631\u0629 \u0644\u0627\u0633\u062a\u062e\u062f\u0627\u0645 \u0627\u0644\u0627\u0646\u0633\u062a\u0642\u0631\u0627\u0645 \u0639\u0644\u0649 \u0627\u0644\u0633\u0627\u0639\u0629 http://t.co/xVre94ynED\u000a#\u0627\u0628\u0644 #\u0647\u0644_\u062a\u0633\u062a\u0637\u064a\u0639_\u0627\u0644\u062a\u062e\u0644\u064a_\u0639\u0646_\u062a\u0648\u064a\u062a\u0631\u000a#AppleWatch \u000a#\u062c\u0631\u064a\u0646\u0631
p15
aVRT @i_Cydia: \u062e\u0628\u0631 \U0001f4f0 :\u000a\u000a\u062a\u0642\u0627\u0631\u064a\u0631 \u062c\u062f\u064a\u062f\u0647 \u062a\u0634\u064a\u0631 \u0627\u0644\u0649 \u0627\u0646 \u0627\u0644\u0637\u0644\u0628 \u0627\u0644\u0645\u0633\u0628\u0642 \u0639\u0644\u0649 \u0633\u0627\u0639\u0629 \u0627\u0628\u0644 \u0633\u064a\u0635\u0644 \u0627\u0644\u0649 2.3 \u0645\u0644\u064a\u0648\u0646 \u0633\u0627\u0639\u0629\u000a\u000a#AppleWatch\u000a- http://t.co/JYOc8IHuEy
p16
aV@AppleGreener1 \u000a\u0635\u0648\u0631\u0629 \u0644\u0627\u0633\u062a\u062e\u062f\u0627\u0645 \u0627\u0644\u0627\u0646\u0633\u062a\u0642\u0631\u0627\u0645 \u0639\u0644\u0649 \u0627\u0644\u0633\u0627\u0639\u0629 http://t.co/xVre94ynED\u000a#\u0627\u0628\u0644 #\u0634\u0631\u064a\u0641\u0647_\u062a\u062d\u0627\u0631\u0628_\u0627\u0644\u0633\u0631\u0637\u0627\u0646\u000a#AppleWatch \u000a#\u062c\u0631\u064a\u0646\u0631
p17
aV@AppleGreener1 \u000a\u0635\u0648\u0631\u0629 \u0644\u0627\u0633\u062a\u062e\u062f\u0627\u0645 \u0627\u0644\u0627\u0646\u0633\u062a\u0642\u0631\u0627\u0645 \u0639\u0644\u0649 \u0627\u0644\u0633\u0627\u0639\u0629 http://t.co/xVre94ynED\u000a#\u0627\u0628\u0644 #\u0647\u0644_\u062a\u0633\u062a\u0637\u064a\u0639_\u0627\u0644\u062a\u062e\u0644\u064a_\u0639\u0646_\u062a\u0648\u064a\u062a\u0631\u000a#AppleWatch \u000a#\u062c\u0631\u064a\u0646\u0631
p18
aV@AppleGreener1 \u000a\u0635\u0648\u0631\u0629 \u0644\u0627\u0633\u062a\u062e\u062f\u0627\u0645 \u0627\u0644\u0627\u0646\u0633\u062a\u0642\u0631\u0627\u0645 \u0639\u0644\u0649 \u0627\u0644\u0633\u0627\u0639\u0629 http://t.co/xVre94ynED\u000a#\u0627\u0628\u0644 #\u0645\u0627\u0630\u0627_\u0633\u064a\u0643\u062a\u0628_\u0639\u0646\u0627_\u0627\u0644\u062a\u0627\u0631\u064a\u062e\u000a#AppleWatch \u000a#\u062c\u0631\u064a\u0646\u0631
p19
aV@AppleGreener1 \u000a\u0635\u0648\u0631\u0629 \u0644\u0627\u0633\u062a\u062e\u062f\u0627\u0645 \u0627\u0644\u0627\u0646\u0633\u062a\u0642\u0631\u0627\u0645 \u0639\u0644\u0649 \u0627\u0644\u0633\u0627\u0639\u0629 http://t.co/xVre94ynED\u000a#\u0627\u0628\u0644 #\u0645\u0632\u0627\u062c\u0643_\u0627\u0644\u062d\u064a\u0646_\u0648\u0627\u0646\u062a_\u062a\u063a\u0631\u062f\u000a#AppleWatch \u000a#\u062c\u0631\u064a\u0646\u0631
p20
aVRT @AhmedAlBiyaibi: \u062a\u0647\u0627\u0641\u062a \u0639\u0644\u0649 #AppleWatch \u0642\u0628\u0644 \u0645\u0648\u0639\u062f \u0627\u0646\u0637\u0644\u0627\u0642\u0647\u0627.\u000a\u000a#\u0627\u0646\u0641\u0648\u062c\u0631\u0627\u0641\u064a\u0643 \u000a#\u062a\u0642\u0646\u064a\u0647 \u000a#infographic http://t.co/M7RByNeT77
p21
aV@AppleGreener1 \u062a\u062d\u062f\u064a\u062f \u0645\u0648\u0642\u0639 \u0633\u064a\u0627\u0631\u062a\u0643 \u0628\u0648\u0627\u0633\u0637\u0629 \u0633\u0627\u0639\u0629 \u0627\u0628\u0644 \u0648\u062a\u062d\u062f\u064a\u062f \u0645\u062f\u0629 \u0627\u0644\u0648\u0635\u0648\u0644 \u0627\u0644\u064a\u0647\u0627\u000a#\u0645\u0624\u062a\u0645\u0631_\u0627\u0628\u0644 \u000a#\u0627\u0628\u0644 #\u062f\u0639\u0648\u0647_\u0646\u0641\u0633\u0643_\u062a\u062a\u062d\u0642\u0642\u000a#\u062c\u0631\u064a\u0646\u0631 \u000a#AppleWatch
p22
aV@AppleGreener1 \u062a\u062d\u062f\u064a\u062f \u0645\u0648\u0642\u0639 \u0633\u064a\u0627\u0631\u062a\u0643 \u0628\u0648\u0627\u0633\u0637\u0629 \u0633\u0627\u0639\u0629 \u0627\u0628\u0644 \u0648\u062a\u062d\u062f\u064a\u062f \u0645\u062f\u0629 \u0627\u0644\u0648\u0635\u0648\u0644 \u0627\u0644\u064a\u0647\u0627\u000a#\u0645\u0624\u062a\u0645\u0631_\u0627\u0628\u0644 \u000a#\u0627\u0628\u0644 #\u0627\u0648\u0644_\u062c\u0648\u0627\u0644_\u0645\u0644\u0643\u062a\u0647\u000a#\u062c\u0631\u064a\u0646\u0631 \u000a#AppleWatch
p23
aV@AppleGreener1 \u000a\u0635\u0648\u0631\u0629 \u0644\u0627\u0633\u062a\u062e\u062f\u0627\u0645 \u0627\u0644\u0627\u0646\u0633\u062a\u0642\u0631\u0627\u0645 \u0639\u0644\u0649 \u0627\u0644\u0633\u0627\u0639\u0629 http://t.co/xVre94ynED\u000a#\u0627\u0628\u0644\u000a#AppleWatch \u000a#\u062c\u0631\u064a\u0646\u0631 #\u062f\u0639\u0648\u0647_\u0646\u0641\u0633\u0643_\u062a\u062a\u062d\u0642\u0642
p24
aV@AppleGreener1 \u000a\u0635\u0648\u0631\u0629 \u0644\u0627\u0633\u062a\u062e\u062f\u0627\u0645 \u0627\u0644\u0627\u0646\u0633\u062a\u0642\u0631\u0627\u0645 \u0639\u0644\u0649 \u0627\u0644\u0633\u0627\u0639\u0629 http://t.co/xVre94ynED\u000a#\u0627\u0628\u0644\u000a#AppleWatch \u000a#\u062c\u0631\u064a\u0646\u0631 #\u0627\u0648\u0644_\u062c\u0648\u0627\u0644_\u0645\u0644\u0643\u062a\u0647
p25
aV\u062e\u0628\u0631 \U0001f4f0 :\u000a\u000a\u062a\u0642\u0627\u0631\u064a\u0631 \u062c\u062f\u064a\u062f\u0647 \u062a\u0634\u064a\u0631 \u0627\u0644\u0649 \u0627\u0646 \u0627\u0644\u0637\u0644\u0628 \u0627\u0644\u0645\u0633\u0628\u0642 \u0639\u0644\u0649 \u0633\u0627\u0639\u0629 \u0627\u0628\u0644 \u0633\u064a\u0635\u0644 \u0627\u0644\u0649 2.3 \u0645\u0644\u064a\u0648\u0646 \u0633\u0627\u0639\u0629\u000a\u000a#AppleWatch\u000a- http://t.co/DRYYWTlUy2
p26
a.