(lp0
V#\u0622\u0628\u0644 \u0644\u0646 \u062a\u062e\u0644\u0641 \u0628\u0648\u0639\u062f\u0647\u0627 \u0648\u0633\u0627\u0639\u0629 "\u0627\u0628\u0644 \u0648\u0648\u062a\u0634" \u0633\u062a\u0635\u0644 \u0645\u0628\u0643\u0631\u0627!\u000a#AppleWatch\u000a\u000ahttp://t.co/mayxyOAan1
p1
aV\u062a\u0642\u0631\u064a\u0631 : \u062d\u0648\u0644 \u0632\u064a\u0627\u0631\u062a\u0646\u0627 \u0644\u0627\u0641\u062a\u062a\u0627\u062d \u0645\u062a\u062c\u0631 \u0633\u0627\u0639\u0629 \u0623\u0628\u0644 \u0628\u0645\u062f\u064a\u0646\u0629 \u0644\u0646\u062f\u0646\u000a\u000ahttp://t.co/oGGs7LKtPL\u000a\u000a#\u062a\u0642\u0646\u064a\u0629_\u0623\u0628\u0644 #\u0633\u0627\u0639\u0629_\u0623\u0628\u0644 #\u0623\u0628\u0644 #\u062a\u0642\u0646\u064a\u0629 ##AppleWatch
p2
aVRT @alkhaldi01: \u062a\u0642\u0631\u064a\u0631 : \u062d\u0648\u0644 \u0632\u064a\u0627\u0631\u062a\u0646\u0627 \u0644\u0627\u0641\u062a\u062a\u0627\u062d \u0645\u062a\u062c\u0631 \u0633\u0627\u0639\u0629 \u0623\u0628\u0644 \u0628\u0645\u062f\u064a\u0646\u0629 \u0644\u0646\u062f\u0646\u000a\u000ahttp://t.co/oGGs7LKtPL\u000a\u000a#\u062a\u0642\u0646\u064a\u0629_\u0623\u0628\u0644 #\u0633\u0627\u0639\u0629_\u0623\u0628\u0644 #\u0623\u0628\u0644 #\u062a\u0642\u0646\u064a\u0629 ##AppleWatch
p3
aV\u062a\u0642\u0631\u064a\u0631 : \u062d\u0648\u0644 \u0632\u064a\u0627\u0631\u062a\u0646\u0627 \u0644\u0627\u0641\u062a\u062a\u0627\u062d \u0645\u062a\u062c\u0631 \u0633\u0627\u0639\u0629 \u0623\u0628\u0644 \u0628\u0645\u062f\u064a\u0646\u0629 \u0644\u0646\u062f\u0646\u000a\u000ahttp://t.co/zBBDtJSMwm\u000a\u000a#\u062a\u0642\u0646\u064a\u0629_\u0623\u0628\u0644 #\u0633\u0627\u0639\u0629_\u0623\u0628\u0644 #\u0623\u0628\u0644 #\u062a\u0642\u0646\u064a\u0629 #AppleWatch
p4
aVRT @saud264: \u0645\u0646 \u0646\u0627\u0648\u064a \u064a\u0634\u062a\u0631\u064a \u0633\u0627\u0639\u0647 \u0622\u0628\u0644\u061f\u000a#AppleWatch http://t.co/MzPJK6q5JM
p5
aV\u0644\u064a\u0647 \u062c\u0627\u0631\u064a\u062f \u0644\u064a\u062a\u0648 \u064a\u0627\u062e\u0630 \u062f\u0648\u0631 \u0627\u0644\u062c\u0648\u0643\u0631 \u0648\u0647\u064a \u0645\u0648\u062c\u0648\u062f\u0629\u061f  https://t.co/PCaMH18nIg
p6
aV\u0633\u0627\u0639\u0629 "AppleWatch" \u0644\u0646 \u062a\u062a\u0648\u0641\u0631 \u0641\u064a \u0645\u062a\u0627\u062c\u0631 \u0622\u0628\u0644 \u0642\u0628\u0644 \u064a\u0648\u0646\u064a\u0648 http://t.co/6ylfZDaJyC
p7
aV@AppleGreener1 \u062a\u062d\u062f\u064a\u062f \u0645\u0648\u0642\u0639 \u0633\u064a\u0627\u0631\u062a\u0643 \u0628\u0648\u0627\u0633\u0637\u0629 \u0633\u0627\u0639\u0629 \u0627\u0628\u0644 \u0648\u062a\u062d\u062f\u064a\u062f \u0645\u062f\u0629 \u0627\u0644\u0648\u0635\u0648\u0644 \u0627\u0644\u064a\u0647\u0627\u000a#\u0645\u0624\u062a\u0645\u0631_\u0627\u0628\u0644 \u000a#\u0627\u0628\u0644\u000a#\u062c\u0631\u064a\u0646\u0631 #\u0627\u0644\u062c\u0648\u0632\u0627\u062a_\u062a\u0634\u0647\u0631_\u0628\u0627\u0644\u0645\u062e\u0627\u0644\u0641\u064a\u0646\u000a#AppleWatch
p8
aV@AppleGreener1 \u062a\u062d\u062f\u064a\u062f \u0645\u0648\u0642\u0639 \u0633\u064a\u0627\u0631\u062a\u0643 \u0628\u0648\u0627\u0633\u0637\u0629 \u0633\u0627\u0639\u0629 \u0627\u0628\u0644 \u0648\u062a\u062d\u062f\u064a\u062f \u0645\u062f\u0629 \u0627\u0644\u0648\u0635\u0648\u0644 \u0627\u0644\u064a\u0647\u0627\u000a#\u0645\u0624\u062a\u0645\u0631_\u0627\u0628\u0644 \u000a#\u0627\u0628\u0644\u000a#\u062c\u0631\u064a\u0646\u0631 #\u0633\u062a\u0648\u0631\u064a_\u0627\u0644\u0631\u064a\u0627\u0636\u000a#AppleWatch
p9
aV@AppleGreener1 \u062a\u062d\u062f\u064a\u062f \u0645\u0648\u0642\u0639 \u0633\u064a\u0627\u0631\u062a\u0643 \u0628\u0648\u0627\u0633\u0637\u0629 \u0633\u0627\u0639\u0629 \u0627\u0628\u0644 \u0648\u062a\u062d\u062f\u064a\u062f \u0645\u062f\u0629 \u0627\u0644\u0648\u0635\u0648\u0644 \u0627\u0644\u064a\u0647\u0627\u000a#\u0645\u0624\u062a\u0645\u0631_\u0627\u0628\u0644 \u000a#\u0627\u0628\u0644\u000a#\u062c\u0631\u064a\u0646\u0631 #\u0627\u0644\u0647\u0644\u0627\u0644_\u0627\u0644\u0627\u062a\u062d\u0627\u062f\u000a#AppleWatch
p10
aV@AppleGreener1 \u062a\u062d\u062f\u064a\u062f \u0645\u0648\u0642\u0639 \u0633\u064a\u0627\u0631\u062a\u0643 \u0628\u0648\u0627\u0633\u0637\u0629 \u0633\u0627\u0639\u0629 \u0627\u0628\u0644 \u0648\u062a\u062d\u062f\u064a\u062f \u0645\u062f\u0629 \u0627\u0644\u0648\u0635\u0648\u0644 \u0627\u0644\u064a\u0647\u0627\u000a#\u0645\u0624\u062a\u0645\u0631_\u0627\u0628\u0644 \u000a#\u0627\u0628\u0644\u000a#\u062c\u0631\u064a\u0646\u0631 #\u0627\u0644\u0643\u0641\u064a\u0641_\u064a\u062d\u062a\u0627\u062c\u000a#AppleWatch
p11
aV@AppleGreener1 \u062a\u062d\u062f\u064a\u062f \u0645\u0648\u0642\u0639 \u0633\u064a\u0627\u0631\u062a\u0643 \u0628\u0648\u0627\u0633\u0637\u0629 \u0633\u0627\u0639\u0629 \u0627\u0628\u0644 \u0648\u062a\u062d\u062f\u064a\u062f \u0645\u062f\u0629 \u0627\u0644\u0648\u0635\u0648\u0644 \u0627\u0644\u064a\u0647\u0627\u000a#\u0645\u0624\u062a\u0645\u0631_\u0627\u0628\u0644 \u000a#\u0627\u0628\u0644\u000a#\u062c\u0631\u064a\u0646\u0631 #\u0628\u0639\u0636_\u0627\u0644\u0628\u0634\u0631_\u064a\u062d\u062a\u0627\u062c\u000a#AppleWatch
p12
aV@AppleGreener1 \u000a\u0635\u0648\u0631\u0629 \u0644\u0627\u0633\u062a\u062e\u062f\u0627\u0645 \u0627\u0644\u0627\u0646\u0633\u062a\u0642\u0631\u0627\u0645 \u0639\u0644\u0649 \u0627\u0644\u0633\u0627\u0639\u0629 http://t.co/xVre94ynED\u000a#\u0627\u0628\u0644 #\u0633\u062a\u0648\u0631\u064a_\u0627\u0644\u0631\u064a\u0627\u0636\u000a#AppleWatch \u000a#\u062c\u0631\u064a\u0646\u0631
p13
aV@AppleGreener1 \u000a\u0635\u0648\u0631\u0629 \u0644\u0627\u0633\u062a\u062e\u062f\u0627\u0645 \u0627\u0644\u0627\u0646\u0633\u062a\u0642\u0631\u0627\u0645 \u0639\u0644\u0649 \u0627\u0644\u0633\u0627\u0639\u0629 http://t.co/xVre94ynED\u000a#\u0627\u0628\u0644 #\u0627\u0644\u0647\u0644\u0627\u0644_\u0627\u0644\u0627\u062a\u062d\u0627\u062f\u000a#AppleWatch \u000a#\u062c\u0631\u064a\u0646\u0631
p14
aV@AppleGreener1 \u000a\u0635\u0648\u0631\u0629 \u0644\u0627\u0633\u062a\u062e\u062f\u0627\u0645 \u0627\u0644\u0627\u0646\u0633\u062a\u0642\u0631\u0627\u0645 \u0639\u0644\u0649 \u0627\u0644\u0633\u0627\u0639\u0629 http://t.co/xVre94ynED\u000a#\u0627\u0628\u0644 #\u0627\u0644\u062c\u0648\u0632\u0627\u062a_\u062a\u0634\u0647\u0631_\u0628\u0627\u0644\u0645\u062e\u0627\u0644\u0641\u064a\u0646\u000a#AppleWatch \u000a#\u062c\u0631\u064a\u0646\u0631
p15
aV@AppleGreener1 \u000a\u0635\u0648\u0631\u0629 \u0644\u0627\u0633\u062a\u062e\u062f\u0627\u0645 \u0627\u0644\u0627\u0646\u0633\u062a\u0642\u0631\u0627\u0645 \u0639\u0644\u0649 \u0627\u0644\u0633\u0627\u0639\u0629 http://t.co/xVre94ynED\u000a#\u0627\u0628\u0644 #\u0627\u0644\u0643\u0641\u064a\u0641_\u064a\u062d\u062a\u0627\u062c\u000a#AppleWatch \u000a#\u062c\u0631\u064a\u0646\u0631
p16
aV@AppleGreener1 \u000a\u0635\u0648\u0631\u0629 \u0644\u0627\u0633\u062a\u062e\u062f\u0627\u0645 \u0627\u0644\u0627\u0646\u0633\u062a\u0642\u0631\u0627\u0645 \u0639\u0644\u0649 \u0627\u0644\u0633\u0627\u0639\u0629 http://t.co/xVre94ynED\u000a#\u0627\u0628\u0644 #\u0628\u0639\u0636_\u0627\u0644\u0628\u0634\u0631_\u064a\u062d\u062a\u0627\u062c\u000a#AppleWatch \u000a#\u062c\u0631\u064a\u0646\u0631
p17
a.