(lp0
VRT @dw_russian: "\u0423\u043c\u043d\u044b\u0435 \u0447\u0430\u0441\u044b" #AppleWatch \u043f\u043e\u0437\u0432\u043e\u043b\u044f\u0442 \u0440\u0430\u0437\u0433\u043e\u0432\u0430\u0440\u0438\u0432\u0430\u0442\u044c \u043f\u043e \u0442\u0435\u043b\u0435\u0444\u043e\u043d\u0443, \u0447\u0438\u0442\u0430\u0442\u044c \u043d\u043e\u0432\u043e\u0441\u0442\u0438, \u0441\u043b\u0443\u0448\u0430\u0442\u044c \u043c\u0443\u0437\u044b\u043a\u0443 http://t.co/uLqcl7n80Q
p1
aV\u041a\u0432\u0430\u0440\u0446\u0435\u0432\u044b\u0435 \u0447\u0430\u0441\u044b #Apple \u0438\u0437 90-\u0445 \u043f\u0440\u043e\u0434\u0430\u044e\u0442 \u043d\u0430 #eBay \u0434\u043e\u0440\u043e\u0436\u0435 #AppleWatch http://t.co/BQK5X3YOkb http://t.co/OvclGHBZPk
p2
aV#Apple \u043e\u043f\u0443\u0431\u043b\u0438\u043a\u043e\u0432\u0430\u043b\u0430 \u043d\u043e\u0432\u044b\u0435 \u0432\u0438\u0434\u0435\u043e\u0438\u043d\u0441\u0442\u0440\u0443\u043a\u0446\u0438\u0438 \u043f\u043e \u0438\u0441\u043f\u043e\u043b\u044c\u0437\u043e\u0432\u0430\u043d\u0438\u044e \u043e\u0441\u043d\u043e\u0432\u043d\u044b\u0445 \u0444\u0443\u043d\u043a\u0446\u0438\u0439 #AppleWatch http://t.co/acw5ojc2OZ http://t.co/to625sVYlM
p3
aV\u041b\u0435\u0433\u0435\u043d\u0434\u0430\u0440\u043d\u044b\u0439 \u0434\u0438\u0437\u0430\u0439\u043d\u0435\u0440 \u043f\u043e\u043b\u0443\u0447\u0438\u043b \u043e\u0442 #Apple \u044d\u043a\u0441\u043a\u043b\u044e\u0437\u0438\u0432\u043d\u044b\u0435 #AppleWatch \u0441 \u0437\u043e\u043b\u043e\u0442\u044b\u043c \u0431\u043b\u043e\u0447\u043d\u044b\u043c \u0431\u0440\u0430\u0441\u043b\u0435\u0442\u043e\u043c http://t.co/oicyyS9Spd http://t.co/nEc3XclQ1V
p4
aVApple \u0440\u0430\u0441\u0441\u043a\u0430\u0437\u0430\u043b\u0430 \u043e \u0444\u0443\u043d\u043a\u0446\u0438\u044f\u0445 Apple Watch \u0434\u043b\u044f \u043b\u044e\u0434\u0435\u0439 \u0441 \u043e\u0433\u0440\u0430\u043d\u0438\u0447\u0435\u043d\u043d\u044b\u043c\u0438 \u0432\u043e\u0437\u043c\u043e\u0436\u043d\u043e\u0441\u0442\u044f\u043c\u0438 - http://t.co/Q26FSssOLR #AppleWatch http://t.co/ApkAeIwFJt
p5
aV\u041d\u0430 \u0444\u043e\u0442\u043e \u0437\u0430\u0441\u0432\u0435\u0442\u0438\u043b\u0430\u0441\u044c \u043a\u0430\u0441\u0442\u043e\u043c\u043d\u0430\u044f \u0432\u0435\u0440\u0441\u0438\u044f Apple Watch Sport \u0441 \u043a\u0440\u0430\u0441\u043d\u044b\u043c \u0440\u0435\u043c\u0435\u0448\u043a\u043e\u043c http://t.co/hZEITHLCji\u000a#apple #watch #applewatch
p6
aV#AppleWatch Apple \u043e\u043f\u0443\u0431\u043b\u0438\u043a\u043e\u0432\u0430\u043b\u0430 \u043d\u043e\u0432\u044b\u0435 \u0432\u0438\u0434\u0435\u043e, \u043f\u043e\u0441\u0432\u044f\u0449\u0435\u043d\u043d\u044b\u0435 Apple Watch #Apple
p7
a.