(lp0
V\u0627\u0633\u0639\u0627\u0631 \u0633\u0627\u0639\u0629 \u0627\u0628\u0644 \u0627\u0644\u0630\u0647\u0628\u064a\u0629 \u0645\u0627\u0628\u064a\u0646 \u0663\u0668 \u0627\u0644\u0641 \u0631\u064a\u0627\u0644 \u0627\u0644\u0649 \u0666\u0663 \u0627\u0644\u0641 \u0631\u064a\u0627\u0644. \u0633\u0644\u0627\u0645\u0627\u062a \u061f \u000a#applewatch\u000a - Bubble Trouble \u2014 https://t.co/9jpf9zPQxv
p1
aV#Apple #apple_ar #AppleWatch #\u0627\u0628\u0644_\u0648\u0627\u0644\u062c\u064a\u0644\u0628\u0631\u064a\u0643 #\u0627\u0628\u0644 #\u0633\u0627\u0639\u0629_\u0627\u0628\u0644 #\u0627\u0649_\u0648\u0648\u062a\u0634  #\u0627\u064a\u0641\u0648\u0646 http://t.co/oaLX4LxJB2
p2
aVRT @ss519071: #Apple #apple_ar #AppleWatch #\u0627\u0628\u0644_\u0648\u0627\u0644\u062c\u064a\u0644\u0628\u0631\u064a\u0643 #\u0627\u0628\u0644 #\u0633\u0627\u0639\u0629_\u0627\u0628\u0644 #\u0627\u0649_\u0648\u0648\u062a\u0634  #\u0627\u064a\u0641\u0648\u0646 http://t.co/oaLX4LxJB2
p3
a.