(lp0
V\u4eca\u65e5\u3082AppleStore\u306b\u6765\u5e97w\u000a\u4eca\u65e5\u306f\u4e00\u4eba\u3067\u3058\u3083\u306a\u304f\u3066\u30ea\u30a2\u53cb\u3068\u306e\u6765\u5e97w\u000a\u30ea\u30a2\u53cb\u306fAppleWatch\u306b\u5922\u4e2dw\u000a\u307e\u3041\u3001AppleStore\u306f\u697d\u3057\u3044\u304b\u3089\u306dw\u000a\u3044\u3064\u3067\u3082\u4f55\u6642\u307e\u3067\u3082\u3044\u308c\u308b\u308fw
p1
aVApplewatch\u898b\u3066\u304d\u305f\u3002\u8a66\u7740\u3082\u3057\u3066\u307f\u305f\u3002\u3044\u3061\u3070\u3093\u5b89\u3044\u306e\u3067\u7a0e\u8fbc52000\u5186\u304f\u3089\u3044\u304b\u3002\u3046\u30fc\u3093(\uff70 \uff70;)\u3001\u307e\u3060\u304b\u306a\u3042\u3002
p2
aVApple Watch\u306e\u30b9\u30dd\u30fc\u30c4\u30d0\u30f3\u30c9\u306b\u65b0\u8272\u304c\u767b\u5834\uff1f\u7d50\u69cb\u826f\u3044\u8272\u3070\u304b\u308a\uff01 http://t.co/DYuXP9CoN6 #AppleWatch
p3
aV\u4eca\u65e5\u306e iOS \u30a2\u30d7\u30ea\u3001Apple Watch \u5bfe\u5fdc\u30a2\u30c3\u30d7\u30c7\u30fc\u30c8 http://t.co/oXknVnkGMH #AppleWatch
p4
aV#\u30b9\u30de\u30db \u306e#\u30b1\u30fc\u30b9\u3044\u308d\u3044\u308d\u3042\u308a\u307e\u3059\u3002 \u300e\u30b9\u30de\u30db\u30b1\u30fc\u30b9\u300f\u3092\u898b\u308b [\u697d\u5929] http://t.co/xDviUdCyBV #applewatch from instagram http://t.co/7sSJqzr8FP http://t.co/4PSk4Mfe0q
p5
aV#\u30b9\u30de\u30db \u306e#\u30b1\u30fc\u30b9\u3044\u308d\u3044\u308d\u3042\u308a\u307e\u3059\u3002 \u300e\u30b9\u30de\u30db\u30b1\u30fc\u30b9\u300f\u3092\u898b\u308b [\u697d\u5929] http://t.co/xDviUdCyBV #applewatch from instagram http://t.co/Pl9IAkE1Yq http://t.co/2SOy7ZSd7p
p6
aV#\u30b9\u30de\u30db \u306e#\u30b1\u30fc\u30b9\u3044\u308d\u3044\u308d\u3042\u308a\u307e\u3059\u3002 \u300e\u30b9\u30de\u30db\u30b1\u30fc\u30b9\u300f\u3092\u898b\u308b [\u697d\u5929] http://t.co/xDviUdCyBV #applewatch from instagram http://t.co/4LF2yxGTsj http://t.co/wnla83L53V
p7
aV#\u30b9\u30de\u30db \u306e#\u30b1\u30fc\u30b9\u3044\u308d\u3044\u308d\u3042\u308a\u307e\u3059\u3002 \u300e\u30b9\u30de\u30db\u30b1\u30fc\u30b9\u300f\u3092\u898b\u308b [\u697d\u5929] http://t.co/xDviUdCyBV #applewatch from instagram http://t.co/DdvMVMfOVN http://t.co/2vXW96gegQ
p8
aV#\u30b9\u30de\u30db \u306e#\u30b1\u30fc\u30b9\u3044\u308d\u3044\u308d\u3042\u308a\u307e\u3059\u3002 \u300e\u30b9\u30de\u30db\u30b1\u30fc\u30b9\u300f\u3092\u898b\u308b [\u697d\u5929] http://t.co/xDviUdCyBV #applewatch from instagram http://t.co/eAZah9N5NI http://t.co/QNKXMRkbpI
p9
aV#\u30b9\u30de\u30db \u306e#\u30b1\u30fc\u30b9\u3044\u308d\u3044\u308d\u3042\u308a\u307e\u3059\u3002 \u300e\u30b9\u30de\u30db\u30b1\u30fc\u30b9\u300f\u3092\u898b\u308b [\u697d\u5929] http://t.co/xDviUdCyBV #applewatch from instagram http://t.co/LNeA4dcly1 http://t.co/5TbqSf39hD
p10
aVRT @iphonevevo: #\u30b9\u30de\u30db \u306e#\u30b1\u30fc\u30b9\u3044\u308d\u3044\u308d\u3042\u308a\u307e\u3059\u3002 \u300e\u30b9\u30de\u30db\u30b1\u30fc\u30b9\u300f\u3092\u898b\u308b [\u697d\u5929] http://t.co/xDviUdCyBV #applewatch from instagram http://t.co/LNeA4dcly1 http://t.co/5\u2026
p11
aV#\u30b9\u30de\u30db \u306e#\u30b1\u30fc\u30b9\u3044\u308d\u3044\u308d\u3042\u308a\u307e\u3059\u3002 \u300e\u30b9\u30de\u30db\u30b1\u30fc\u30b9\u300f\u3092\u898b\u308b [\u697d\u5929] http://t.co/xDviUdCyBV #applewatch from instagram http://t.co/6OWpUaAORR http://t.co/4prUDlTF4s
p12
aV#\u30b9\u30de\u30db \u306e#\u30b1\u30fc\u30b9\u3044\u308d\u3044\u308d\u3042\u308a\u307e\u3059\u3002 \u300e\u30b9\u30de\u30db\u30b1\u30fc\u30b9\u300f\u3092\u898b\u308b [\u697d\u5929] http://t.co/xDviUdCyBV #applewatch from instagram http://t.co/7LOVVYj9t8 http://t.co/0MbeLPFqU1
p13
aV#\u30b9\u30de\u30db \u306e#\u30b1\u30fc\u30b9\u3044\u308d\u3044\u308d\u3042\u308a\u307e\u3059\u3002 \u300e\u30b9\u30de\u30db\u30b1\u30fc\u30b9\u300f\u3092\u898b\u308b [\u697d\u5929] http://t.co/xDviUdCyBV #applewatch from instagram http://t.co/wFxaj6zKvT http://t.co/MewG81CEqR
p14
aV#\u30b9\u30de\u30db \u306e#\u30b1\u30fc\u30b9\u3044\u308d\u3044\u308d\u3042\u308a\u307e\u3059\u3002 \u300e\u30b9\u30de\u30db\u30b1\u30fc\u30b9\u300f\u3092\u898b\u308b [\u697d\u5929] http://t.co/xDviUdCyBV #applewatch from instagram http://t.co/2mIHDt4g4m http://t.co/qz6MXIcjqv
p15
aV#\u30b9\u30de\u30db \u306e#\u30b1\u30fc\u30b9\u3044\u308d\u3044\u308d\u3042\u308a\u307e\u3059\u3002 \u300e\u30b9\u30de\u30db\u30b1\u30fc\u30b9\u300f\u3092\u898b\u308b [\u697d\u5929] http://t.co/xDviUdCyBV #applewatch from instagram http://t.co/H8EqvZrGrv http://t.co/3BCRJ5UV39
p16
aV@kamonohashi_pry \u30a2\u30af\u30bb\u30b5\u30ea\u30fc\u958b\u767a\u306e\u305f\u3081\u3001\u4e8b\u524d\u306bAppleWatch\u306e\u30b9\u30da\u30c3\u30af\u304c\u4f01\u696d\u306b\u63d0\u4f9b\u3055\u308c\u308b\u3093\u3067\u3059\u3002
p17
aVTOEIC\u3068\u304b\u306e\u8155\u6642\u8a08\u3068\u304b\u306fAppleWATCH\u4e0d\u53ef\u3068\u304b\u306e\u8868\u8a18\u304c\u5897\u3048\u305f\u308a\u3059\u308b\u3093\u3060\u308d\u3046\u304b\u3002\u3002\u3002\uff1f
p18
aV\u306a\u3093\u3084\u304b\u3093\u3084\u8a00\u3063\u3066\u3001AppleWatch\u306f\u304b\u306a\u308a\u6b32\u3057\u304b\u3063\u305f\u308a\u3059\u308b
p19
aVAppleWatch\u3067\u904a\u3073\u305f\u3044
p20
aV\u767a\u58f2\u9593\u8fd1\u306e Apple Watch \u306b\u5bfe\u5fdc\u3057\u305f\u96fb\u5353\u30a2\u30d7\u30ea\u3092\u30ea\u30ea\u30fc\u30b9\u3057\u307e\u3057\u305f\u306e\u3067\u3001\u3088\u304b\u3063\u305f\u3089\u4f7f\u3063\u3066\u3084\u3063\u3066\u304f\u3060\u3055\u3044\u307e\u305b\u3002Watch \u767a\u58f2\u76f4\u524d\u306b\u3064\u304d\u3001\u9650\u5b9a\u7684\u306a\u5e83\u544a\u975e\u8868\u793a\u7248\u3067\u914d\u4fe1\u4e2d\u3067\u3059\u3002 http://t.co/8kUpNVEWzD #applewatch
p21
aVAppleWatch\u6b32\u3057\u3044\u4eba\u751f
p22
aVapplewatch\u3063\u3066\u304bandroidwear\u3082\u306a\u3093\u3060\u3051\u3069\u3069\u3046\u306a\u3093\u3067\u3059\u304b\u306d\u3042\u306e\u624b\u306e\u3084\u3064\u3063\u3066
p23
aV\u9591\u8a71\u4f11\u984c\u3002\u6885\u7530\u30e8\u30c9\u30d0\u30b7\u306b\u3066\u3001Applewatch\u898b\u3066\u304d\u307e\u3057\u305f\u3002\u30b9\u30c6\u30f3\u30ec\u30b9\u30b9\u30c1\u30fc\u30eb\u30b1\u30fc\u30b9\u3068\u30ea\u30f3\u30af\u30d6\u30ec\u30b9\u30ec\u30c3\u30c8\u3092\u4e88\u7d04\u3057\u305f\u50d5\u306f\u6848\u5916\u3001\u51b4\u3048\u3066\u3044\u305f\u3068\u601d\u3046\u3002\u5f37\u3044\u3066\u8a00\u3048\u3070\u3001\u30df\u30e9\u30cd\u30fc\u30bc\u30eb\u30fc\u30d7\u3067\u3082\u826f\u304b\u3063\u305f\u304b\u306a\uff1f\u3068\u601d\u3046\u4f4d\u3002
p24
aV@yumesakilover \uff8c\uff91(( \u02d8\u03c9 \u02d8 *))\uff8c\uff91\u000a\u000aApplewatch\u8cb7\u304a\u3046\u304b\u3068\u306f\u601d\u3063\u3066\u307e\u3059\u3051\u3069\u306d
p25
aV\u65c5\u884c\u306bAppleWatch\u3042\u308b\u3068\u4fbf\u5229\u304b\u306a\uff1f\u305d\u3093\u306a\u3053\u3068\u306a\u3044\u306a\u3002
p26
aVAppleWatch\u306eCM\u89b3\u308b\u3068\u30ef\u30af\u30ef\u30af\u3059\u308b\u308f\u30fc\u3002
p27
aVApplewatch\u2026\u000a\u000a\u6c17\u306b\u306a\u308b(=\uff9f\u03c9\uff9f)\uff89 http://t.co/ljzRdNoDVD
p28
aVAppleWatch\u8cb7\u3044\u305d\u3046\u306a\u53cb\u4eba\u306f\u5168\u54e1\u91ce\u90ce\u306a\u306e\u3067\u30cf\u30fc\u30c8\u30d3\u30fc\u30c8\u8a66\u3057\u305f\u304f\u306a\u3044w
p29
aV\u7279\u306b\u6b32\u3057\u3044\u3068\u306f\u601d\u308f\u306a\u304b\u3063\u305f\u306a\u30fc #AppleWatch # applestore #Ginza https://t.co/3f3a6oYqGG
p30
aVPhoto: \u7279\u306b\u6b32\u3057\u3044\u3068\u306f\u601d\u308f\u306a\u304b\u3063\u305f\u306a\u30fc #AppleWatch # applestore #Ginza http://t.co/iZhQFSn722
p31
aV\u304d\u3063\u3068\u3059\u3050\u306b\u98fd\u304d\u308b\u306f\u305a\u3002\u3002\u000a\u3057\u304b\u3082\u307e\u3042\u307e\u3042\u9ad8\u4fa1\u3002\u3002\u000a\u3060\u3051\u3069\u3084\u3063\u3071\u308a\u6b32\u3057\u3044\u3002\u3002\u000a\u8a66\u7740\u3057\u3061\u3083\u3046\u3068\u30c0\u30e1\u3067\u3059\u306d\u3002\u000a#applewatch
p32
aVapplewatch\u5fc3\u658e\u6a4b\u3067\u898b\u3066\u304d\u305f\u3002\u81ea\u8ee2\u8eca\u7528\u3068\u4ed5\u4e8b\u7528\u306b\uff12\u3064\u307b\u3057\u3044\u3068\u3053\u308d\u3067\u3059\u306a\u3002\u3042\u3063\u3001PCX\u65b0\u8eca\u3067\u8cb7\u3063\u305f\u304b\u3089\u4e00\u672c\u3082\u8cb7\u308f\u306a\u3044\u3051\u3069\u306d\u3002
p33
aVAppleWatch\u60a9\u3080\u306a\u30fc
p34
aVAppleWatch\u3063\u3066\u3069\u30fc\u306a\u3093\u3059\u304b\u306d\u3002\u97f3\u697d\u3068\u304b\u306f\u2026\u3093\u3093\u3093\u78ba\u304b\u306b\u30e9\u30f3\u30cb\u30f3\u30b0\u3068\u304b\u3057\u3066\u305f\u3089\u3044\u3044\u306e\u304b\u3082\u3060\u3051\u3069\u3001\u308f\u3056\u308f\u3056Bluetooth\u306e\u30d8\u30c3\u30c9\u30db\u30f3\u7528\u610f\u3059\u308b\u306a\u3089shuffle\u304bnano\u3067\u30a4\u30e4\u30db\u30f3\u30b3\u30fc\u30c9\u51fa\u3057\u3066\u805e\u3044\u305f\u3089\u3044\u3044\u3058\u3083\u3093\uff1f\u3068\u304b\u2026\u3002\u30ea\u30f3\u30b4\u4fe1\u8005\u3068\u3057\u3066\u306f\u624b\u3092\u51fa\u3059\u3079\u304d\u306a\u306e\uff1f\uff1f\u2190
p35
aV\u3063\u3066\u304b\u4e0d\u610f\u306b\u6c17\u306b\u306a\u3063\u3066AppleWatch\u3092\u8abf\u3079\u3066\u305f\u30fb\u30fb\u30fb\u000a\u3053\u308c\u306f\u8cb7\u3044\u306a\u306e\u304b\u30fb\u30fb\u30fb\uff1f\uff1f\uff1f\u8cb7\u3044\u3058\u3083\u306a\u3044\u306e\u304b\uff1f\uff1f\uff1f
p36
aVAppleWatch\u307b\u3057\u3044\u308c\u3059
p37
aVAppleWatch\u3092\u3068\u3063\u3066\u8131\u7344\u3092\u6368\u3066\u308b\u304b\u3001\u3053\u306e\u307e\u307e\u304b\u000a\u96e3\u3057\u3044\u3068\u3053\u308d
p38
aVWWDC \u3067\u3001\u65b0\u3057\u3044 Mac \u767a\u8868\u306f\u3001\u306a\u3044\u304b\u306a\u3042\u3002iOS \u30c7\u30d0\u30a4\u30b9\u306f\u3001\u5f53\u9762\u8cb7\u3046\u3064\u3082\u308a\u304c\u306a\u3044\u3002AppleWatch \u3082\u3001\u5225\u306b\u3044\u3089\u306a\u3044\u3057\u30fc\u3002
p39
aVhttp://t.co/suPeYqgUig AppleWatch\u306f2\u4eba\u306e\u5049\u5927\u306a\u30c7\u30b6\u30a4\u30ca\u30fc\u306b\u3088\u3063\u3066\u4f5c\u3089\u308c\u3066\u3044\u305f
p40
aV@yoshitaka_squas AppleWatch\u30cf\u30c1\u30e3\u30e1\u30c1\u30e3\u306b\u9ad8\u304f\u306a\u3044\uff1f\u305d\u3093\u306a\u306b\u6a5f\u80fd\u30e2\u30ea\u30e2\u30ea\u3060\u3063\u3051\uff1f
p41
aV@fumizozo iPhone\u3068\u306e\u9023\u643a\u3059\u3054\u3044\u3042\u308b\u304b\u3089\u3001\u3044\u3061\u3044\u3061iPhone\u78ba\u8a8d\u305b\u305a\u306bAppleWatch\u3067\u901a\u77e5\u3068\u304b\u78ba\u8a8d\u3067\u304d\u308b\u3068\u3053\u308d\u304c\u3059\u3054\u3044\u3044\u3044\u306a\u3063\u3066\u3002Siri\u3064\u3044\u3066\u308b\u304b\u3089\u558b\u3063\u3066\u3067\u3082\u8fd4\u4fe1\u3082\u3067\u304d\u308b\u3057\u3001iPhone\u306e\u30b7\u30e3\u30c3\u30bf\u30fc\u5207\u308c\u305f\u308a\u3068\u304b\u306a\u3093\u3060\u304b\u3093\u3060\u8272\u3005\u3067\u304d\u305d\u3046
p42
aVRT @utdesign: \u4eca\u9803\u6c17\u4ed8\u3044\u305f\u3001#AppleWatch \u304b\u3089\u767a\u8868\u5f8c\u306b\u524a\u9664\u3055\u308c\u3066\u3057\u307e\u3063\u305f\uff12\u3064\u306e\u6587\u5b57\u76e4\u30d0\u30ea\u30a8\u30fc\u30b7\u30e7\u30f3\u306b\u3064\u3044\u3066\u30d6\u30ed\u30b0\u30a2\u30c3\u30d7\u3057\u307e\u3057\u305f\u3002 http://t.co/ewzfeaCrmm http://t.co/CKsYluBeHN
p43
aV\u6563\u3005\u3001\u30c7\u30a3\u30b9\u3063\u3066\u304a\u3044\u3066\u306a\u3093\u3060\u304c\u2026\u3001\u6ce8\u6587\u3057\u3061\u3083\u3063\u305f\uff01 #AppleWatch
p44
aV\u305d\u3046\u3044\u3048\u3070\u3001\u307e\u3060\u59bb\u306b\u3082\u8a00\u3063\u3066\u306a\u3044\u3051\u3069AppleWatch\u4e88\u7d04\u3057\u3066\u308b\u3002
p45
aV\u4eba\u751f\u3067\u8155\u6642\u8a08\u3092\u3057\u3066\u308b\u6642\u9593\u304c\u5408\u8a081\u9031\u9593\u306b\u6e80\u305f\u306a\u3044\uff08\u9ad8\u6821\u306e\u6642\u9577\u8ddd\u96e2\u30e9\u30f3\u30ca\u30fc\u3060\u3063\u305f\u304f\u305b\u306b\uff09\u79c1\u306b\u306f\u3001AppleWatch\u306a\u3093\u3066\u9078\u629e\u80a2\u304c\u3042\u308b\u308f\u3051\u306a\u3044\u3002
p46
aVWatch \u307f\u3064(Mitsu)'s Vine, "\u6563\u9aea\u3057\u3066\u304d\u307e\u3057\u305f\u3002\u30d1\u30b8\u30e3\u30de\u3067\u3059\u307f\u307e\u305b\u3093\u3002\u895f\u3082\u66f2\u304c\u3063\u3066\u308b\u3057\u3002Apple Watch\u306f ... http://t.co/oNziGGS986 #AppleWatch
p47
aVApple Watch\u306f\u30a6\u30a7\u30a2\u30e9\u30d6\u30eb\u5e02\u5834\u3092\u300c\u30b4\u30fc\u30f3\u300d\u3068\u62bc\u3057\u4e0a\u3052\u308b\uff01\uff08IDC\u4e88\u6e2c\uff09 http://t.co/2BSx5V9d2S #AppleWatch
p48
aVGW\u306fAppleWatch\u30a2\u30d7\u30ea\u4f5c\u308a\u59cb\u3081\u3088\u3046\u3068\u601d\u3063\u3066\u305f\u306e\u306b\u3001AppleWatch\u306e\u914d\u9001\u65e5\u304c6\u6708\u306b\u306a\u3063\u3066\u305f( )
p49
aVRT @KeigoTakeda: \u3042\u3093\u306a\u30c0\u30b5\u3044\u6642\u8a08\u306f\u3081\u305f\u3089\u624b\u9996\u304c\u8150\u308a\u307e\u3059\u3088\u3002RT @AQUOS_K: \u512a\u8d8a\u611f\u306e\u305f\u3081\u306b\u306fAppleWatch Edition\u3082\u5fc5\u8981\u3067\u3059\u3088\u306d\u3002\u3054\u4e88\u7d04\u304a\u3081\u3067\u3068\u3046\u3054\u3056\u3044\u307e\u3059\u3002\u3044\u3064\u5230\u7740\u4e88\u5b9a\u3067\u3059\uff1f  RT \u30b9\u30bf\u30d0\u3067\u53d6\u308a\u51fa\u3057\u305f\u6642\u306e\u5468\u56f2\u306e\u300c\u304a\u3063\u300d\u3068\u3044\u3046\u8996\u7dda\u304c\u3082\u305f\u2026
p50
aVhttp://t.co/VyD1JcKttr \u6700\u77ed2.5\u6642\u9593\u3057\u304b\u6301\u305f\u306a\u3044\uff1fAppleWatch\u3001\u591a\u69d8\u6a5f\u80fd\u3092\u3069\u3046\u4f7f\u3046\u304b\u304c\u9375
p51
aV\u2606\u30d6\u30ed\u30b0\u66f4\u65b0\uff1aApple Watch\u8a66\u7740\u3057\u3066\u307f\u305f - http://t.co/n6Oq8QYgVn\u000a#applewatch http://t.co/4ky0vOecqs
p52
aVApplewatch\u3068\u3044\u3044\u6700\u8fd1Apple\u306b\u5bfe\u3059\u308b\u5370\u8c61\u304c\u3069\u3093\u3069\u3093\u60aa\u304f\u306a\u3063\u3066\u3044\u304f
p53
aV\u5317\u5ddd\u3055\u3093\u305f\u3061\u3068AppleWatch\u306e\u3053\u3068\u558b\u3063\u3066\u3066\u3001\u3044\u3089\u3093\u3068\u304b\u8a00\u3046\u3066\u305f\u3051\u3069\u3001\u000a\u3061\u3087\u3063\u3068\u7269\u73cd\u3057\u3044\u611f\u3058\u3067\u6b32\u3057\u3044\u304b\u3082\u7b11
p54
aV\u305d\u3044\u3048\u3070Applewatch\u305d\u308d\u305d\u308d\u767a\u58f2\u3060\u306d\u3063\u203c\ufe0e\u3064\u307e\u308a\u8857\u4e2d\u3067\u8155\u6642\u8a08\u8d8a\u3057\u306b\u96fb\u8a71\u3068\u304b\u64cd\u4f5c\u3059\u308b\u5149\u666f\u2192\u5897\u3048\u3066\u304f\u308b\u3093\u3060\u308d\u3046\u306a\u3041\u301c\u203c\ufe0e(^^;;
p55
aVAppleWatch\u306f\u6b32\u3057\u3044\u3051\u3069 \u6b32\u3057\u304f\u306a\u3044\u3063\u3066\u611f\u3058
p56
aVRT @iineApple: \u3010\u307e\u3055\u306b\u9b54\u6cd5\u306e\u30c7\u30d0\u30a4\u30b9\uff01\u3064\u3044\u306bApple Watch\u306e\u767a\u58f2\u65e5\u3084\u4fa1\u683c\u306a\u3069\u306e\u8a73\u7d30\u3084\u6a5f\u80fd\u304c\u660e\u3089\u304b\u306b\u306a\u308a\u307e\u3057\u305f\u3011\u000ahttp://t.co/zinv2gxKMq
p57
aVRT @iineApple: \u30d6\u30ed\u30b0\u3092\u66f4\u65b0\u3057\u307e\u3057\u305f\uff01\u000a\u3010Apple Watch\u306e\u4f7f\u3044\u65b9\u3011\u521d\u671f\u8a2d\u5b9a|iPhone\u3068\u30da\u30a2\u30ea\u30f3\u30b0\u3057\u3066\u958b\u59cb\u3059\u308b\u65b9\u6cd5\u000ahttp://t.co/TOcyYu0sgg http://t.co/Li1bW71PKI
p58
aVRT @iineApple: \u3010Apple Watch\u3092\u8a66\u7740\u3057\u307e\u3057\u305f\uff01\u30df\u30e9\u30cd\u30fc\u30bc\u30eb\u30fc\u30d738mm\u306842mm\u306e\u6bd4\u8f03\u3068\u611f\u60f3\u3011\u000ahttp://t.co/FNiNT9MI1d
p59
aVhttp://t.co/DHoIw08sLI AppleWatch\u304c\u5973\u6027\u306b\u3074\u3063\u305f\u308a\u306a\u30a2\u30a4\u30c6\u30e0\u3067\u3057\u305f?
p60
aVRT @iineApple: \u3010\u307e\u3055\u306b\u9b54\u6cd5\u306e\u30c7\u30d0\u30a4\u30b9\uff01\u3064\u3044\u306bApple Watch\u306e\u767a\u58f2\u65e5\u3084\u4fa1\u683c\u306a\u3069\u306e\u8a73\u7d30\u3084\u6a5f\u80fd\u304c\u660e\u3089\u304b\u306b\u306a\u308a\u307e\u3057\u305f\u3011\u000ahttp://t.co/zinv2gxKMq
p61
aVRT @iineApple: \u30d6\u30ed\u30b0\u3092\u66f4\u65b0\u3057\u307e\u3057\u305f\uff01\u000aApple Watch\u306e\u5b8c\u6210\u5ea6\u306b\u306f\u9a5a\u304d\u307e\u3057\u305f\u3002\u000a\u3010Apple Watch\u3092\u8a66\u7740\u3057\u307e\u3057\u305f\uff01\u30df\u30e9\u30cd\u30fc\u30bc\u30eb\u30fc\u30d738mm\u306842mm\u306e\u6bd4\u8f03\u3068\u611f\u60f3\u3011\u000ahttp://t.co/FNiNT9MI1d http://t.co/soTsVCoC\u2026
p62
aVRT @iineApple: \u3010\u307e\u3055\u306b\u9b54\u6cd5\u306e\u30c7\u30d0\u30a4\u30b9\uff01\u3064\u3044\u306bApple Watch\u306e\u767a\u58f2\u65e5\u3084\u4fa1\u683c\u306a\u3069\u306e\u8a73\u7d30\u3084\u6a5f\u80fd\u304c\u660e\u3089\u304b\u306b\u306a\u308a\u307e\u3057\u305f\u3011\u000ahttp://t.co/zinv2gxKMq
p63
aVRT @iineApple: \u30d6\u30ed\u30b0\u3092\u66f4\u65b0\u3057\u307e\u3057\u305f\u3002\u000a\u3010Apple Watch\u3068Sport\u306e\u4e21\u65b9\u3068\u4e8c\u3064\u306e\u30b5\u30a4\u30ba\u3092\u4e88\u7d04\u3057\u307e\u3057\u305f\uff01\u3011\u000ahttp://t.co/upoTPv8l1p http://t.co/BctjiDfwpS
p64
aVRT @iineApple: \u3010\u7f8e\u3057\u3044Apple Watch\u306e\u30c7\u30b6\u30a4\u30f3\u3068\u30e9\u30a4\u30f3\u30ca\u30c3\u30d7\u3011\u000ahttp://t.co/HaMpGawCFw
p65
aV@fromsekaowa AppleWatch\u306f\u8cb7\u3046\u3093\u3067\u3059\u304b\uff1f
p66
aVAppleWatch\u30822\u5e74\u3054\u3068\u306b\u4e00\u56de\u308a\u305a\u3064\u5927\u304d\u304f\u306a\u308a\u305d\u3046\u306a\u4e88\u611f
p67
aV\u5c0f\u5b66\u751f\u3068\u304b\u3082AppleWatch\u306e\u3088\u3046\u306a\u30c7\u30d0\u30a4\u30b9\u3092\u3064\u3051\u308b\u3088\u3046\u306b\u306a\u308b\u306e\u304b\u306a\u3002\u9632\u72af\u3068\u304b #obt
p68
aVAppleWatch \u3067\u3001\u3061\u3087\u3063\u3068\u3044\u3044\u4e16\u306e\u4e2d\u3092\u3064\u304f\u308b\u30b5\u30fc\u30d3\u30b9 http://t.co/UMymITHvT2 | Next Sphere
p69
aVAppleWatch\u306bSiri\u304c\u7740\u3044\u3066\u308b\u3051\u3069\u3001\u8155\u6642\u8a08\u3092\u53e3\u5143\u306b\u6301\u3063\u3066\u3063\u3066AI\u3068\u8a71\u3059\u306e\u3063\u3066\u3059\u3054\u3044\u672a\u6765\u611f
p70
aV@syobon_AA (\u256d\u261e\u2022\u0301\u235b\u2022\u0300)\u256d\u261e\u305d\u308c\u306a\u3002\u000a\u50d5\u3082AppleWatch\u8cb7\u3063\u3061\u3083\u3044\u305d\u3046\u3067\u3059( \u25dc\u25e1\u25dd )
p71
aViOS8.4\u8131\u7344\u51fa\u305f\u3089AppleWatch\u5373\u8cb7\u3044\u3067\u3059\u308f
p72
aV\u3042 \u306a\u3093\u304b\u6771\u4eac\u307e\u3067\u98db\u3073\u305f\u3044\u3051\u3069\u3069\u3046\u8003\u3048\u3066\u3082\u3082\u3046\u3059\u3050\u767a\u58f2\u3055\u308c\u308bAppleWatch\u8cb7\u3063\u305f\u65b9\u304c\u697d\u3057\u3044\u304b\u3089\u666e\u901a\u306b\u884c\u304b\u306a\u3044\u3002
p73
aV\u300e\u3010 \u901f\u5831 \u3011\u5f85\u671b\u306e\u30b9\u30de\u30fc\u30c8\u30a6\u30a9\u30c3\u30c1\u300cAppleWatch\u300d \u30cb\u30e5\u30fc\u30b9 \u30b5\u30a4\u30c8\u307e\u3068\u3081\u300f http://t.co/DLpXV7hsCC\u000a\u000a-NAVER\u307e\u3068\u3081
p74
aV\u65b0\u30a8\u30f3\u30c8\u30ea\u306a\u3046: AppleWatch \u3067\u3001\u3061\u3087\u3063\u3068\u3044\u3044\u4e16\u306e\u4e2d\u3092\u3064\u304f\u308b\u30b5\u30fc\u30d3\u30b9 http://t.co/HrUsJDaSPK
p75
aV\u3075\u3068\u4f55\u3067AppleWatch\u306b\u3057\u305f\u3093\u3060\u308d\u3046\u3068\u601d\u3063\u305f\u3051\u3069Phone\u3068\u304bPod\u3068\u9055\u3063\u3066Watch\u306f\u52d5\u8a5e\u3067\u3082\u3042\u308b\u304b\u3089iWatch\u306b\u3059\u308b\u3068\u3042\u3063\u3061\u3067\u306f\u3084\u3084\u3053\u3057\u3044\u3093\u3060\u308d\u306a  \u305d\u3093\u306a\u3053\u3068\u3092\u601d\u3044\u306a\u304c\u3089\u98a8\u5442\u3042\u304c\u308a\u306e\u4e00\u676f
p76
aVAppleWatch\u306e\u8a66\u7740\u5bfe\u5fdc\u30b9\u30bf\u30c3\u30d5\u306f\u65e9\u304f\u3082\u6687\u3092\u6301\u3066\u4f59\u3057\u3066\u308b\u6a21\u69d8
p77
aV\u3088\u3046\u3084\u304fios8.3\u306b\u30a2\u30d7\u30c7\u3057\u305f\u3051\u3069\u3081\u3063\u3061\u3083\u6642\u9593\u304b\u304b\u3063\u305f\u5272\u306b\u306fApplewatch\u306e\u30a2\u30d7\u30ea\u304c\u5165\u3063\u305f\u3060\u3051\uff1f\u6d88\u305b\u3078\u3093\u3057\u5bb9\u91cf\u98df\u3046\u3057\uff08\uff09
p78
aVRT @iphonevevo: #\u30b9\u30de\u30db \u306e#\u30b1\u30fc\u30b9\u3044\u308d\u3044\u308d\u3042\u308a\u307e\u3059\u3002 \u300e\u30b9\u30de\u30db\u30b1\u30fc\u30b9\u300f\u3092\u898b\u308b [\u697d\u5929] http://t.co/xDviUdCyBV #applewatch from instagram http://t.co/LNeA4dcly1 http://t.co/5\u2026
p79
aV\u3042\u3001Applewatch\u306eCM\u521d\u3081\u3066\u898b\u305f\u6c17\u304c\u3057\u305f
p80
aVhttp://t.co/7cqxs5W0ia iPhone\u30e6\u30fc\u30b6\u30fc\u5fc5\u898b\u300cApplewatch\u3067\u4f55\u304c\u51fa\u6765\u308b\u306e\uff1f\u300d
p81
aVAppleWatch\u3063\u3066\u3069\u3046\u306b\u3083\u3093\u306b\u3083\u3041\uff1f\u000a\u000aAppleWatch\u306f\u3044\u3064\u3082\u8155\u306b\u306f\u3081\u3089\u308c\u308b\u304b\u3089\u3001\u306a\u304f\u3059\u5fc3\u914d\u304c\u306a\u3055\u305d\u3046\u3067\u3001\u3044\u3044\u306b\u3083\u3041\u3002\u000a\u000aAppleWatch\u3092GET\u3059\u308b\u305f\u3081\u306b\u3082\u3001\u30d0\u30a4\u30c8\u3057\u306a\u3051\u308c\u3070\u306b\u3083\u3042\uff01\u000a\u000a\u21d2http://t.co/pX1AZeM5cF
p82
aVAppleWatch\u306f\u3084\u306f\u308a24\u65e5\u306b\u306f\u5c4a\u304b\u306a\u3044\u306e\u304b\u306a\u3002
p83
aV\u4eca\u9031\u306f\u30a4\u30d9\u30f3\u30c8\u76db\u308a\u3060\u304f\u3055\u3093 Apple Watch,Zenfone2, GALAXYS6\u767a\u58f2 http://t.co/uJinyMO97b #AppleWatch
p84
aV\u305d\u306e\u6642\u304c\u3084\u3063\u3066\u304d\u305f\u3002Pebble \u306b Apple Watch \u98a8\u306e WatchFace \u304c\u767b\u5834\u3057\u305f\u306e\u3067\u6bd4\u3079\u3066\u307f\u305f http://t.co/c6x9Li8zUg #AppleWatch
p85
aVAppleWatch\u306f\u6a5f\u80fd\u306f\u826f\u3044\u3051\u3069\u3001\u304a\u3082\u3061\u3083\u307f\u305f\u3044
p86
aVAppleWatch\u306b\u300c\u9152\u98f2\u307f\u904e\u304e\u3067\u3059\u3088\u300d\u3063\u3066\u8a00\u308f\u308c\u3066\u3001\u3046\u308b\u305b\u3048\u3063\u3066\u53e9\u304d\u5272\u308b\u672a\u6765\u307e\u3067\u60f3\u50cf\u3057\u305f\u3002
p87
aV\u7121\u8b00\u306b\u3082\u6642\u8a08\u306e\u30a2\u30d7\u30ea\u3092AppleWatch\u5bfe\u5fdc\u3067\u7533\u8acb\u3057\u3066\u307f\u305f\u3088 http://t.co/0lUfc4Xx0Y
p88
aVAppleWatch\u304b\u3063\u3066\u305f\u3093\u3060
p89
aV\u98f2\u307f\u4f1a\u306e\u5f8c\u306b\u30e9\u30fc\u30e1\u30f3\u55b0\u304a\u3046\u3068\u3059\u308b\u3068\u8b66\u544a\u3057\u3066\u304f\u308bAppleWatch\u3002
p90
aV\u30a4\u30bf\u30ba\u30e9\u3057\u3088\u3046\u3068\u3059\u308b\u3068\u304a\u7d4c\u3092\u5531\u3048\u3066\u982d\u3092\u7de0\u3081\u4e0a\u3052\u308bAppleWatch\u3002
p91
aV\u5618\u3092\u3064\u304f\u3068\u9f3b\u304c\u4f38\u3073\u308bAppleWatch\u3002
p92
aVRT @m_o_t_c_h: \u7121\u8b00\u306b\u3082\u6642\u8a08\u306e\u30a2\u30d7\u30ea\u3092AppleWatch\u5bfe\u5fdc\u3067\u7533\u8acb\u3057\u3066\u307f\u305f\u3088 http://t.co/0lUfc4Xx0Y
p93
aV#\u30b9\u30de\u30db \u306e#\u30b1\u30fc\u30b9\u3044\u308d\u3044\u308d\u3042\u308a\u307e\u3059\u3002 \u300e\u30b9\u30de\u30db\u30b1\u30fc\u30b9\u300f\u3092\u898b\u308b [\u697d\u5929] http://t.co/xDviUdCyBV #applewatch from instagram http://t.co/X9HkIjsQwQ http://t.co/w01ABst5S2
p94
aV#\u30b9\u30de\u30db \u306e#\u30b1\u30fc\u30b9\u3044\u308d\u3044\u308d\u3042\u308a\u307e\u3059\u3002 \u300e\u30b9\u30de\u30db\u30b1\u30fc\u30b9\u300f\u3092\u898b\u308b [\u697d\u5929] http://t.co/xDviUdCyBV #applewatch from instagram http://t.co/IlLL1JcVFY http://t.co/v2vuJQbJI5
p95
aV#\u30b9\u30de\u30db \u306e#\u30b1\u30fc\u30b9\u3044\u308d\u3044\u308d\u3042\u308a\u307e\u3059\u3002 \u300e\u30b9\u30de\u30db\u30b1\u30fc\u30b9\u300f\u3092\u898b\u308b [\u697d\u5929] http://t.co/xDviUdCyBV #applewatch from instagram http://t.co/LjWjrBKEkE http://t.co/wMjLQ0j8e7
p96
aV#\u30b9\u30de\u30db \u306e#\u30b1\u30fc\u30b9\u3044\u308d\u3044\u308d\u3042\u308a\u307e\u3059\u3002 \u300e\u30b9\u30de\u30db\u30b1\u30fc\u30b9\u300f\u3092\u898b\u308b [\u697d\u5929] http://t.co/xDviUdCyBV #applewatch from instagram http://t.co/jJmwruo9vt http://t.co/fAaM33xmEe
p97
aV#\u30b9\u30de\u30db \u306e#\u30b1\u30fc\u30b9\u3044\u308d\u3044\u308d\u3042\u308a\u307e\u3059\u3002 \u300e\u30b9\u30de\u30db\u30b1\u30fc\u30b9\u300f\u3092\u898b\u308b [\u697d\u5929] http://t.co/xDviUdCyBV #applewatch from instagram http://t.co/w5oFmqufFg http://t.co/m1r5jXiC3l
p98
aV#\u30b9\u30de\u30db \u306e#\u30b1\u30fc\u30b9\u3044\u308d\u3044\u308d\u3042\u308a\u307e\u3059\u3002 \u300e\u30b9\u30de\u30db\u30b1\u30fc\u30b9\u300f\u3092\u898b\u308b [\u697d\u5929] http://t.co/xDviUdCyBV #applewatch from instagram http://t.co/X8xJwnwaTr http://t.co/H5A6U9yM47
p99
aV#\u30b9\u30de\u30db \u306e#\u30b1\u30fc\u30b9\u3044\u308d\u3044\u308d\u3042\u308a\u307e\u3059\u3002 \u300e\u30b9\u30de\u30db\u30b1\u30fc\u30b9\u300f\u3092\u898b\u308b [\u697d\u5929] http://t.co/xDviUdCyBV #applewatch from instagram http://t.co/qaZ9FWnTdM http://t.co/0ZkG0D2DqU
p100
aV#\u30b9\u30de\u30db \u306e#\u30b1\u30fc\u30b9\u3044\u308d\u3044\u308d\u3042\u308a\u307e\u3059\u3002 \u300e\u30b9\u30de\u30db\u30b1\u30fc\u30b9\u300f\u3092\u898b\u308b [\u697d\u5929] http://t.co/xDviUdCyBV #applewatch from instagram http://t.co/Bg403sHdaw http://t.co/pU7NlK0ggz
p101
aV#\u30b9\u30de\u30db \u306e#\u30b1\u30fc\u30b9\u3044\u308d\u3044\u308d\u3042\u308a\u307e\u3059\u3002 \u300e\u30b9\u30de\u30db\u30b1\u30fc\u30b9\u300f\u3092\u898b\u308b [\u697d\u5929] http://t.co/xDviUdCyBV #applewatch from instagram http://t.co/W3xuSHPB9M http://t.co/sSYd4n7fOq
p102
aV#\u30b9\u30de\u30db \u306e#\u30b1\u30fc\u30b9\u3044\u308d\u3044\u308d\u3042\u308a\u307e\u3059\u3002 \u300e\u30b9\u30de\u30db\u30b1\u30fc\u30b9\u300f\u3092\u898b\u308b [\u697d\u5929] http://t.co/xDviUdCyBV #applewatch from instagram http://t.co/CXf6t3GAGD http://t.co/teG51w7jlL
p103
aV#\u30b9\u30de\u30db \u306e#\u30b1\u30fc\u30b9\u3044\u308d\u3044\u308d\u3042\u308a\u307e\u3059\u3002 \u300e\u30b9\u30de\u30db\u30b1\u30fc\u30b9\u300f\u3092\u898b\u308b [\u697d\u5929] http://t.co/xDviUdCyBV #applewatch from instagram http://t.co/Mw5DVa8YVs http://t.co/pBe1ohVBuD
p104
aVAppleWatch\u300cApple\u304c\u898b\u3066\u3044\u308b\u305e\u2026
p105
aVAndroidWear\u306e\u8ca9\u58f2\u53f0\u6570\u306e\u8abf\u67fb\u4f1a\u793e\u3068AppleWatch\u4e88\u7d04\u53f0\u6570\u8abf\u67fb\u4f1a\u793e\u3068\u304c\u5225\u306a\u306e\u3067\u3001\u305d\u306e2\u3064\u3092\u5358\u7d14\u306b\u6bd4\u3079\u3066\u306f\u3044\u3051\u306a\u3044\u3060\u308d\u3046\uff01\u3068\u8a00\u3044\u305f\u3044\u304c\u307b\u307c\u660e\u3089\u304b
p106
aV\u5b9f\u7269\u306f\u898b\u305a\u306bApple Watch Sport 42mm\u3092AppleStore\u3067\u4e88\u7d04\u6ce8\u6587\u3002\u51fa\u8377\u4e88\u5b9a\u304c6\u6708\u3002\u8a66\u3057\u306b\u5b89\u3044\u30b0\u30ec\u30fc\u30c9\u3092\u6ce8\u6587\u3057\u3066\u307f\u305f\u3051\u3069\u624b\u5143\u306b\u6765\u308b\u307e\u3067\u3051\u3063\u3053\u3046\u304b\u304b\u308b\u306a\u3002#AppleWatch\u000ahttp://t.co/GkJT0oaB7m
p107
aVAppleWatch \u3067\u3001\u3061\u3087\u3063\u3068\u3044\u3044\u4e16\u306e\u4e2d\u3092\u3064\u304f\u308b\u30b5\u30fc\u30d3\u30b9: AppleWatch \u306e\u30ea\u30ea\u30fc\u30b9\u307e\u3067\u3042\u30681\u9031\u9593\u3092\u5207\u308a\u307e\u3057\u305f\u3002 \u305d\u3093\u306a\u4e2d\u3001\u7b46\u8005\u306f AppleWatch \u7528\u306e\u65b0\u3057\u3044\u30a2\u30d7\u30ea\u3092\u2026 http://t.co/H48t0iHarq
p108
aVhttp://t.co/OODIMDvtr8 \u6700\u77ed2.5\u6642\u9593\u3057\u304b\u6301\u305f\u306a\u3044\uff1fAppleWatch\u3001\u591a\u69d8\u6a5f\u80fd\u3092\u3069\u3046\u4f7f\u3046\u304b\u304c\u9375
p109
aV\u5168\u4e16\u754c\u306772\u4e07\u306f\u3055\u3059\u304c\u306b\u5c11\u306a\u3059\u304e\u308b\u3060\u308d\u3002\u307e\u3041AppleWatch\u306e\u58f2\u308c\u884c\u304d\u304c\u3059\u3054\u305d\u3046\u306a\u306e\u306f\u308f\u304b\u308b\u3051\u308c\u3069\u3002
p110
aV\u4f55\u6545\u304b\u5145\u96fb\u5668\u3060\u3051\u5148\u306b\u6765\u305f\u3002\u000a#applewatch http://t.co/638kwE0f6e
p111
aV@m7_force \u3042\u308c\u30fc\uff1fAppleWatch\u3068\u304b\u3044\u3063\u3066\u305f\u304b\u3089AppleWatch\u304b\u3068\u304a\u3082\u3063\u3066\u3057\u307e\u3063\u3066\u3044\u305f
p112
aVApplestore\u8868\u53c2\u9053\u3067 AppleWatch\u306e\u8a66\u7740\u3057\u3066\u304d\u305f\u3088\U0001f49b #applestore #applewatch #\u30c1\u30fc\u30e0A \u000acc: https://t.co/Yd3yKZwbRJ http://t.co/Yhvy1Kzn85
p113
aV\u5b9f\u7528\u6027\u304c\u7121\u304f\u3066\u3082\u767a\u58f2\u3057\u305f\u3089\u30aa\u30e2\u30c1\u30e3\u3068\u3057\u3066\u8cb7\u304a\u3046\u3068\u601d\u3063\u3066\u3044\u305fAppleWatch\u304c8\u4e07\u5186\u304f\u3089\u3044\u3057\u3066\u3001\u3055\u3059\u304c\u306b\u8e8a\u8e87\u3057\u3001\u8cb7\u3048\u306a\u304b\u3063\u305f\u3002\u305d\u306e\u6642\u3001\u81ea\u5206\u306e\u8ca7\u56f0\u3092\u611f\u3058\u305f\u3002\u305d\u3053\u304b\u3089\u65b0\u3057\u3044\u81ea\u5206\u304c\u59cb\u307e\u3063\u305f\u3068\u3044\u3046\u6c17\u304c\u3059\u308b\u3002
p114
aVhttp://t.co/qtht7tEITK AppleWatch\u304c\u5973\u6027\u306b\u3074\u3063\u305f\u308a\u306a\u30a2\u30a4\u30c6\u30e0\u3067\u3057\u305f?
p115
aV\u300cApple Watch\u300d\u3068\u300c\u65b0\u3057\u3044MacBook\u300d\u306e\u52e2\u3044\u6b62\u307e\u3089\u305a\uff082015\u5e744\u670813\u65e5\uff5e http://t.co/ee8ajIeoDB #AppleWatch
p116
aVMacBook\u306e\u5c55\u793a\u304c\u9045\u308c\u305f\u30ef\u30b1\u3092\u8003\u3048\u3066\u307f\u308b http://t.co/42DkYMnTk9 #AppleWatch
p117
aVApplewatch\u3042\u308c\u6b32\u3057\u3044\u0669( '\u03c9' )\u0648
p118
aV\u8cb7\u308f\u306a\u3044\u3051\u3069\u898b\u3066\u304d\u305f\u3002\u6642\u9593\u304c\u306a\u304b\u3063\u305f\u306e\u3067\u8a66\u7740\u306f\u7121\u3057\u3002#Apple#applewatch #\u30a2\u30c3\u30d7\u30eb #\u30a2\u30c3\u30d7\u30eb\u30a6\u30a9\u30c3\u30c1\u30a6\u30a9\u30c3\u30c1\u30f3\u30b0 https://t.co/EToouIAYnh
p119
aVhttp://t.co/0NsaYrXDeV AppleWatch\u306f2\u4eba\u306e\u5049\u5927\u306a\u30c7\u30b6\u30a4\u30ca\u30fc\u306b\u3088\u3063\u3066\u4f5c\u3089\u308c\u3066\u3044\u305f
p120
aV\u3053\u308c\u304c\u307b\u307c\u73fe\u5b9f\u306b\u306a\u3063\u305f\u000ahttps://t.co/JXhRNISYnS
p121
aV\u4eca\u6c17\u3065\u3044\u305f\u3051\u3069\u3001AppleWatch\u306e\u30a2\u30d7\u30ea\u52dd\u624b\u306b\u5165\u3063\u3066\u305fww \u3042\u308c\u306f\u679c\u305f\u3057\u3066\u5fc5\u9808\u306b\u306a\u308b\u306e\u304b\u306a\u30fc\u3002
p122
aV@ohana_sama @jda_abc_7 \u82b1\u3055\u3093\u304cAppleWatch\u30cf\u30f3\u30bf\u30fc\u3068\u5316\u3059\u2026\u7b11
p123
aVRT @spigen_jp: \u3010\u57fc\u7389\u521d\u306eAPR\u3011\u000a\u300cC smart \u3089\u3089\u307d\u30fc\u3068\u5bcc\u58eb\u898b\u5e97\u300d\u69d8\u306b\u000a\u304a\u90aa\u9b54\u3057\u3066\u307e\u3059\u3002\u6570\u5c11\u306a\u3044AppleWatch\u306e\u8ca9\u58f2\u5e97\u3067\u3082\u3042\u308a\u307e\u3059\u3002\u304a\u8fd1\u304f\u306e\u65b9\u306f\u662f\u975e\u266a(\u273f\u2579\u25e1\u2579) http://t.co/ni92rztT1K
p124
aV\u3088\u3046\u3084\u304f\u304b\u3041\u3002\u5ef6\u671f\u3057\u3066\u305f\u304b\u3089AppleWatch\u4e88\u7d04\u3057\u3061\u3083\u305f\u3084\u3093\u3002\u000a\u30d5\u30a3\u30c3\u30c8\u30cd\u30b9\u30d0\u30f3\u30c9\u300cJawbone UP3\u300d\u3001\u3088\u3046\u3084\u304f\u767a\u58f2\u306b--\u30e2\u30d0\u30a4\u30eb\u6c7a\u6e08\u5bfe\u5fdc\u300cUP4\u300d\u3082\u4eca\u590f\u767b\u5834\u3078 http://t.co/JhUIKmHFIl @cnet_japan\u3055\u3093\u304b\u3089
p125
aV@801One @jda_abc_7 \u50d5\u306f\u3001AppleWatch\u306e\u6db2\u6676\u3092\u5272\u308b\u3053\u3068\u3092\u5f53\u9762\u306e\u8da3\u5473\u306b\u3059\u308b\u3088\u3002
p126
aVRT @kojiharunyan: Applestore\u8868\u53c2\u9053\u3067AppleWatch\u306e\u8a66\u7740\u3057\u3066\u304d\u305f\u3088\U0001f49b#applestore#applewatch#\u30c1\u30fc\u30e0A https://t.co/gbQPTUzDni
p127
aV@AppleNews001 AppleWatch\u2728\U0001f380\u3068MacBook\u2728\U0001f380\u3069\u3063\u3061\u3082\u6b32\u3057\u30fc\u3044\U0001f496
p128
aVAppleWatch\u8cb7\u3063\u3066\u8a66\u3057\u3066\u58f2\u308b\u306e\u3082\u30a2\u30ea\u3068\u601d\u3063\u305f\u3051\u3069\u305d\u3093\u306a\u6c17\u5b89\u304f\u624b\u306b\u5165\u3089\u306a\u3044
p129
aV#\u30b9\u30de\u30db \u306e#\u30b1\u30fc\u30b9\u3044\u308d\u3044\u308d\u3042\u308a\u307e\u3059\u3002 \u300e\u30b9\u30de\u30db\u30b1\u30fc\u30b9\u300f\u3092\u898b\u308b [\u697d\u5929] http://t.co/xDviUdCyBV #applewatch from instagram http://t.co/eDE7KDx7ur http://t.co/7rzefcvOE0
p130
aV#\u30b9\u30de\u30db \u306e#\u30b1\u30fc\u30b9\u3044\u308d\u3044\u308d\u3042\u308a\u307e\u3059\u3002 \u300e\u30b9\u30de\u30db\u30b1\u30fc\u30b9\u300f\u3092\u898b\u308b [\u697d\u5929] http://t.co/xDviUdCyBV #applewatch from instagram http://t.co/mI5EJRlmoW http://t.co/EMvA3LRLRE
p131
aV#\u30b9\u30de\u30db \u306e#\u30b1\u30fc\u30b9\u3044\u308d\u3044\u308d\u3042\u308a\u307e\u3059\u3002 \u300e\u30b9\u30de\u30db\u30b1\u30fc\u30b9\u300f\u3092\u898b\u308b [\u697d\u5929] http://t.co/xDviUdCyBV #applewatch from instagram http://t.co/7x3Bdqollg http://t.co/avch6mys4j
p132
aV#\u30b9\u30de\u30db \u306e#\u30b1\u30fc\u30b9\u3044\u308d\u3044\u308d\u3042\u308a\u307e\u3059\u3002 \u300e\u30b9\u30de\u30db\u30b1\u30fc\u30b9\u300f\u3092\u898b\u308b [\u697d\u5929] http://t.co/xDviUdCyBV #applewatch from instagram http://t.co/eUJxKt7kcP http://t.co/vIZYjUNJSf
p133
aV#\u30b9\u30de\u30db \u306e#\u30b1\u30fc\u30b9\u3044\u308d\u3044\u308d\u3042\u308a\u307e\u3059\u3002 \u300e\u30b9\u30de\u30db\u30b1\u30fc\u30b9\u300f\u3092\u898b\u308b [\u697d\u5929] http://t.co/xDviUdCyBV #applewatch from instagram http://t.co/i0aQThpbog http://t.co/FxcuTOwavR
p134
aV#\u30b9\u30de\u30db \u306e#\u30b1\u30fc\u30b9\u3044\u308d\u3044\u308d\u3042\u308a\u307e\u3059\u3002 \u300e\u30b9\u30de\u30db\u30b1\u30fc\u30b9\u300f\u3092\u898b\u308b [\u697d\u5929] http://t.co/xDviUdCyBV #applewatch from instagram http://t.co/fRlxtL85K5 http://t.co/OSOjqr6wYe
p135
aV#\u30b9\u30de\u30db \u306e#\u30b1\u30fc\u30b9\u3044\u308d\u3044\u308d\u3042\u308a\u307e\u3059\u3002 \u300e\u30b9\u30de\u30db\u30b1\u30fc\u30b9\u300f\u3092\u898b\u308b [\u697d\u5929] http://t.co/xDviUdCyBV #applewatch from instagram http://t.co/5SAdk0OWzT http://t.co/G9W6flolyc
p136
aV#\u30b9\u30de\u30db \u306e#\u30b1\u30fc\u30b9\u3044\u308d\u3044\u308d\u3042\u308a\u307e\u3059\u3002 \u300e\u30b9\u30de\u30db\u30b1\u30fc\u30b9\u300f\u3092\u898b\u308b [\u697d\u5929] http://t.co/xDviUdCyBV #applewatch from instagram http://t.co/vc69F2vquc http://t.co/2OYv2cxgT1
p137
aV#\u30b9\u30de\u30db \u306e#\u30b1\u30fc\u30b9\u3044\u308d\u3044\u308d\u3042\u308a\u307e\u3059\u3002 \u300e\u30b9\u30de\u30db\u30b1\u30fc\u30b9\u300f\u3092\u898b\u308b [\u697d\u5929] http://t.co/xDviUdCyBV #applewatch from instagram http://t.co/7e5oRZO5AA http://t.co/669gHQcqzM
p138
aV#\u30b9\u30de\u30db \u306e#\u30b1\u30fc\u30b9\u3044\u308d\u3044\u308d\u3042\u308a\u307e\u3059\u3002 \u300e\u30b9\u30de\u30db\u30b1\u30fc\u30b9\u300f\u3092\u898b\u308b [\u697d\u5929] http://t.co/xDviUdCyBV #applewatch from instagram http://t.co/WWOtPd1noz http://t.co/6fQNDvQMML
p139
aV#\u30b9\u30de\u30db \u306e#\u30b1\u30fc\u30b9\u3044\u308d\u3044\u308d\u3042\u308a\u307e\u3059\u3002 \u300e\u30b9\u30de\u30db\u30b1\u30fc\u30b9\u300f\u3092\u898b\u308b [\u697d\u5929] http://t.co/xDviUdCyBV #applewatch from instagram http://t.co/QLxiyX929v http://t.co/78QiUUIga8
p140
aViPhone\u304c\u51fa\u305f\u5f53\u6642\u3001\u5468\u308a\u306b\u306f\u300c\u643a\u5e2f\u96fb\u8a71\u6a5f\u80fd\u3082\u3064\u3044\u305f\u30c7\u30d0\u30a4\u30b9\u300d\u3068\u8aac\u660e\u3057\u3066\u3044\u305f\u304c\u3001\u4eca\u56de\u306f\u300c\u6642\u523b\u8868\u793a\u3082\u898b\u308c\u308b\u30c7\u30d0\u30a4\u30b9\u300d\u3068\u3044\u3046\u30b9\u30bf\u30f3\u30b9\u3067\u3044\u305f\u65b9\u304c\u3044\u3044\u306e\u304b\u3082\u3002\u3069\u3046\u5229\u4fbf\u6027\u3092\u898b\u51fa\u3057\u3066\u3044\u304f\u304b\u306f\u30aa\u30fc\u30ca\u30fc\u6b21\u7b2c #AppleWatch
p141
aV\u30102\u679a\u30d1\u30c3\u30af\u3011\u3010ShineZone\u3011 38mm \u5c02\u7528\u5f37\u5316\u30ac\u30e9\u30b9\u30d5\u30a3\u30eb\u30e0 0.3mm... http://t.co/F6ByRsS9wx #applewatch
p142
aVAppleWatch\u3067\u751f\u6d3b\u306e\u4f55\u304c\u5909\u308f\u308b\u304b\u8003\u3048\u3066\u307f\u305f http://t.co/9sC5z0Giwi
p143
aV#applewatch \u306f\u30c1\u30bf\u30f3\u30e2\u30c7\u30eb\u304c\u51fa\u305f\u3089\u8cb7\u3046\u3002
p144
aVhttp://t.co/W6nrX4DQR5 AppleWatch\u306f2\u4eba\u306e\u5049\u5927\u306a\u30c7\u30b6\u30a4\u30ca\u30fc\u306b\u3088\u3063\u3066\u4f5c\u3089\u308c\u3066\u3044\u305f
p145
aV\u53f6\u59c9\u59b9 \u3082\u30a2\u30c3\u30d7\u30eb\u30a6\u30a9\u30c3\u30c1\u306b\u8208\u5473\u3042\u308a\uff01 http://t.co/ZaVUV8O6jQ #AppleWatch
p146
aVWIRED\u306eAppleWatch\u306e\u8a18\u4e8b\u3001\u8aad\u307f\u5fdc\u3048\u3042\u308b\u3002Apple\u304c\u751f\u307f\u51fa\u3057\u305f\u675f\u7e1b\uff1diPhone\u304b\u3089\u4eba\u3005\u3092\u81ea\u7531\u306b\u3059\u308b\u306e\u306fApple\u3060\u3068 http://t.co/UaZI2h3Kpg
p147
aV#\u30b9\u30de\u30db \u306e#\u30b1\u30fc\u30b9\u3044\u308d\u3044\u308d\u3042\u308a\u307e\u3059\u3002 \u300e\u30b9\u30de\u30db\u30b1\u30fc\u30b9\u300f\u3092\u898b\u308b [\u697d\u5929] http://t.co/xDviUdCyBV #applewatch from instagram http://t.co/2sjB17XxfZ http://t.co/6o2P2t2Dgz
p148
aV#\u30b9\u30de\u30db \u306e#\u30b1\u30fc\u30b9\u3044\u308d\u3044\u308d\u3042\u308a\u307e\u3059\u3002 \u300e\u30b9\u30de\u30db\u30b1\u30fc\u30b9\u300f\u3092\u898b\u308b [\u697d\u5929] http://t.co/xDviUdCyBV #applewatch from instagram http://t.co/SjkEuR8B9m http://t.co/08aLdkeUCp
p149
aV#\u30b9\u30de\u30db \u306e#\u30b1\u30fc\u30b9\u3044\u308d\u3044\u308d\u3042\u308a\u307e\u3059\u3002 \u300e\u30b9\u30de\u30db\u30b1\u30fc\u30b9\u300f\u3092\u898b\u308b [\u697d\u5929] http://t.co/xDviUdCyBV #applewatch from instagram http://t.co/ra7GhWmpee http://t.co/ECCmHNum2P
p150
aV#\u30b9\u30de\u30db \u306e#\u30b1\u30fc\u30b9\u3044\u308d\u3044\u308d\u3042\u308a\u307e\u3059\u3002 \u300e\u30b9\u30de\u30db\u30b1\u30fc\u30b9\u300f\u3092\u898b\u308b [\u697d\u5929] http://t.co/xDviUdCyBV #applewatch from instagram http://t.co/CaqKX1P52y http://t.co/91AOd1Zmh7
p151
aV#\u30b9\u30de\u30db \u306e#\u30b1\u30fc\u30b9\u3044\u308d\u3044\u308d\u3042\u308a\u307e\u3059\u3002 \u300e\u30b9\u30de\u30db\u30b1\u30fc\u30b9\u300f\u3092\u898b\u308b [\u697d\u5929] http://t.co/xDviUdCyBV #applewatch from instagram http://t.co/GdIVww6bEf http://t.co/Z9ImvTkG4S
p152
aV#\u30b9\u30de\u30db \u306e#\u30b1\u30fc\u30b9\u3044\u308d\u3044\u308d\u3042\u308a\u307e\u3059\u3002 \u300e\u30b9\u30de\u30db\u30b1\u30fc\u30b9\u300f\u3092\u898b\u308b [\u697d\u5929] http://t.co/xDviUdCyBV #applewatch from instagram http://t.co/5uG9xKM0kk http://t.co/XpGCGUw4pd
p153
aV#\u30b9\u30de\u30db \u306e#\u30b1\u30fc\u30b9\u3044\u308d\u3044\u308d\u3042\u308a\u307e\u3059\u3002 \u300e\u30b9\u30de\u30db\u30b1\u30fc\u30b9\u300f\u3092\u898b\u308b [\u697d\u5929] http://t.co/xDviUdCyBV #applewatch from instagram http://t.co/8c0emvteYO http://t.co/lgaMqpsYDJ
p154
aV#\u30b9\u30de\u30db \u306e#\u30b1\u30fc\u30b9\u3044\u308d\u3044\u308d\u3042\u308a\u307e\u3059\u3002 \u300e\u30b9\u30de\u30db\u30b1\u30fc\u30b9\u300f\u3092\u898b\u308b [\u697d\u5929] http://t.co/xDviUdCyBV #applewatch from instagram http://t.co/7ysDC3e73W http://t.co/748n57L4FN
p155
aV#\u30b9\u30de\u30db \u306e#\u30b1\u30fc\u30b9\u3044\u308d\u3044\u308d\u3042\u308a\u307e\u3059\u3002 \u300e\u30b9\u30de\u30db\u30b1\u30fc\u30b9\u300f\u3092\u898b\u308b [\u697d\u5929] http://t.co/xDviUdCyBV #applewatch from instagram http://t.co/MG2hgn1XGa http://t.co/ILZ33GygHB
p156
aV#\u30b9\u30de\u30db \u306e#\u30b1\u30fc\u30b9\u3044\u308d\u3044\u308d\u3042\u308a\u307e\u3059\u3002 \u300e\u30b9\u30de\u30db\u30b1\u30fc\u30b9\u300f\u3092\u898b\u308b [\u697d\u5929] http://t.co/xDviUdCyBV #applewatch from instagram http://t.co/BxRIvKmMJg http://t.co/gp20mHJHEJ
p157
aV#\u30b9\u30de\u30db \u306e#\u30b1\u30fc\u30b9\u3044\u308d\u3044\u308d\u3042\u308a\u307e\u3059\u3002 \u300e\u30b9\u30de\u30db\u30b1\u30fc\u30b9\u300f\u3092\u898b\u308b [\u697d\u5929] http://t.co/xDviUdCyBV #applewatch from instagram http://t.co/dRLnGj29gn http://t.co/4dXRogsg5F
p158
aVRT @sentoki: WIRED\u306eAppleWatch\u306e\u8a18\u4e8b\u3001\u8aad\u307f\u5fdc\u3048\u3042\u308b\u3002Apple\u304c\u751f\u307f\u51fa\u3057\u305f\u675f\u7e1b\uff1diPhone\u304b\u3089\u4eba\u3005\u3092\u81ea\u7531\u306b\u3059\u308b\u306e\u306fApple\u3060\u3068 http://t.co/UaZI2h3Kpg
p159
aV\u30a2\u30b9\u30c7\u30c3\u30af\uff1aApple Watch 38mm/42mm\u7528AR\u6db2\u6676\u4fdd\u8b77\u30d5\u30a3\u30eb\u30e0\u300cAR-APW01\u300d/\u300cAR-APW02\u300d 4\u6708\u767a\u58f2\u4e88\u7d04 - \u3044\u3069\u3070\u305f.info http://t.co/WU6fY3J3Gf #asdec #AppleWatch
p160
aVRT @KortaZ_hako: MARZ\u306f\u6700\u9ad8\u3060\u3063\u305f\u307f\u305f\u3044\u3060\u3057\u3001\u30b8\u30e5\u30ea\u30ea\u30b8\u30e5\u30ea\u30e9\u30f3\u672a\u6765\u30b4\u30ed\u30b4\u30ed\u30b3\u30ed\u30cb\u30fc13\u4e16\u3068\u3044\u3046\u53f0\u6e7e\u30a2\u30a4\u30c9\u30eb\u304c\u3081\u3063\u3061\u3083\u6c17\u306b\u306a\u308b\u3057\u3001\u6821\u5ead\u30ab\u30e1\u30e9\u30ac\u30fc\u30eb\u306eCD\u6b32\u3057\u304b\u3063\u305f\u3057\u3001\u300c\u6c34\u66dc\u307e\u3067\u306b100\u30da\u30fc\u30b8\uff01\u300d\u3063\u3066\u8a00\u308f\u308c\u308b\u3057\u3001\u660e\u65e5\u660e\u5f8c\u65e5\u3082\u884c\u3051\u306a\u3044\u3058\u3083\u306a\u3044\u304b\u30fc\uff01\u000a\u3084\u3051\u306b\u306a\u3063\u3066\u2026
p161
aV\u4eca\u65e5\u3055\u3063\u304f\u30fc\u306b\u30d0\u30ca\u30d1\u30b9\u5c4a\u3051\u305f\u3089\u96e8\u3058\u3083\u306a\u3051\u308c\u3070\u79cb\u8449\u884c\u3063\u3066AppleWatch\u898b\u3066\u3053\u3088
p162
aVhttp://t.co/cjRwsAzJ6K AppleWatch\u306f2\u4eba\u306e\u5049\u5927\u306a\u30c7\u30b6\u30a4\u30ca\u30fc\u306b\u3088\u3063\u3066\u4f5c\u3089\u308c\u3066\u3044\u305f
p163
aVhttp://t.co/NNjkYz1haq AppleWatch\u304c\u5973\u6027\u306b\u3074\u3063\u305f\u308a\u306a\u30a2\u30a4\u30c6\u30e0\u3067\u3057\u305f?
p164
aV\u30a2\u30c3\u30d7\u30eb\u30a6\u30a9\u30c3\u30c1\u306e\u30d5\u30a1\u30fc\u30b9\u30c8\u30d3\u30e5\u30fc\u306e\u6620\u50cf\u3002\u000a\u000a\u5b9f\u969b\u306b\u89e6\u3063\u3066\u307f\u305f\u611f\u899a\u306f\u3001\u60f3\u50cf\u4ee5\u4e0a\u306b\u3057\u3063\u304b\u308a\u3057\u305f\u6642\u8a08\u3067\u7f8e\u3057\u3044\u30dc\u30c7\u30a3\u3002\u000a\u000a\u30a2\u30d7\u30ea\u3082\u30b9\u30e0\u30fc\u30b9\u306a\u30a2\u30cb\u30e1\u30fc\u30b7\u30e7\u30f3\u3067\u7d20\u6674\u3089\u3057\u3044\u3002#applewatch\u000a\u000ahttps://t.co/zO7bXOVkvR http://t.co/ywXHUgSMXj
p165
aVhttp://t.co/5C2sKL98g9 AppleWatch\u304c\u5973\u6027\u306b\u3074\u3063\u305f\u308a\u306a\u30a2\u30a4\u30c6\u30e0\u3067\u3057\u305f?
p166
aVRT @es_kumagai: \u767a\u58f2\u9593\u8fd1\u306e Apple Watch \u306b\u5bfe\u5fdc\u3057\u305f\u96fb\u5353\u30a2\u30d7\u30ea\u3092\u30ea\u30ea\u30fc\u30b9\u3057\u307e\u3057\u305f\u306e\u3067\u3001\u3088\u304b\u3063\u305f\u3089\u4f7f\u3063\u3066\u3084\u3063\u3066\u304f\u3060\u3055\u3044\u307e\u305b\u3002Watch \u767a\u58f2\u76f4\u524d\u306b\u3064\u304d\u3001\u9650\u5b9a\u7684\u306a\u5e83\u544a\u975e\u8868\u793a\u7248\u3067\u914d\u4fe1\u4e2d\u3067\u3059\u3002 http://t.co/8kUpNVEWzD #applewatch
p167
aV\u300c#AppleWatch\u300d\u3001\u30b9\u30dd\u30fc\u30c4\u30d0\u30f3\u30c9\u306f\u65b0\u8272\u3092\u7528\u610f\uff1f\u300cMilan Design Week\u300d\u3067\u62ab\u9732\uff01 http://t.co/iJoSlzUHx7
p168
aVRT @youtachannel: \u300c#AppleWatch\u300d\u3001\u30b9\u30dd\u30fc\u30c4\u30d0\u30f3\u30c9\u306f\u65b0\u8272\u3092\u7528\u610f\uff1f\u300cMilan Design Week\u300d\u3067\u62ab\u9732\uff01 http://t.co/iJoSlzUHx7
p169
aV\u300c#AppleWatch\u300d\u3001\u30b9\u30dd\u30fc\u30c4\u30d0\u30f3\u30c9\u306f\u65b0\u8272\u3092\u7528\u610f\uff1f\u300cMilan Design Week\u300d\u3067\u62ab\u9732\uff01 http://t.co/6TKZK6RTnV
p170
aV\u30b9\u30de\u30fc\u30c8\u30a6\u30a9\u30c3\u30c1\u3084AppleWatch\u306e\u767b\u5834\u306b\u3088\u308a\u3001\u753b\u9762\u30b5\u30a4\u30ba\u306f\u5c0f\u3055\u304f\u306a\u308a\u60c5\u5831\u306e\u8868\u793a\u9818\u57df\u304c\u5c0f\u3055\u304f\u306a\u3063\u305f\u3002\u000a\u000a\u3060\u304b\u3089\u3069\u3046\u3059\u308b\uff1f\u000a\u000a\u305d\u306e\u7b54\u3048\u306e\u4e00\u3064\u304c\u300c\u7d75\u6587\u5b57\u300d\u306a\u306e\u304b\u3082\u3057\u308c\u307e\u305b\u3093\u3002\u000a\u000a#\u30de\u30fc\u30b1\u30c6\u30a3\u30f3\u30b0 #\u5e83\u544a\u000a http://t.co/14CiBFLBpH
p171
aVRT @utdesign: \u4eca\u9803\u6c17\u4ed8\u3044\u305f\u3001#AppleWatch \u304b\u3089\u767a\u8868\u5f8c\u306b\u524a\u9664\u3055\u308c\u3066\u3057\u307e\u3063\u305f\uff12\u3064\u306e\u6587\u5b57\u76e4\u30d0\u30ea\u30a8\u30fc\u30b7\u30e7\u30f3\u306b\u3064\u3044\u3066\u30d6\u30ed\u30b0\u30a2\u30c3\u30d7\u3057\u307e\u3057\u305f\u3002 http://t.co/ewzfeaCrmm http://t.co/CKsYluBeHN
p172
aV\u4eca\u903124\u65e5\u767a\u58f2\u306eApple Watch\u3001\u521d\u65e5\u306bApple Store\u306b\u4e26\u3079\u3070\u8cfc\u5165\u51fa\u6765\u308b\u3093\u3060\u308d\u3046\u304b\uff1f\u4e88\u7d04\u8ca9\u58f2\u306e\u307f\uff1f#apple  #AppleWatch
p173
aVRT @sounddesigninc: \u4eca\u903124\u65e5\u767a\u58f2\u306eApple Watch\u3001\u521d\u65e5\u306bApple Store\u306b\u4e26\u3079\u3070\u8cfc\u5165\u51fa\u6765\u308b\u3093\u3060\u308d\u3046\u304b\uff1f\u4e88\u7d04\u8ca9\u58f2\u306e\u307f\uff1f#apple  #AppleWatch
p174
aVhttp://t.co/epNbCBNCgL AppleWatch\u304c\u5973\u6027\u306b\u3074\u3063\u305f\u308a\u306a\u30a2\u30a4\u30c6\u30e0\u3067\u3057\u305f?
p175
aV\u4e8b\u52d9\u6240\u3067\u3053\u3082\u3063\u3066\u4ed5\u4e8b\u3057\u3066\u3044\u308b\u3068\u3001\u300c\u30d4\u30f3\u30dd\u30fc\u30f3\u300d\u3068\u30a4\u30f3\u30bf\u30fc\u30db\u30f3\u304c\u306a\u308a\u300cApple\u304b\u3089\u306e\u8377\u7269\u3067\u3059\u300d\u3068\u306e\u3053\u3068\u3002\u000a\u300c\u3048\uff1f\u3048\uff1f\u3000\u3082\u3057\u3084AppleWatch\uff01\u300d\u3063\u3066\u5927\u559c\u3073\u3067\u8377\u7269\u3092\u53d7\u3051\u53d6\u308a\u306b\u884c\u304d\u307e\u3057\u305f\u3002\u3010\u30d6\u30ed\u30b0\u3011\u300c\u307b\u3069\u306c\u304b\u559c\u3073\u300d\u3082\u30c9\u30f3\u3068\u6765\u3044\u3000http://t.co/jsDjMNAKyN
p176
aVRT @exhige: \u30b9\u30de\u30fc\u30c8\u30a6\u30a9\u30c3\u30c1\u3084AppleWatch\u306e\u767b\u5834\u306b\u3088\u308a\u3001\u753b\u9762\u30b5\u30a4\u30ba\u306f\u5c0f\u3055\u304f\u306a\u308a\u60c5\u5831\u306e\u8868\u793a\u9818\u57df\u304c\u5c0f\u3055\u304f\u306a\u3063\u305f\u3002\u000a\u000a\u3060\u304b\u3089\u3069\u3046\u3059\u308b\uff1f\u000a\u000a\u305d\u306e\u7b54\u3048\u306e\u4e00\u3064\u304c\u300c\u7d75\u6587\u5b57\u300d\u306a\u306e\u304b\u3082\u3057\u308c\u307e\u305b\u3093\u3002\u000a\u000a#\u30de\u30fc\u30b1\u30c6\u30a3\u30f3\u30b0 #\u5e83\u544a\u000a http://t.co/14CiBFLBpH
p177
aVRT @exhige: \u30b9\u30de\u30fc\u30c8\u30a6\u30a9\u30c3\u30c1\u3084AppleWatch\u306e\u767b\u5834\u306b\u3088\u308a\u3001\u753b\u9762\u30b5\u30a4\u30ba\u306f\u5c0f\u3055\u304f\u306a\u308a\u60c5\u5831\u306e\u8868\u793a\u9818\u57df\u304c\u5c0f\u3055\u304f\u306a\u3063\u305f\u3002\u000a\u000a\u3060\u304b\u3089\u3069\u3046\u3059\u308b\uff1f\u000a\u000a\u305d\u306e\u7b54\u3048\u306e\u4e00\u3064\u304c\u300c\u7d75\u6587\u5b57\u300d\u306a\u306e\u304b\u3082\u3057\u308c\u307e\u305b\u3093\u3002\u000a\u000a#\u30de\u30fc\u30b1\u30c6\u30a3\u30f3\u30b0 #\u5e83\u544a\u000a http://t.co/14CiBFLBpH
p178
aVRT @exhige: \u30b9\u30de\u30fc\u30c8\u30a6\u30a9\u30c3\u30c1\u3084AppleWatch\u306e\u767b\u5834\u306b\u3088\u308a\u3001\u753b\u9762\u30b5\u30a4\u30ba\u306f\u5c0f\u3055\u304f\u306a\u308a\u60c5\u5831\u306e\u8868\u793a\u9818\u57df\u304c\u5c0f\u3055\u304f\u306a\u3063\u305f\u3002\u000a\u000a\u3060\u304b\u3089\u3069\u3046\u3059\u308b\uff1f\u000a\u000a\u305d\u306e\u7b54\u3048\u306e\u4e00\u3064\u304c\u300c\u7d75\u6587\u5b57\u300d\u306a\u306e\u304b\u3082\u3057\u308c\u307e\u305b\u3093\u3002\u000a\u000a#\u30de\u30fc\u30b1\u30c6\u30a3\u30f3\u30b0 #\u5e83\u544a\u000a http://t.co/14CiBFLBpH
p179
aVRT @exhige: \u30b9\u30de\u30fc\u30c8\u30a6\u30a9\u30c3\u30c1\u3084AppleWatch\u306e\u767b\u5834\u306b\u3088\u308a\u3001\u753b\u9762\u30b5\u30a4\u30ba\u306f\u5c0f\u3055\u304f\u306a\u308a\u60c5\u5831\u306e\u8868\u793a\u9818\u57df\u304c\u5c0f\u3055\u304f\u306a\u3063\u305f\u3002\u000a\u000a\u3060\u304b\u3089\u3069\u3046\u3059\u308b\uff1f\u000a\u000a\u305d\u306e\u7b54\u3048\u306e\u4e00\u3064\u304c\u300c\u7d75\u6587\u5b57\u300d\u306a\u306e\u304b\u3082\u3057\u308c\u307e\u305b\u3093\u3002\u000a\u000a#\u30de\u30fc\u30b1\u30c6\u30a3\u30f3\u30b0 #\u5e83\u544a\u000a http://t.co/14CiBFLBpH
p180
aVRT @exhige: \u30b9\u30de\u30fc\u30c8\u30a6\u30a9\u30c3\u30c1\u3084AppleWatch\u306e\u767b\u5834\u306b\u3088\u308a\u3001\u753b\u9762\u30b5\u30a4\u30ba\u306f\u5c0f\u3055\u304f\u306a\u308a\u60c5\u5831\u306e\u8868\u793a\u9818\u57df\u304c\u5c0f\u3055\u304f\u306a\u3063\u305f\u3002\u000a\u000a\u3060\u304b\u3089\u3069\u3046\u3059\u308b\uff1f\u000a\u000a\u305d\u306e\u7b54\u3048\u306e\u4e00\u3064\u304c\u300c\u7d75\u6587\u5b57\u300d\u306a\u306e\u304b\u3082\u3057\u308c\u307e\u305b\u3093\u3002\u000a\u000a#\u30de\u30fc\u30b1\u30c6\u30a3\u30f3\u30b0 #\u5e83\u544a\u000a http://t.co/14CiBFLBpH
p181
aVhttp://t.co/q3Uux50TBW \u6700\u77ed2.5\u6642\u9593\u3057\u304b\u6301\u305f\u306a\u3044\uff1fAppleWatch\u3001\u591a\u69d8\u6a5f\u80fd\u3092\u3069\u3046\u4f7f\u3046\u304b\u304c\u9375
p182
aV#\u30b9\u30de\u30db \u306e#\u30b1\u30fc\u30b9\u3044\u308d\u3044\u308d\u3042\u308a\u307e\u3059\u3002 \u300e\u30b9\u30de\u30db\u30b1\u30fc\u30b9\u300f\u3092\u898b\u308b [\u697d\u5929] http://t.co/xDviUdCyBV #applewatch from instagram http://t.co/zggBDlokpE http://t.co/ET3XF1UmBW
p183
aV#\u30b9\u30de\u30db \u306e#\u30b1\u30fc\u30b9\u3044\u308d\u3044\u308d\u3042\u308a\u307e\u3059\u3002 \u300e\u30b9\u30de\u30db\u30b1\u30fc\u30b9\u300f\u3092\u898b\u308b [\u697d\u5929] http://t.co/xDviUdCyBV #applewatch from instagram http://t.co/nbNbWZlpok http://t.co/IAvW5Sy47i
p184
aV#\u30b9\u30de\u30db \u306e#\u30b1\u30fc\u30b9\u3044\u308d\u3044\u308d\u3042\u308a\u307e\u3059\u3002 \u300e\u30b9\u30de\u30db\u30b1\u30fc\u30b9\u300f\u3092\u898b\u308b [\u697d\u5929] http://t.co/xDviUdCyBV #applewatch from instagram http://t.co/vMigSpDfxb http://t.co/3JcxOlOEg9
p185
aV#\u30b9\u30de\u30db \u306e#\u30b1\u30fc\u30b9\u3044\u308d\u3044\u308d\u3042\u308a\u307e\u3059\u3002 \u300e\u30b9\u30de\u30db\u30b1\u30fc\u30b9\u300f\u3092\u898b\u308b [\u697d\u5929] http://t.co/xDviUdCyBV #applewatch from instagram http://t.co/rB3VzSWOIp http://t.co/RFtCqFG059
p186
aV#\u30b9\u30de\u30db \u306e#\u30b1\u30fc\u30b9\u3044\u308d\u3044\u308d\u3042\u308a\u307e\u3059\u3002 \u300e\u30b9\u30de\u30db\u30b1\u30fc\u30b9\u300f\u3092\u898b\u308b [\u697d\u5929] http://t.co/xDviUdCyBV #applewatch from instagram http://t.co/z8x0JiCGfQ http://t.co/gvm5zxZrQs
p187
aV#\u30b9\u30de\u30db \u306e#\u30b1\u30fc\u30b9\u3044\u308d\u3044\u308d\u3042\u308a\u307e\u3059\u3002 \u300e\u30b9\u30de\u30db\u30b1\u30fc\u30b9\u300f\u3092\u898b\u308b [\u697d\u5929] http://t.co/xDviUdCyBV #applewatch from instagram http://t.co/lh2LDM7pO2 http://t.co/FnbUJcK2HH
p188
aV#\u30b9\u30de\u30db \u306e#\u30b1\u30fc\u30b9\u3044\u308d\u3044\u308d\u3042\u308a\u307e\u3059\u3002 \u300e\u30b9\u30de\u30db\u30b1\u30fc\u30b9\u300f\u3092\u898b\u308b [\u697d\u5929] http://t.co/xDviUdCyBV #applewatch from instagram http://t.co/JrGpRvzzRO http://t.co/J8Nyr20LT6
p189
aV#\u30b9\u30de\u30db \u306e#\u30b1\u30fc\u30b9\u3044\u308d\u3044\u308d\u3042\u308a\u307e\u3059\u3002 \u300e\u30b9\u30de\u30db\u30b1\u30fc\u30b9\u300f\u3092\u898b\u308b [\u697d\u5929] http://t.co/xDviUdCyBV #applewatch from instagram http://t.co/DXmqm7aOIs http://t.co/fG6vnABbom
p190
aV#\u30b9\u30de\u30db \u306e#\u30b1\u30fc\u30b9\u3044\u308d\u3044\u308d\u3042\u308a\u307e\u3059\u3002 \u300e\u30b9\u30de\u30db\u30b1\u30fc\u30b9\u300f\u3092\u898b\u308b [\u697d\u5929] http://t.co/xDviUdCyBV #applewatch from instagram http://t.co/Slh7GYvp7q http://t.co/CnCUDEiYck
p191
aV#\u30b9\u30de\u30db \u306e#\u30b1\u30fc\u30b9\u3044\u308d\u3044\u308d\u3042\u308a\u307e\u3059\u3002 \u300e\u30b9\u30de\u30db\u30b1\u30fc\u30b9\u300f\u3092\u898b\u308b [\u697d\u5929] http://t.co/xDviUdCyBV #applewatch from instagram http://t.co/eniyVPKVEl http://t.co/0VtgNS9QUl
p192
aV#\u30b9\u30de\u30db \u306e#\u30b1\u30fc\u30b9\u3044\u308d\u3044\u308d\u3042\u308a\u307e\u3059\u3002 \u300e\u30b9\u30de\u30db\u30b1\u30fc\u30b9\u300f\u3092\u898b\u308b [\u697d\u5929] http://t.co/xDviUdCyBV #applewatch from instagram http://t.co/iFhXmFozTB http://t.co/1QxZh1b566
p193
aVRT @exhige: \u30b9\u30de\u30fc\u30c8\u30a6\u30a9\u30c3\u30c1\u3084AppleWatch\u306e\u767b\u5834\u306b\u3088\u308a\u3001\u753b\u9762\u30b5\u30a4\u30ba\u306f\u5c0f\u3055\u304f\u306a\u308a\u60c5\u5831\u306e\u8868\u793a\u9818\u57df\u304c\u5c0f\u3055\u304f\u306a\u3063\u305f\u3002\u000a\u000a\u3060\u304b\u3089\u3069\u3046\u3059\u308b\uff1f\u000a\u000a\u305d\u306e\u7b54\u3048\u306e\u4e00\u3064\u304c\u300c\u7d75\u6587\u5b57\u300d\u306a\u306e\u304b\u3082\u3057\u308c\u307e\u305b\u3093\u3002\u000a\u000a#\u30de\u30fc\u30b1\u30c6\u30a3\u30f3\u30b0 #\u5e83\u544a\u000a http://t.co/14CiBFLBpH
p194
aVRT @exhige: \u30b9\u30de\u30fc\u30c8\u30a6\u30a9\u30c3\u30c1\u3084AppleWatch\u306e\u767b\u5834\u306b\u3088\u308a\u3001\u753b\u9762\u30b5\u30a4\u30ba\u306f\u5c0f\u3055\u304f\u306a\u308a\u60c5\u5831\u306e\u8868\u793a\u9818\u57df\u304c\u5c0f\u3055\u304f\u306a\u3063\u305f\u3002\u000a\u000a\u3060\u304b\u3089\u3069\u3046\u3059\u308b\uff1f\u000a\u000a\u305d\u306e\u7b54\u3048\u306e\u4e00\u3064\u304c\u300c\u7d75\u6587\u5b57\u300d\u306a\u306e\u304b\u3082\u3057\u308c\u307e\u305b\u3093\u3002\u000a\u000a#\u30de\u30fc\u30b1\u30c6\u30a3\u30f3\u30b0 #\u5e83\u544a\u000a http://t.co/14CiBFLBpH
p195
aVRT @exhige: \u30b9\u30de\u30fc\u30c8\u30a6\u30a9\u30c3\u30c1\u3084AppleWatch\u306e\u767b\u5834\u306b\u3088\u308a\u3001\u753b\u9762\u30b5\u30a4\u30ba\u306f\u5c0f\u3055\u304f\u306a\u308a\u60c5\u5831\u306e\u8868\u793a\u9818\u57df\u304c\u5c0f\u3055\u304f\u306a\u3063\u305f\u3002\u000a\u000a\u3060\u304b\u3089\u3069\u3046\u3059\u308b\uff1f\u000a\u000a\u305d\u306e\u7b54\u3048\u306e\u4e00\u3064\u304c\u300c\u7d75\u6587\u5b57\u300d\u306a\u306e\u304b\u3082\u3057\u308c\u307e\u305b\u3093\u3002\u000a\u000a#\u30de\u30fc\u30b1\u30c6\u30a3\u30f3\u30b0 #\u5e83\u544a\u000a http://t.co/14CiBFLBpH
p196
aVRT @exhige: \u30b9\u30de\u30fc\u30c8\u30a6\u30a9\u30c3\u30c1\u3084AppleWatch\u306e\u767b\u5834\u306b\u3088\u308a\u3001\u753b\u9762\u30b5\u30a4\u30ba\u306f\u5c0f\u3055\u304f\u306a\u308a\u60c5\u5831\u306e\u8868\u793a\u9818\u57df\u304c\u5c0f\u3055\u304f\u306a\u3063\u305f\u3002\u000a\u000a\u3060\u304b\u3089\u3069\u3046\u3059\u308b\uff1f\u000a\u000a\u305d\u306e\u7b54\u3048\u306e\u4e00\u3064\u304c\u300c\u7d75\u6587\u5b57\u300d\u306a\u306e\u304b\u3082\u3057\u308c\u307e\u305b\u3093\u3002\u000a\u000a#\u30de\u30fc\u30b1\u30c6\u30a3\u30f3\u30b0 #\u5e83\u544a\u000a http://t.co/14CiBFLBpH
p197
aVhttp://t.co/1MZY6yXALk AppleWatch\u304c\u5973\u6027\u306b\u3074\u3063\u305f\u308a\u306a\u30a2\u30a4\u30c6\u30e0\u3067\u3057\u305f?
p198
aVhttp://t.co/4ead2KDexN iPhone\u30e6\u30fc\u30b6\u30fc\u5fc5\u898b\u300cApplewatch\u3067\u4f55\u304c\u51fa\u6765\u308b\u306e\uff1f\u300d
p199
aVAppleWatch\u30a2\u30d7\u30ea\u306e\u7533\u8acb - Swift\u30b5\u30e9\u30ea\u30fc\u30de\u30f3 http://t.co/Pd36VEMFhD #swift-salaryman @sisheli\u3055\u3093\u304b\u3089
p200
aVAppleWatch\u3068\u304b\u306e\u30a6\u30a7\u30a2\u30e9\u30d6\u30eb\u3067\u81ea\u5206\u306e\u4f53\u8abf\u3092\u3044\u3044\u611f\u3058\u306b\u8a08\u6e2c\u30fb\u53d6\u5f97\u3057\u3066\u3001twitter\u30a2\u30a4\u30b3\u30f3\u306b\u53cd\u6620\u3057\u305f\u3089\u9762\u767d\u305d\u3046\u3060\u3051\u3069\u81ea\u5206\u3067\u30c9\u30f3\u5f15\u304d\u3057\u305d\u3046\u3067\u6016\u3044
p201
aV\u30c9\u30e4\u30c3\u3068AppleWatch\u3092\u8155\u306b\u306f\u3081\u3066\u308b\u30d5\u30a9\u30c8\u3046p\u3057\u3066\u308b\u30aa\u30c3\u3055\u3093\u305f\u3061\u3001\u983c\u3080\u304b\u3089\u8155\u6bdb\u5243\u3063\u3066\u2026\u305f\u307e\u306b\u6c17\u6301\u3061\u60aa\u304f\u306a\u308b\u3002
p202
aV\u6628\u591c\u3001\u30e8\u30c9\u30d0\u30b7\u65b0\u5bbf\u897f\u53e3\u5e97\u3067\u3001AppleWatch\u306e\u8a66\u7740\u3092\u5168\u304f\u4e26\u3070\u305a\u306b\u3057\u3066\u304d\u305f\u3088\u3002\u3044\u3084\u3041\u3001\u30a4\u30a4\u6642\u8a08\u30d0\u30f3\u30c9\u3092\u4f5c\u3063\u305f\u3082\u306e\u3067\u3059\u3002\u7279\u306b\u30df\u30e9\u30cd\u30fc\u30bc\u30eb\u30fc\u30d7\u3002\u7c97\u60aa\u306a\u30e4\u30c4\u3084\u3068\u6bdb\u304c\u7d61\u3093\u3067\u75db\u3044\u3093\u3088\u306d\u3002\u305d\u308c\u304c\u5168\u304f\u306a\u3044\uff01\u3057\u304b\u3082\u3001\u304d\u3064\u304f\u7de0\u3081\u308b\u306e\u3082\u7de9\u3081\u308b\u306e\u3082\u601d\u3044\u306e\u307e\u307e\u306a\u3093\u3066\uff01\u30b3\u30b3\u307e\u3067\u81ea\u7531\u5ea6\u306e\u9ad8\u3044\u30d0\u30f3\u30c9\u306f\u2026\u3002
p203
aV\u9ad8\u7d1a\u8155\u6642\u8a08\u306e\u5024\u6bb5\u8abf\u3079\u307e\u304f\u3063\u305f\u3089\u3001AppleWatch\u304c\u3060\u3093\u3060\u3093\u5b89\u304f\u611f\u3058\u308b\u306e\u3067\u306f\u306a\u3044\u304b
p204
aV\u30b9\u30bf\u30fc\u30c8\u307e\u3067\u5f8c5\u65e5\uff01\u000aAppleWatch\u65cb\u98a8\u3092\u5dfb\u304d\u8d77\u3053\u305b\u308b\u304bw / \u30a2\u30c3\u30d7\u30eb\u30a6\u30aa\u30c3\u30c1\u3001\u300c\u30b0\u30e9\u30f3\u30b9\u30fb\u30b8\u30e3\u30fc\u30ca\u30ea\u30ba\u30e0\u300d\u3092\u5207\u308a\u958b\u304f\u304b\u000ahttp://t.co/rGmckYBI21 #NewsPicks
p205
aV\u7b2c25\u56de \u30b9\u30de\u30db\u4f9d\u5b58\u306e\u751f\u6d3b\u3092\u30ea\u30d0\u30e9\u30f3\u30b9\u3059\u308b\u300cVELDT SERENDIPITY\u300d\u304c\u751f\u307e\u308c\u305f\u7406\u7531 http://t.co/A7j731wtlE #AppleWatch
p206
aV\u300cApple Watch\u300d\u30ec\u30d3\u30e5\u30fc\uff08\u7b2c4\u56de\uff09--\u97f3\u697d\u518d\u751f\u6a5f\u80fd\u3001Apple Pay\u3001\u8ab2\u984c\u304c\u6b8b\u308b\u64cd\u4f5c\u6027 http://t.co/NXIqtqklYe #AppleWatch
p207
aVApplewatch\u3082\u3064\u3044\u3067\u306b\u89e6\u3063\u305f\u3051\u3069\u3001\u5927\u65b9\u306e\u4e88\u60f3\u901a\u308a\u5b9f\u6a5f\u89e6\u3063\u305f\u7d50\u679c\u6b32\u3057\u304f\u306a\u304f\u306a\u308b\u30ac\u30b8\u30a7\u30c3\u30c8\u3067\u3042\u3063\u305f http://t.co/xtOw6hQJ4s
p208
aV\u3088\u304f\u308f\u304b\u3089\u306a\u3044\u30e2\u30ce\u307e\u3067\u3001AppleWatch\u306b\u5bfe\u5fdc\u3057\u3066\u3044\u308b\u306e\u306b\u300c\u65e5\u672c\u3082\u4e57\u308a\u9045\u308c\u308b\u306a\u300d\u8a00\u308f\u306a\u3044\u30de\u30b9\u30b3\u30df\u306e\u30d0\u30c3\u30af\u306b\u306f\u306a\u306b\u304c\u3042\u308b\u3093\u3060\u308d\u3046\u304b\uff1f\uff08\u3049\u3043
p209
aVAppleWatch\u3067\u30d3\u30f3\u56de\u3057\u3066\u3069\u30fc\u3059\u308c\u3070\u3044\u3044\u3093\u3060\uff1f
p210
aV\u4e88\u60f3\u901a\u308a\u3068\u3044\u3046\u304bAppleWatch\u5bfe\u5fdc\u30a2\u30d7\u30ea\u306f\u30d3\u30e5\u30ef\u30fc\u304b\u30b9\u30de\u30db\u64cd\u4f5c\u7cfb\u304c\u5927\u52e2\u3092\u5360\u3081\u308b\u611f\u3058\u3084\u306d\u3047\u2026\u3002
p211
aVhttp://t.co/8WktaKwMsK iPhone\u30e6\u30fc\u30b6\u30fc\u5fc5\u898b\u300cApplewatch\u3067\u4f55\u304c\u51fa\u6765\u308b\u306e\uff1f\u300d
p212
aVAppleWatch\u306eCM\u306e\u66f2\u304c\u982d\u306b\u6b8b\u3063\u3066\u308b
p213
aV\u300eAppleWatch\u3088\u308a\u7f8e\u3057\u3044!?\uff1aWithings Activite\u3001\u65e5\u672c\u4e0a\u9678\uff01\u300f http://t.co/YicIFZ9ItW\u000a\u000a -NAVER\u307e\u3068\u3081 (\u30c7\u30b6\u30a4\u30f3)
p214
aVRT @utdesign: \u4eca\u9803\u6c17\u4ed8\u3044\u305f\u3001#AppleWatch \u304b\u3089\u767a\u8868\u5f8c\u306b\u524a\u9664\u3055\u308c\u3066\u3057\u307e\u3063\u305f\uff12\u3064\u306e\u6587\u5b57\u76e4\u30d0\u30ea\u30a8\u30fc\u30b7\u30e7\u30f3\u306b\u3064\u3044\u3066\u30d6\u30ed\u30b0\u30a2\u30c3\u30d7\u3057\u307e\u3057\u305f\u3002 http://t.co/ewzfeaCrmm http://t.co/CKsYluBeHN
p215
aVRT @utdesign: \u4eca\u9803\u6c17\u4ed8\u3044\u305f\u3001#AppleWatch \u304b\u3089\u767a\u8868\u5f8c\u306b\u524a\u9664\u3055\u308c\u3066\u3057\u307e\u3063\u305f\uff12\u3064\u306e\u6587\u5b57\u76e4\u30d0\u30ea\u30a8\u30fc\u30b7\u30e7\u30f3\u306b\u3064\u3044\u3066\u30d6\u30ed\u30b0\u30a2\u30c3\u30d7\u3057\u307e\u3057\u305f\u3002 http://t.co/ewzfeaCrmm http://t.co/CKsYluBeHN
p216
aV\u30af\u30ec\u30b8\u30c3\u30c8\u30ab\u30fc\u30c9\u6c7a\u7b97\u3067\u9650\u5ea6\u984d\u884c\u3063\u305f\u3063\u307d\u3044\u306a\u3002\u000a\u4e88\u7d04\u3057\u3066\u3044\u305f\u30e2\u30ce\u3067\u5f15\u3063\u304b\u304b\u3063\u305f\u3088\u3046\u3060\uff61\uff61\uff61\u000a\u307e\u3042\u3001\u7acb\u66ff\u3068\u304b\u3057\u305f\u3057\u3001AppleWatch\u4ee3\u3082\u3042\u308b\u3057\uff61\uff61\uff61\u000a\u000a\u4ed5\u65b9\u304c\u306a\u3044\uff1f
p217
aV#\u30b9\u30de\u30db \u306e#\u30b1\u30fc\u30b9\u3044\u308d\u3044\u308d\u3042\u308a\u307e\u3059\u3002 \u300e\u30b9\u30de\u30db\u30b1\u30fc\u30b9\u300f\u3092\u898b\u308b [\u697d\u5929] http://t.co/xDviUdCyBV #applewatch from instagram http://t.co/JQpVOtDXR6 http://t.co/Yqkk0yfC3M
p218
aV#\u30b9\u30de\u30db \u306e#\u30b1\u30fc\u30b9\u3044\u308d\u3044\u308d\u3042\u308a\u307e\u3059\u3002 \u300e\u30b9\u30de\u30db\u30b1\u30fc\u30b9\u300f\u3092\u898b\u308b [\u697d\u5929] http://t.co/xDviUdCyBV #applewatch from instagram http://t.co/7FrbPkFpmA http://t.co/ADiaGUyXfC
p219
aV#\u30b9\u30de\u30db \u306e#\u30b1\u30fc\u30b9\u3044\u308d\u3044\u308d\u3042\u308a\u307e\u3059\u3002 \u300e\u30b9\u30de\u30db\u30b1\u30fc\u30b9\u300f\u3092\u898b\u308b [\u697d\u5929] http://t.co/xDviUdCyBV #applewatch from instagram http://t.co/SMhAzUhaha http://t.co/PrbcdpHY8j
p220
aV#\u30b9\u30de\u30db \u306e#\u30b1\u30fc\u30b9\u3044\u308d\u3044\u308d\u3042\u308a\u307e\u3059\u3002 \u300e\u30b9\u30de\u30db\u30b1\u30fc\u30b9\u300f\u3092\u898b\u308b [\u697d\u5929] http://t.co/xDviUdCyBV #applewatch from instagram http://t.co/5qHX8on8DT http://t.co/fmsvaGtX0d
p221
aV#\u30b9\u30de\u30db \u306e#\u30b1\u30fc\u30b9\u3044\u308d\u3044\u308d\u3042\u308a\u307e\u3059\u3002 \u300e\u30b9\u30de\u30db\u30b1\u30fc\u30b9\u300f\u3092\u898b\u308b [\u697d\u5929] http://t.co/xDviUdCyBV #applewatch from instagram http://t.co/dQFZeoGak0 http://t.co/4gqLH2pqu5
p222
aV#\u30b9\u30de\u30db \u306e#\u30b1\u30fc\u30b9\u3044\u308d\u3044\u308d\u3042\u308a\u307e\u3059\u3002 \u300e\u30b9\u30de\u30db\u30b1\u30fc\u30b9\u300f\u3092\u898b\u308b [\u697d\u5929] http://t.co/xDviUdCyBV #applewatch from instagram http://t.co/06JtoSLQQU http://t.co/y7DZrI7SPy
p223
aV#\u30b9\u30de\u30db \u306e#\u30b1\u30fc\u30b9\u3044\u308d\u3044\u308d\u3042\u308a\u307e\u3059\u3002 \u300e\u30b9\u30de\u30db\u30b1\u30fc\u30b9\u300f\u3092\u898b\u308b [\u697d\u5929] http://t.co/xDviUdCyBV #applewatch from instagram http://t.co/Oi4pDcKsow http://t.co/JQkurCJ36F
p224
aV#\u30b9\u30de\u30db \u306e#\u30b1\u30fc\u30b9\u3044\u308d\u3044\u308d\u3042\u308a\u307e\u3059\u3002 \u300e\u30b9\u30de\u30db\u30b1\u30fc\u30b9\u300f\u3092\u898b\u308b [\u697d\u5929] http://t.co/xDviUdCyBV #applewatch from instagram http://t.co/toMVjDD1Ba http://t.co/36HlBElLpl
p225
aV#\u30b9\u30de\u30db \u306e#\u30b1\u30fc\u30b9\u3044\u308d\u3044\u308d\u3042\u308a\u307e\u3059\u3002 \u300e\u30b9\u30de\u30db\u30b1\u30fc\u30b9\u300f\u3092\u898b\u308b [\u697d\u5929] http://t.co/xDviUdCyBV #applewatch from instagram http://t.co/n7Qu16JggN http://t.co/nGzxjg5dog
p226
aV#\u30b9\u30de\u30db \u306e#\u30b1\u30fc\u30b9\u3044\u308d\u3044\u308d\u3042\u308a\u307e\u3059\u3002 \u300e\u30b9\u30de\u30db\u30b1\u30fc\u30b9\u300f\u3092\u898b\u308b [\u697d\u5929] http://t.co/xDviUdCyBV #applewatch from instagram http://t.co/dZ9TxlGD2l http://t.co/55RiGAAsUo
p227
aV#\u30b9\u30de\u30db \u306e#\u30b1\u30fc\u30b9\u3044\u308d\u3044\u308d\u3042\u308a\u307e\u3059\u3002 \u300e\u30b9\u30de\u30db\u30b1\u30fc\u30b9\u300f\u3092\u898b\u308b [\u697d\u5929] http://t.co/xDviUdCyBV #applewatch from instagram http://t.co/dz5q6hu8ub http://t.co/Y0lKyOttmN
p228
aVAppleWatch\u306f\u30c7\u30e2\u3092\u89e6\u3063\u305f\u6642\u306e\u5370\u8c61\u3068\u8a66\u7740\u3057\u305f\u6642\u306e\u5370\u8c61\u304c\u5168\u304f\u9055\u3046\u304b\u3089\u8a66\u7740\u5f8c\u8cfc\u5165\u3092\u30aa\u30b9\u30b9\u30e1
p229
aV\u30bd\u30fc\u30b7\u30e3\u30eb\u3067\u9700\u7d66\u304c\u30b3\u30f3\u30c8\u30ed\u30fc\u30eb\u51fa\u6765\u306a\u304f\u306a\u308b\u307b\u3069\u903c\u8feb\u3063\u3066\u3001\u5b9f\u52d9\u3092\u77e5\u3089\u306a\u3044\u4eba\u306e\u622f\u8a00\u3002Applewatch\u306a\u3089\u307e\u3060\u3057\u3082\u3001\u5c71\u7a4d\u307f\u306e\u5e97\u3068\u305d\u3046\u3067\u306a\u3044\u5e97\u306e\u5dee\u304c\u3042\u308b\u306e\u3060\u304b\u3089\u3001\u30bd\u30fc\u30b7\u30e3\u30eb\u306f\u95a2\u4fc2\u306a\u3044\u3088\u3002
p230
aV\u3061\u3087\u3044\u8ffd\u8a18\u3057\u307e\u3057\u305f\u3002\u2192 RT @utdesign: \u4eca\u9803\u6c17\u4ed8\u3044\u305f\u3001#AppleWatch \u304b\u3089\u767a\u8868\u5f8c\u306b\u524a\u9664\u3055\u308c\u3066\u3057\u307e\u3063\u305f\uff12\u3064\u306e\u6587\u5b57\u76e4\u30d0\u30ea\u30a8\u30fc\u30b7\u30e7\u30f3\u306b\u3064\u3044\u3066\u30d6\u30ed\u30b0\u30a2\u30c3\u30d7\u3057\u307e\u3057\u305f\u3002 http://t.co/ewzfeaCrmm http://t.co/CKsYluBeHN
p231
aVhttp://t.co/lL0FKtXxmj AppleWatch\u306f2\u4eba\u306e\u5049\u5927\u306a\u30c7\u30b6\u30a4\u30ca\u30fc\u306b\u3088\u3063\u3066\u4f5c\u3089\u308c\u3066\u3044\u305f
p232
aV\u3010\u753b\u50cf\u3011\u30b9\u30bf\u30d0\u3067MacBook\u3092\u3072\u308d\u3052\u308b\u30c9\u30e4\u30ea\u30b9\u30c8\u306e\u9054\u4eba\u9054\u304c\u6700\u9ad8\u306b\u30af\u30fc\u30eb\uff01 http://t.co/KDJQW0lhIN #SmartNews\u000a\u000aapplewatch\u5c4a\u3044\u305f\u3089MBP\u3068iPad\u3067\u30d5\u30eb\u30bb\u30c3\u30c8\u30c9\u30e4\u304b\u307e\u3057\u305f\u3044
p233
aV#AppleWatch \u306f\u4eca\u9031\u767a\u58f2\u304b\u3002\u6642\u306e\u6d41\u308c\u306f\u65e9\u3044\u306a\u3041\u3002
p234
aV\u904e\u53bb\u8a18\u4e8b: \u3010\u4e88\u7fd2\u3011AppleWatch\u3092\u5186\u6ed1\u306b\u4f7f\u3044\u59cb\u3081\u308b\u70ba\u306e\u64cd\u4f5c\u65b9\u6cd5 http://t.co/WBwQBvqiOs http://t.co/rQQbdAnsC6
p235
aVAppleWatch\u306f\u58f2\u308c\u3066\u3093\u306e\u304b\u3042\u3093\u307e\u4f5c\u3089\u306a\u304b\u3063\u305f\u3060\u3051\u304b\u3002
p236
aVRT @mameji: [LINE\u306eAppleWatch]\u000a\u000a\u30a2\u30d7\u30ea\u4eca\u9031\u306e\u65e5\u7d4c\u65b0\u805e\u3092\u307e\u3068\u3081\u8aad\u307f\u3057\u3066\u3066\u898b\u3064\u3051\u305f\u8a18\u4e8b\u3067\u3059\u3002\u3053\u3046\u3044\u3046\u30c1\u30e9\u898b\u30a2\u30d7\u30ea\u3063\u3066\u306e\u306f\u3069\u3093\u3069\u3093\u3068\u51fa\u3066\u304f\u308b\u3093\u3067\u3057\u3087\u3046\u306d\u3002\u6a5f\u80fd\u3092\u7d5e\u3063\u3066\u5fc5\u8981\u6700\u5c0f\u9650\u306e\u60c5\u5831\u3060\u3051\u3092\u76ee\u306b\u5165\u308c\u308b\u3002 http://t.co/dr9vZfiAlh
p237
aVRT @okuno_ryo: \u3010\u753b\u50cf\u3011\u30b9\u30bf\u30d0\u3067MacBook\u3092\u3072\u308d\u3052\u308b\u30c9\u30e4\u30ea\u30b9\u30c8\u306e\u9054\u4eba\u9054\u304c\u6700\u9ad8\u306b\u30af\u30fc\u30eb\uff01 http://t.co/KDJQW0lhIN #SmartNews\u000a\u000aapplewatch\u5c4a\u3044\u305f\u3089MBP\u3068iPad\u3067\u30d5\u30eb\u30bb\u30c3\u30c8\u30c9\u30e4\u304b\u307e\u3057\u305f\u3044
p238
aVAppleWatch\u306f\u5931\u793c\u306a\u306e\u304b\u3069\u3046\u306a\u306e\u304b\u3082\u65e9\u304f\u6c7a\u3081\u3066\u307b\u3057\u3044\u3002\u201c@tabbata \u300c\u30b9\u30de\u30db\u3067\u6642\u9593\u78ba\u8a8d\u300d\u306f\u9867\u5ba2\u306b\u5931\u793c\u306a\u306e\u304b \u300c\u793e\u4f1a\u4eba\u306a\u3093\u3060\u304b\u3089\u8155\u6642\u8a08\u3050\u3089\u3044\u3057\u306a\u3055\u3044\u300d\u306e\u58f0\u3082 #BLOGOS http://t.co/SoN1AXVdO9\u201d
p239
aVRT @Bondra: AppleWatch\u306f\u5931\u793c\u306a\u306e\u304b\u3069\u3046\u306a\u306e\u304b\u3082\u65e9\u304f\u6c7a\u3081\u3066\u307b\u3057\u3044\u3002\u201c@tabbata \u300c\u30b9\u30de\u30db\u3067\u6642\u9593\u78ba\u8a8d\u300d\u306f\u9867\u5ba2\u306b\u5931\u793c\u306a\u306e\u304b \u300c\u793e\u4f1a\u4eba\u306a\u3093\u3060\u304b\u3089\u8155\u6642\u8a08\u3050\u3089\u3044\u3057\u306a\u3055\u3044\u300d\u306e\u58f0\u3082 #BLOGOS http://t.co/SoN1AXVdO9\u201d
p240
aVRT @Bondra: AppleWatch\u306f\u5931\u793c\u306a\u306e\u304b\u3069\u3046\u306a\u306e\u304b\u3082\u65e9\u304f\u6c7a\u3081\u3066\u307b\u3057\u3044\u3002\u201c@tabbata \u300c\u30b9\u30de\u30db\u3067\u6642\u9593\u78ba\u8a8d\u300d\u306f\u9867\u5ba2\u306b\u5931\u793c\u306a\u306e\u304b \u300c\u793e\u4f1a\u4eba\u306a\u3093\u3060\u304b\u3089\u8155\u6642\u8a08\u3050\u3089\u3044\u3057\u306a\u3055\u3044\u300d\u306e\u58f0\u3082 #BLOGOS http://t.co/SoN1AXVdO9\u201d
p241
aVRT @Bondra: AppleWatch\u306f\u5931\u793c\u306a\u306e\u304b\u3069\u3046\u306a\u306e\u304b\u3082\u65e9\u304f\u6c7a\u3081\u3066\u307b\u3057\u3044\u3002\u201c@tabbata \u300c\u30b9\u30de\u30db\u3067\u6642\u9593\u78ba\u8a8d\u300d\u306f\u9867\u5ba2\u306b\u5931\u793c\u306a\u306e\u304b \u300c\u793e\u4f1a\u4eba\u306a\u3093\u3060\u304b\u3089\u8155\u6642\u8a08\u3050\u3089\u3044\u3057\u306a\u3055\u3044\u300d\u306e\u58f0\u3082 #BLOGOS http://t.co/SoN1AXVdO9\u201d
p242
aVhttp://t.co/XvrA185MZV AppleWatch\u304c\u5973\u6027\u306b\u3074\u3063\u305f\u308a\u306a\u30a2\u30a4\u30c6\u30e0\u3067\u3057\u305f?
p243
aVAppleWatch\u306e\u970a\u5727\u304c\u3001\u6d88\u3048\u305f\u2026\u2026\u2026
p244
aVRT @Bondra: AppleWatch\u306f\u5931\u793c\u306a\u306e\u304b\u3069\u3046\u306a\u306e\u304b\u3082\u65e9\u304f\u6c7a\u3081\u3066\u307b\u3057\u3044\u3002\u201c@tabbata \u300c\u30b9\u30de\u30db\u3067\u6642\u9593\u78ba\u8a8d\u300d\u306f\u9867\u5ba2\u306b\u5931\u793c\u306a\u306e\u304b \u300c\u793e\u4f1a\u4eba\u306a\u3093\u3060\u304b\u3089\u8155\u6642\u8a08\u3050\u3089\u3044\u3057\u306a\u3055\u3044\u300d\u306e\u58f0\u3082 #BLOGOS http://t.co/SoN1AXVdO9\u201d
p245
aVRT @Bondra: AppleWatch\u306f\u5931\u793c\u306a\u306e\u304b\u3069\u3046\u306a\u306e\u304b\u3082\u65e9\u304f\u6c7a\u3081\u3066\u307b\u3057\u3044\u3002\u201c@tabbata \u300c\u30b9\u30de\u30db\u3067\u6642\u9593\u78ba\u8a8d\u300d\u306f\u9867\u5ba2\u306b\u5931\u793c\u306a\u306e\u304b \u300c\u793e\u4f1a\u4eba\u306a\u3093\u3060\u304b\u3089\u8155\u6642\u8a08\u3050\u3089\u3044\u3057\u306a\u3055\u3044\u300d\u306e\u58f0\u3082 #BLOGOS http://t.co/SoN1AXVdO9\u201d
p246
aVhttp://t.co/JOrUmpoCRE iPhone\u30e6\u30fc\u30b6\u30fc\u5fc5\u898b\u300cApplewatch\u3067\u4f55\u304c\u51fa\u6765\u308b\u306e\uff1f\u300d
p247
aV\u3010\u6700\u65b0\u60c5\u5831\u3011 \u30a2\u30c3\u30d7\u30eb\u4fe1\u8005\u306e\u307e\u3068\u3081 : \u3010\u95b2\u89a7\u6ce8\u610f\u3011AppleWatch\u306b\u5bfe\u3059\u308b\u30a2\u30f3\u30c1\u306e\u53cd\u5fdc http://t.co/6I9fDDqIVA http://t.co/Ecn4dIwB7f
p248
aVRT @Bondra: AppleWatch\u306f\u5931\u793c\u306a\u306e\u304b\u3069\u3046\u306a\u306e\u304b\u3082\u65e9\u304f\u6c7a\u3081\u3066\u307b\u3057\u3044\u3002\u201c@tabbata \u300c\u30b9\u30de\u30db\u3067\u6642\u9593\u78ba\u8a8d\u300d\u306f\u9867\u5ba2\u306b\u5931\u793c\u306a\u306e\u304b \u300c\u793e\u4f1a\u4eba\u306a\u3093\u3060\u304b\u3089\u8155\u6642\u8a08\u3050\u3089\u3044\u3057\u306a\u3055\u3044\u300d\u306e\u58f0\u3082 #BLOGOS http://t.co/SoN1AXVdO9\u201d
p249
aVRT @Bondra: AppleWatch\u306f\u5931\u793c\u306a\u306e\u304b\u3069\u3046\u306a\u306e\u304b\u3082\u65e9\u304f\u6c7a\u3081\u3066\u307b\u3057\u3044\u3002\u201c@tabbata \u300c\u30b9\u30de\u30db\u3067\u6642\u9593\u78ba\u8a8d\u300d\u306f\u9867\u5ba2\u306b\u5931\u793c\u306a\u306e\u304b \u300c\u793e\u4f1a\u4eba\u306a\u3093\u3060\u304b\u3089\u8155\u6642\u8a08\u3050\u3089\u3044\u3057\u306a\u3055\u3044\u300d\u306e\u58f0\u3082 #BLOGOS http://t.co/SoN1AXVdO9\u201d
p250
aV\u3010NEWS\u3011\u300c\u97f3\u697d\u300d\u95a2\u9023\u306e\u30cb\u30e5\u30fc\u30b9\u3092\u3054\u7d39\u4ecb\u3057\u307e\u3059\u3002\u3010\u300cApple Watch\u300d\u30ec\u30d3\u30e5\u30fc --\u97f3\u697d\u518d\u751f\u6a5f\u80fd\u3000http://t.co/0f1eKkHIrn \u3011\u3000#News\u3000#AppleWatch\u3000#\u30ac\u30b8\u30a7\u30c3\u30c8\u3000#\u30a6\u30a7\u30a2\u30e9\u30d6\u30eb http://t.co/JkcGI9QBcu
p251
aV\u753b\u9762\u304c\u306a\u304f\u3066\u4f55\u304c\u51fa\u6765\u308b\u304b\u306e\u6642\u4ee3\u306b\u306a\u308b\u306e\u304b\u306a\uff1f\u3084\u3063\u3071\u308aAppleWatch\u306e\u53ef\u80fd\u6027\u611f\u3058\u308b\u3002
p252
aV\u6b63\u76f4\u3001\u8a00\u3048\u3070\u3053\u3061\u3068\u3089\u8001\u773c\u304c\u5165\u3063\u3066\u304d\u3066\u3044\u308b\u4e16\u4ee3\u3067\u3082\u3042\u308b\u306e\u3067\u3001\u3042\u3093\u306a\u5c0f\u3055\u3044\u30c7\u30a3\u30b9\u30d7\u30ec\u30a4\u3067\u8a18\u4e8b\u306e\u898b\u51fa\u3057\u3067\u3042\u3063\u3066\u3082\u8aad\u3080\u304b\u3088\uff01\u30d0\u30ab\uff01\u3063\u3066\u8a00\u3048\u308b\u308f\u3051\u3060\u3002\u3064\u307e\u308a\u3001iPhone6PLUS\u306f\u8a55\u4fa1\u3059\u308b\u304c\u3001AppleWatch\u306f\u3044\u3089\u3093\u3060\u308d\u3002\u305f\u3060\u306e\u8155\u6642\u8a08\u3067\u5341\u5206\u3058\u3083\uff01
p253
aVhttp://t.co/Nic5KomdhH AppleWatch\u304c\u5973\u6027\u306b\u3074\u3063\u305f\u308a\u306a\u30a2\u30a4\u30c6\u30e0\u3067\u3057\u305f?
p254
aVRT @Bondra: AppleWatch\u306f\u5931\u793c\u306a\u306e\u304b\u3069\u3046\u306a\u306e\u304b\u3082\u65e9\u304f\u6c7a\u3081\u3066\u307b\u3057\u3044\u3002\u201c@tabbata \u300c\u30b9\u30de\u30db\u3067\u6642\u9593\u78ba\u8a8d\u300d\u306f\u9867\u5ba2\u306b\u5931\u793c\u306a\u306e\u304b \u300c\u793e\u4f1a\u4eba\u306a\u3093\u3060\u304b\u3089\u8155\u6642\u8a08\u3050\u3089\u3044\u3057\u306a\u3055\u3044\u300d\u306e\u58f0\u3082 #BLOGOS http://t.co/SoN1AXVdO9\u201d
p255
aVRT @Bondra: AppleWatch\u306f\u5931\u793c\u306a\u306e\u304b\u3069\u3046\u306a\u306e\u304b\u3082\u65e9\u304f\u6c7a\u3081\u3066\u307b\u3057\u3044\u3002\u201c@tabbata \u300c\u30b9\u30de\u30db\u3067\u6642\u9593\u78ba\u8a8d\u300d\u306f\u9867\u5ba2\u306b\u5931\u793c\u306a\u306e\u304b \u300c\u793e\u4f1a\u4eba\u306a\u3093\u3060\u304b\u3089\u8155\u6642\u8a08\u3050\u3089\u3044\u3057\u306a\u3055\u3044\u300d\u306e\u58f0\u3082 #BLOGOS http://t.co/SoN1AXVdO9\u201d
p256
aVAppleWatch\u3067\u30cb\u30e5\u30fc\u30b9\u3092\u898b\u308b\u3088\u3046\u306b\u306a\u308b\u3068\u3059\u308c\u3070\u3001\u4eca\u3088\u308a\u3082\u3063\u3068\u60c5\u5831\u91cf\u304c\u5c11\u306a\u304f\u3066\u3001\u898b\u51fa\u3057\u30ec\u30d9\u30eb\u306e\u3082\u306e\u306b\u306a\u308b\u304b\u306a\u3002\u000a\u30cb\u30e5\u30fc\u30b9\u6982\u8981\u304c\u30b9\u30e9\u30a4\u30c9\u30b7\u30e7\u30fc\u306e\u3088\u3046\u306b\u898b\u308c\u308b\u306e\u306f\u826f\u3044\u304b\u3082\u3057\u308c\u306a\u3044\u3002 / \u30a2\u30c3\u30d7\u30eb\u30a6\u30aa\u30c3...\u000ahttp://t.co/974OYNAph6 #NewsPicks
p257
aV@shavetail Applewatch\u3067\u4f7f\u7528\u3059\u308b\u91d1\u306f\u30a2\u30d5\u30ea\u30ab\u306e\u91d1\u9271\u3067\u5341\u5206\u8cc4\u3048\u308b\u3089\u3057\u3044\u3067\u3059\u3057
p258
aV\u706b\u6c34\u9023\u4f11\u3067\u6728\u66dc\u4ed5\u4e8b\u9811\u5f35\u3063\u305f\u3089\u5f85\u3061\u306b\u5f85\u3063\u305fAppleWatch\uff01\uff01\uff01
p259
aV\u3044\u3084\u30fcAppleWatch\u6700\u9ad8\u3060\u308f
p260
aVAppleWatch\u3063\u3066\u64cd\u4f5c\u3059\u308b\u3068\u304d\u4e21\u624b\u3060\u3088\u306a\u30fb\u30fb\u30fb\u3002\u7247\u624b\u585e\u304c\u3063\u3066\u305f\u3089\u4f7f\u3048\u306a\u3044\u306e\u304b\u3002
p261
aV\u767a\u58f2\u65e5\u306bAppleWatch\u624b\u306b\u5165\u3089\u306a\u304b\u3063\u305f\u3089\u571f\u65e5\u306e\u4ed5\u4e8b\u30c6\u30f3\u30b7\u30e7\u30f3\u3060\u3060\u4e0b\u304c\u308a\u3002
p262
aVApple Watch\u306e\u5c55\u793a\u30c7\u30a3\u30b9\u30d7\u30ec\u30a4\u304c\u3044\u308d\u3044\u308d\u3059\u3054\u3044 #AppleWatch #\u30ae\u30ba\u30e2\u30fc\u30c9 : \u30ae\u30ba\u30e2\u30fc\u30c9\u30fb\u30b8\u30e3\u30d1\u30f3\u000ahttp://t.co/rtuZb7fu2s
p263
aVRT @MHS24733375: Apple Watch\u306e\u5c55\u793a\u30c7\u30a3\u30b9\u30d7\u30ec\u30a4\u304c\u3044\u308d\u3044\u308d\u3059\u3054\u3044 #AppleWatch #\u30ae\u30ba\u30e2\u30fc\u30c9 : \u30ae\u30ba\u30e2\u30fc\u30c9\u30fb\u30b8\u30e3\u30d1\u30f3\u000ahttp://t.co/rtuZb7fu2s
p264
aVhttp://t.co/JXFazp9fDr AppleWatch\u304c\u5973\u6027\u306b\u3074\u3063\u305f\u308a\u306a\u30a2\u30a4\u30c6\u30e0\u3067\u3057\u305f?
p265
aViPad Pro\u306f\u30b9\u30bf\u30a4\u30e9\u30b9\u30da\u30f3\u3064\u304f\u306e\u78ba\u5b9a\u3060\u306a\u3041\u000a\u4eca\u306b\u306a\u3063\u3066\u306a\u3093\u304b\u65b0\u578biPhone\u304c\u30b8\u30e5\u30e9\u30eb\u30df\u30f3\u306a\u3093\u3066\u5642\u304c\u51fa\u305f\u3051\u3069\u3001\u305d\u3046\u306a\u3063\u305f\u3089\u307e\u3058\u3067\u3059\u3054\u3044\u307b\u3057\u3044\u306a\u3041\u000aAppleWatch\u306f\u751f\u7523\u6570\u304c\u9650\u3089\u308c\u305d\u3046\u3060\u304b\u65e9\u3081\u306b\u8cb7\u3046\u3053\u3068\u304a\u52e7\u3081\u3059\u308b\u3088\uff01\u000ahttp://t.co/Gfj6zJc2Ek
p266
aV@tei_emu \u4eca\u306e\u3068\u3053\u308dApplewatch\u306f\u98df\u6307\u306f\u52d5\u304b\u306a\u3044\u3067\u3059\u306d\u3002\u3080\u3057\u308dSurface3\u304c\u6c17\u306b\u306a\u3063\u3066\u307e\u3059w
p267
aV\u672c\u65e5\u306e\u6687\u30ab\u30d7\u30c1\u30fc\u30ce\u3001\u300eAppleWatch\u300f\u3002 http://t.co/C05LF3fmq4
p268
aV\u3010AppleWatch\u3011\u6700\u3082\u30d1\u30fc\u30bd\u30ca\u30eb\u306aApple\u306e\u6700\u65b0\u30c6\u30af\u30ce\u30ed\u30b8\u30fc\u3067\u3059\u3002\u9a5a\u304f\u307b\u3069\u65b0\u3057\u3044\u30c6\u30af\u30cb\u30c3\u30af\u3001\u5148\u9032\u6280\u8853\u306e\u6570\u3005\u3092\u3075\u3093\u3060\u3093\u306b\u53d6\u308a\u5165\u308c\u3066\u3044\u307e\u3059\u3002\u5168\u304f\u65b0\u3057\u3044\u4f53\u9a13\u3092\u304a\u5c4a\u3051\u3057\u307e\u3059\u3002Amazon\u3067\u306f\u9b45\u529b\u7684\u306a\u4ed8\u5c5e\u54c1\u3092\u6ce8\u6587\u3067\u304d\u307e\u3059\u2192http://t.co/MMuqzZNS3y\u305d\u306e158
p269
aV\u30a2\u30ca\u96ea\u3082\u3001\u4e8c\u5b50\u7389\u30e9\u30a4\u30ba\u3082\u3001AppleWatch\u3082\u3001\u307f\u3093\u306a\u30b4\u30fc\u30eb\u30c7\u30f3\u30a6\u30a3\u30fc\u30af\u306b\u9593\u306b\u5408\u308f\u305b\u3066\u308b\u306a\u3002
p270
aVApple Watch\u306e\u5c55\u793a\u30c7\u30a3\u30b9\u30d7\u30ec\u30a4\u304c\u3044\u308d\u3044\u308d\u3059\u3054\u3044 #AppleWatch #\u30ae\u30ba\u30e2\u30fc\u30c9 : \u30ae\u30ba\u30e2\u30fc\u30c9\u30fb\u30b8\u30e3\u30d1\u30f3\u000ahttp://t.co/rtuZb7fu2s
p271
aV@kir1ca \u30c7\u30df\u30aa\u3055\u3093\u3001\u3081\u3063\u3061\u3083\u3044\u3044\u97f3\u3059\u308b\u306e\u3067\u5927\u5909\u6e80\u8db3\u3057\u3066\u3044\u308b\uff08AppleWatch\u3053\u3093\u3069\u805e\u304d\u306b\u884c\u3063\u3066\u307f\u307e\u3059\uff01
p272
aVAppleWatch\u3084\u30a6\u30a7\u30a2\u30e9\u30d6\u30eb\u30c7\u30d0\u30a4\u30b9\u3001\u4eca\u4ee5\u4e0a\u306b\u666e\u53ca\u3057\u305f\u3089\u4f55\u304c\u8d77\u304d\u308b\uff1f - http://t.co/wzCqS6Pl4r
p273
aV\u300cAPPLEWATCH\u306b\u5bfe\u5fdc\u3057\u305f~\u300d\u304c\u5927\u6749\u3066\u3001\u3001\u3001
p274
aV\u300cAppleWatch\u306b\u5bfe\u5fdc\u3057\u305f~\u300d\u304c\u591a\u3059\u304e\u3066\u3001\u3001\u3001\u3000\u5b9f\u306b\u3046\u3056\u3044
p275
aVAppleWatch\u3092\u4e57\u308a\u8d8a\u3048\u3066\u3001\u4ffa\u306f\u751f\u304d\u308b\u3053\u3068\u3092\u8a31\u3055\u308c\u305f
p276
aVAppleWatch\u3081\u3063\u3061\u3083\u304b\u3063\u3053\u826f\u304b\u3063\u305f\u3089\u3069\u3046\u3057\u3088\u3046\u3082\u306a\u304f\u8cb7\u3044\u305f\u304f\u306a\u308b\u304b\u3082\u3057\u308c\u306a\u3044
p277
aV\u5065\u5eb7\u7ba1\u7406\u30a2\u30d7\u30ea\u3063\u3066\u8a00\u3063\u3066\u826f\u3044\u306e\u304b\u3001\u6b69\u6570\u306a\u3069\u3092\u30ab\u30a6\u30f3\u30c8\u3067\u304d\u308bArgus\u304cApple Watch\u3092\u30b5\u30dd\u30fc\u30c8\u3002#AppleWatch http://t.co/FZI2JGpkMP
p278
aV\u3010AppleWatch\u3011\u6700\u3082\u30d1\u30fc\u30bd\u30ca\u30eb\u306aApple\u306e\u6700\u65b0\u30c6\u30af\u30ce\u30ed\u30b8\u30fc\u3067\u3059\u3002\u9a5a\u304f\u307b\u3069\u65b0\u3057\u3044\u30c6\u30af\u30cb\u30c3\u30af\u3001\u5148\u9032\u6280\u8853\u306e\u6570\u3005\u3092\u3075\u3093\u3060\u3093\u306b\u53d6\u308a\u5165\u308c\u3066\u3044\u307e\u3059\u3002\u5168\u304f\u65b0\u3057\u3044\u4f53\u9a13\u3092\u304a\u5c4a\u3051\u3057\u307e\u3059\u3002Amazon\u3067\u306f\u9b45\u529b\u7684\u306a\u4ed8\u5c5e\u54c1\u3092\u6ce8\u6587\u3067\u304d\u307e\u3059\u2192http://t.co/MMuqzZNS3y\u305d\u306e116
p279
aVTSI\u30db\u30fc\u30eb\u30c7\u30a3\u30f3\u30b0\u30b9\u3001Apple Watch\u306b\u5bfe\u5fdc\u3057\u305fiOS\u7528\u30b7\u30e7\u30c3\u30d4\u30f3\u30b0\u30a2\u30d7\u30ea http://t.co/nxt1ZRe576 #AppleWatch
p280
aVEasyStyle GK\u3001Apple Watch\u306b\u5bfe\u5fdc\u3057\u305fiOS\u7528\u5272\u52d8\u30a2\u30d7\u30ea\u300c\u3044\u3064\u3082\u306e\u96fb\u5353 with \u5272\u52d8\u30a6\u30a9\u30c3\u30c1 1.11\u300d http://t.co/rwjKo2EDCY #AppleWatch
p281
aVApple Watch\u306b\u5bfe\u5fdc\u3057\u305fiOS\u7528\u30dc\u30c8\u30eb\u56de\u3057\u30a2\u30d7\u30ea\u300cSpin O Wrist 1.0\u300d http://t.co/NQsxEQAHme #AppleWatch
p282
aV\u300cApple Watch\u300d\u306e\u30ef\u30fc\u30af\u30b7\u30e7\u30c3\u30d7\u3001Apple Store\u9280\u5ea7\u306724\u65e5\u304b\u3089\u958b\u50ac http://t.co/b3zRzstCnW #AppleWatch
p283
aV\u591a\u6a5f\u80fd\u30ab\u30e1\u30e9\u30a2\u30d7\u30eaProCamera 8\u304cApple Watch\u3092\u30b5\u30dd\u30fc\u30c8\u3002\u6a19\u6e96\u30ab\u30e1\u30e9\u3068\u540c\u69d8\u3001\u30ea\u30e2\u30b3\u30f3\u4ee3\u308f\u308a\u306b\u306a\u308b\u3002#AppleWatch http://t.co/N4WClBAczD
p284
aV\u8155\u6642\u8a08\u306f\u30a4\u30f3\u30d1\u30af\u30c8\u91cd\u8996\u3067\uff01\u000a\u000aAppleWatch\u3082\u3044\u3044\u3051\u3069\u30012980\u5186\u3067\u5f37\u70c8\u30a4\u30f3\u30d1\u30af\u30c8\u306a\u6642\u8a08\u3042\u308a\u307e\u3059\u3088\uff5e http://t.co/DBSRQAgAnT
p285
aVRT @Bondra: AppleWatch\u306f\u5931\u793c\u306a\u306e\u304b\u3069\u3046\u306a\u306e\u304b\u3082\u65e9\u304f\u6c7a\u3081\u3066\u307b\u3057\u3044\u3002\u201c@tabbata \u300c\u30b9\u30de\u30db\u3067\u6642\u9593\u78ba\u8a8d\u300d\u306f\u9867\u5ba2\u306b\u5931\u793c\u306a\u306e\u304b \u300c\u793e\u4f1a\u4eba\u306a\u3093\u3060\u304b\u3089\u8155\u6642\u8a08\u3050\u3089\u3044\u3057\u306a\u3055\u3044\u300d\u306e\u58f0\u3082 #BLOGOS http://t.co/SoN1AXVdO9\u201d
p286
aV\u3042\u3001AppleWatch\u4f7f\u3063\u3066\u307e\u3059\u3002\u304b\u306a\u308a\u3044\u3044\u3002
p287
aVGoogleGlass\u304c\u5165\u529b\u4e3b\u4f53\u306a\u30c7\u30d0\u30a4\u30b9\u3060\u3063\u305f\u306e\u306b\u5bfe\u3057\u3066\u3001AppleWatch\u306f\u30d3\u30e5\u30fc\u30ef\u3068\u3057\u3066\u306e\u6a5f\u80fd\u306b\u7279\u5316\u3057\u3066\u3044\u308b\u306e\u304c\u3044\u3044\u3002
p288
aVApple Watch\u306e\u30d0\u30f3\u30c9\u63a5\u7d9a\u90e8\u306b\u96a0\u3055\u308c\u305f\u7aef\u5b50\u306f\u8a3a\u65ad\u7528\u306e\u30dd\u30fc\u30c8\u3089\u3057\u3044 http://t.co/TsQybma9WN #AppleWatch
p289
aVApple\u3078\u8fd4\u5374\u3059\u308b\u306e\u3068\u540c\u6642\u306bAppleWatch\u8cb7\u3063\u3066\u3057\u307e\u3044\u305d\u3046\u3002
p290
aVJAL\u3001Apple Watch\u5bfe\u5fdc\u30a2\u30d7\u30ea\u3092\u63d0\u4f9b \u300c\u30bf\u30c3\u30c1\uff06\u30b4\u30fc\u300d\u306b\u3082\u5bfe\u5fdc http://t.co/FDi95NvzPw #AppleWatch
p291
aVAppleWatch\u6b32\u3057\u3044\u304c.....\u000a\u6e7f\u75b9\u304c\u51fa\u6765\u308b\u306e\u3067\u3001\u3082\u304630\u5e74\u4f4d\u8155\u6642\u8a08\u306f\u4f7f\u3063\u3066\u306a\u3044\u000a\u30aa\u30fc\u30eb\u30d7\u30e9\u3067\u4f5c\u3063\u3066\u6b32\u3057\u3044\U0001f64f\U0001f3fb\u000a\u53c8\u306f\u88cf\u9762\u306e\u4fdd\u8b77\u30b1\u30fc\u30b9\u304c\u6b32\u3057\u3044(\u7b11) http://t.co/NhdDKwmu1H
p292
aV\u4e57\u63db\u30a2\u30d7\u30ea\u306f\u4ed6\u306b\u3001NAVITIME\u3001Yahoo!\u4e57\u63db\u6848\u5185\u304c\u3059\u3067\u306b\u5bfe\u5fdc\u6e08\u307f\u3002\u3053\u306e\u7a2e\u306e\u30a2\u30d7\u30ea\u306fApple Watch\u3060\u3068\u4fbf\u5229\u305d\u3046\u3002#applewatch http://t.co/uc1lw9ZEED
p293
aVhttp://t.co/rZeklB9Oho AppleWatch\u306f2\u4eba\u306e\u5049\u5927\u306a\u30c7\u30b6\u30a4\u30ca\u30fc\u306b\u3088\u3063\u3066\u4f5c\u3089\u308c\u3066\u3044\u305f
p294
aV#\u30b9\u30de\u30db \u306e#\u30b1\u30fc\u30b9\u3044\u308d\u3044\u308d\u3042\u308a\u307e\u3059\u3002 \u300e\u30b9\u30de\u30db\u30b1\u30fc\u30b9\u300f\u3092\u898b\u308b [\u697d\u5929] http://t.co/xDviUdCyBV #applewatch from instagram http://t.co/nYFxADizF5 http://t.co/otoYimpzA9
p295
aV#\u30b9\u30de\u30db \u306e#\u30b1\u30fc\u30b9\u3044\u308d\u3044\u308d\u3042\u308a\u307e\u3059\u3002 \u300e\u30b9\u30de\u30db\u30b1\u30fc\u30b9\u300f\u3092\u898b\u308b [\u697d\u5929] http://t.co/xDviUdCyBV #applewatch from instagram http://t.co/P9EIjRcoOk http://t.co/Oi8oHYeWCr
p296
aV#\u30b9\u30de\u30db \u306e#\u30b1\u30fc\u30b9\u3044\u308d\u3044\u308d\u3042\u308a\u307e\u3059\u3002 \u300e\u30b9\u30de\u30db\u30b1\u30fc\u30b9\u300f\u3092\u898b\u308b [\u697d\u5929] http://t.co/xDviUdCyBV #applewatch from instagram http://t.co/fQUFePbjan http://t.co/SKTdjUmr5l
p297
aV#\u30b9\u30de\u30db \u306e#\u30b1\u30fc\u30b9\u3044\u308d\u3044\u308d\u3042\u308a\u307e\u3059\u3002 \u300e\u30b9\u30de\u30db\u30b1\u30fc\u30b9\u300f\u3092\u898b\u308b [\u697d\u5929] http://t.co/xDviUdCyBV #applewatch from instagram http://t.co/yIy3YSDUXh http://t.co/Z3S4zUmD6V
p298
aV#\u30b9\u30de\u30db \u306e#\u30b1\u30fc\u30b9\u3044\u308d\u3044\u308d\u3042\u308a\u307e\u3059\u3002 \u300e\u30b9\u30de\u30db\u30b1\u30fc\u30b9\u300f\u3092\u898b\u308b [\u697d\u5929] http://t.co/xDviUdCyBV #applewatch from instagram http://t.co/l7K2z8srq9 http://t.co/1bWMiaaKxS
p299
aV#\u30b9\u30de\u30db \u306e#\u30b1\u30fc\u30b9\u3044\u308d\u3044\u308d\u3042\u308a\u307e\u3059\u3002 \u300e\u30b9\u30de\u30db\u30b1\u30fc\u30b9\u300f\u3092\u898b\u308b [\u697d\u5929] http://t.co/xDviUdCyBV #applewatch from instagram http://t.co/KfbVDxfEFx http://t.co/C1ovjBRgF1
p300
aV#\u30b9\u30de\u30db \u306e#\u30b1\u30fc\u30b9\u3044\u308d\u3044\u308d\u3042\u308a\u307e\u3059\u3002 \u300e\u30b9\u30de\u30db\u30b1\u30fc\u30b9\u300f\u3092\u898b\u308b [\u697d\u5929] http://t.co/xDviUdCyBV #applewatch from instagram http://t.co/Rjhe8iIepi http://t.co/nPxLE7Iy8X
p301
aV#\u30b9\u30de\u30db \u306e#\u30b1\u30fc\u30b9\u3044\u308d\u3044\u308d\u3042\u308a\u307e\u3059\u3002 \u300e\u30b9\u30de\u30db\u30b1\u30fc\u30b9\u300f\u3092\u898b\u308b [\u697d\u5929] http://t.co/xDviUdCyBV #applewatch from instagram http://t.co/SicljqtFxY http://t.co/6XJgTScVS3
p302
aV#\u30b9\u30de\u30db \u306e#\u30b1\u30fc\u30b9\u3044\u308d\u3044\u308d\u3042\u308a\u307e\u3059\u3002 \u300e\u30b9\u30de\u30db\u30b1\u30fc\u30b9\u300f\u3092\u898b\u308b [\u697d\u5929] http://t.co/xDviUdCyBV #applewatch from instagram http://t.co/3kWiiOVsae http://t.co/332p2NIVwT
p303
aV#\u30b9\u30de\u30db \u306e#\u30b1\u30fc\u30b9\u3044\u308d\u3044\u308d\u3042\u308a\u307e\u3059\u3002 \u300e\u30b9\u30de\u30db\u30b1\u30fc\u30b9\u300f\u3092\u898b\u308b [\u697d\u5929] http://t.co/xDviUdCyBV #applewatch from instagram http://t.co/DGMWjM6YCX http://t.co/zo9BrAZA8S
p304
aV#\u30b9\u30de\u30db \u306e#\u30b1\u30fc\u30b9\u3044\u308d\u3044\u308d\u3042\u308a\u307e\u3059\u3002 \u300e\u30b9\u30de\u30db\u30b1\u30fc\u30b9\u300f\u3092\u898b\u308b [\u697d\u5929] http://t.co/xDviUdCyBV #applewatch from instagram http://t.co/pzgWGlowcM http://t.co/jGh6L5gMF1
p305
aVKeynote\u3084PowerPoint\u7528\u306eAppleWatch\u306eVector\u30c7\u30fc\u30bf\u3002\u30d7\u30ec\u30bc\u30f3\u5411\u3051\u306b\u4f7f\u3048\u305d\u3046\u3060\u3002 / \u201cApple Watch Vector UI Kit for Keynote and PowerPoint | Ke\u2026\u201d http://t.co/Q2la6ReZAH
p306
aVAppleWatch\u3069\u30fc\u3059\u3063\u304b\u306a\u30fc(\u8cb7\u3046\u6c17\u7121\u3057)
p307
aV\u6b69\u6570\u8a08\u30a2\u30d7\u30eaStepz\u304cApple Watch\u3092\u30b5\u30dd\u30fc\u30c8\u3002iPhone\u901a\u77e5\u30bb\u30f3\u30bf\u30fc\u306b\u3082\u6b69\u6570\u3092\u8868\u793a\u3057\u3066\u304f\u308c\u3066\u4f55\u6c17\u306b\u4fbf\u5229\u306a\u30a2\u30d7\u30ea\u3067\u3059\u3002#applewatch http://t.co/AEN8j2m0ti
p308
aVAppleWatch\u304c\u30d5\u30a1\u30a4\u30f3\u30c0\u30fc\u3068\u30b7\u30e3\u30c3\u30bf\u30fc\u306b\u306a\u308b\u3063\u3066\u3001\u3053\u308c\u306f\u3082\u3046\u30de\u30c8\u30e2\u306a\u7528\u9014\u3067\u306f\u4f7f\u308f\u308c\u306a\u3044\u6c17\u304c\u3059\u308b\u3093\u3067\u3059\u304c\u3002
p309
aV\u30b9\u30de\u30db\u306b\u7e1b\u3089\u308c\u305f\u304f\u306a\u3044\u4eba\u306fAppleWatch\u8cb7\u3063\u305f\u3089\u3044\u3044\u3068\u304a\u3082\u3046\u3002\u000a\u305d\u3057\u305f\u3089\u3001LINE\u6765\u305f\u3064\u3044\u3067\u306b\u30b9\u30de\u30db\u3067Web\u3059\u308b\u7fd2\u6163\u304c\u7121\u304f\u306a\u308b\u304b\u3089\u3002
p310
aVRT @meeticom: Apple Watch\u306e\u30d0\u30f3\u30c9\u63a5\u7d9a\u90e8\u306b\u96a0\u3055\u308c\u305f\u7aef\u5b50\u306f\u8a3a\u65ad\u7528\u306e\u30dd\u30fc\u30c8\u3089\u3057\u3044 http://t.co/TsQybma9WN #AppleWatch
p311
aV\u90aa\u63a8\u3057\u306a\u3044\u3067\uff01RT @trmd: AppleWatch\u304c\u30d5\u30a1\u30a4\u30f3\u30c0\u30fc\u3068\u30b7\u30e3\u30c3\u30bf\u30fc\u306b\u306a\u308b\u3063\u3066\u3001\u3053\u308c\u306f\u3082\u3046\u30de\u30c8\u30e2\u306a\u7528\u9014\u3067\u306f\u4f7f\u308f\u308c\u306a\u3044\u6c17\u304c\u3059\u308b\u3093\u3067\u3059\u304c\u3002
p312
aVApple Watch\u306e\u5c55\u793a\u30c7\u30a3\u30b9\u30d7\u30ec\u30a4\u304c\u3044\u308d\u3044\u308d\u3059\u3054\u3044 #AppleWatch #\u30ae\u30ba\u30e2\u30fc\u30c9 : \u30ae\u30ba\u30e2\u30fc\u30c9\u30fb\u30b8\u30e3\u30d1\u30f3\u000ahttp://t.co/rtuZb7fu2s
p313
aV#AppleWatch \u306e\u30d0\u30c3\u30c6\u30ea\u30fc\u306e\u8aac\u660e\u306b\u300cApple Watch\u304b\u3089Bluetooth\u7d4c\u7531\u3067\u97f3\u697d\u3092\u518d\u751f\u300d\u3068\u3044\u3046\u8868\u73fe\u304c\u3042\u308b\u3093\u3060\u3051\u3069\u3001\u30ea\u30e2\u30b3\u30f3\u3068\u3057\u3066\u4f7f\u3046\u6642\u3060\u3051\u3067\u306a\u304f\u3001\u518d\u751f\u4e2d\u3082Apple Watch\u306b\u8ca0\u8377\u304c\u304b\u304b\u308b\u306e\u3060\u308d\u3046\u304b\uff1f\u000ahttps://t.co/i7eu0sIOJJ
p314
aVAppleWatch\u306e\u30ec\u30d3\u30e5\u30fc\u8aad\u3093\u3067\u308b\u3051\u3069Bluetooth\u306e\u30a4\u30e4\u30db\u30f3\u3001\u305d\u3093\u306a\u306b\u97f3\u306e\u9045\u308c\u767a\u751f\u3059\u308b\u304b\u30fc\u30fc\uff1f\uff1f\uff1f
p315
aVApple Store\u3001\u300cApple Watch\u300d\u8cfc\u5165\u8005\u5411\u3051\u306b\u7121\u6599\u30ef\u30fc\u30af\u30b7\u30e7\u30c3\u30d7\u3092\u63d0\u4f9b\u3078 http://t.co/HTU9RhjXnX #AppleWatch
p316
aV\u300cApple Pay\u300d\u30012015\u5e74\u5185\u306b\u30ab\u30ca\u30c0\u3067\u30b5\u30fc\u30d3\u30b9\u958b\u59cb\u304b http://t.co/oXCArCbgmN #AppleWatch
p317
aV\u601d\u3044\u5207\u3063\u3066AppleWatch\u306e\u30bf\u30b0\u3092\u4ed8\u3051\u3066\u30c4\u30a4\u30fc\u30c8\u3057\u3066\u307f\u305f\u3002
p318
aV\u30d5\u30a9\u30fc\u30ab\u30eb\u30dd\u30a4\u30f3\u30c8\u3001Apple Watch\u7528\u306e\u5145\u96fb\u30b9\u30bf\u30f3\u30c9 http://t.co/j4RCsyLEb7 #AppleWatch
p319
aV\u65b0\u88fd\u54c1\u767a\u8868\u9593\u8fd1\uff1f\u5358\u306a\u308b\u914d\u9001\u9045\u5ef6\uff1fiMac\u306e\u51fa\u8377\u4e88\u5b9a\u306b\u8b0e\u306e\u9045\u308c\u304c\u767a\u751f http://t.co/VvTm5i5WBf #AppleWatch
p320
aV\u306f\u3066\u306a\u30d6\u30ed\u30b0\u306b\u6295\u7a3f\u3057\u307e\u3057\u305f\u000aAppleWatch\uff08\u30a2\u30c3\u30d7\u30eb\u30a6\u30a9\u30c3\u30c1\uff09\u304c\u4eca\u9031\u672b2015/4/24(\u91d1)\u767a\u58f2\uff01\u5b9f\u8cea\u8cfc\u5165\u5019\u88dc\u306f\u4e00\u822c\u5411\u3051\u306e\u300c\u30a2\u30c3\u30d7\u30eb\u30a6\u30a9\u30c3\u30c1\u300d\u306e\u307f\uff01 - \u30de\u30cd\u30fc\u5831\u9053 MoneyR\u2026\u000ahttp://t.co/5A9CbAdIi0 http://t.co/Q0znMuxyuV
p321
aVhttp://t.co/kJtTt3i3WC AppleWatch\u306f2\u4eba\u306e\u5049\u5927\u306a\u30c7\u30b6\u30a4\u30ca\u30fc\u306b\u3088\u3063\u3066\u4f5c\u3089\u308c\u3066\u3044\u305f
p322
aV\u308c\u3093\u3061\u3087\u3093\u3068\u30d8\u30b9\u30c6\u30a3\u30a2\u795e\u306eAppleWatch\u6642\u8a08\u30a2\u30d7\u30ea\u3092\u4f5c\u308a\u307e\u3057\u305f(^^)\u000aAppleWatch\u306f\u6642\u8a08\u30a2\u30d7\u30ea\u304c\u5168\u7981\u6b62\u3001\u6a19\u6e96\u6642\u8a08\u30a2\u30d7\u30ea\u3067\u80cc\u666f\u753b\u50cf\u3082\u9078\u3079\u306a\u3044\u3068\u306e\u3053\u3068\u306a\u306e\u3067\u3053\u308c\u306f\u81ea\u5206\u5c02\u7528\u3067\u3059\u3002\u3042\u3068\u306fAppleWatch\u304c\u5c4a\u304f\u306e\u3092\u5f85\u3064\u306e\u307f http://t.co/meW2nEa7xC
p323
aV\u5348\u524d\u4e2d\u3001AppleWatch\u3092\u89e6\u3063\u3066\u304d\u305f\u3002\u000aiPhone\u6301\u3061\u306e\u50d5\u306b\u3068\u3063\u3066\u306f\u3059\u3054\u304f\u4fbf\u5229\u306b\u306a\u308a\u305d\u3046\u306b\u611f\u3058\u305f\u304c\u3001\u300c\u8cb7\u3046\u306e\u304b\u300d\u3068\u554f\u308f\u308c\u308c\u3070\u3001\u73fe\u6642\u70b9\u3067\u306f\u5fae\u5999\u3060\u306a\u3041\u301c\u3002\u000a\u767a\u58f2\u65e5\u4ee5\u964d\u3001\u5c11\u3057\u69d8\u5b50\u898b\u3092\u6c7a\u3081\u305f\u6b21\u7b2c\u2026
p324
aVApple Watch Sport\u306e\u8d64\u3044\u30d0\u30f3\u30c9\u304c\u304a\u62ab\u9732\u76ee\u3002\u4eca\u5f8c\u306f\u3088\u308a\u591a\u304f\u306e\u30ab\u30e9\u30d0\u30ea\u304c\u8ffd\u52a0\u3055\u308c\u308b\u5c55\u958b\u304b\u3002 - SKEG*log http://t.co/fA8zFp511o
p325
aV\u4f11\u61a9\u4e2d\u306bAppleWatch\u898b\u306b\u6765\u305f\u3051\u3069\u601d\u3063\u305f\u3088\u308a\u6b32\u3057\u304f\u306a\u308b\u306aw https://t.co/atCXEgwgqV
p326
aV\u6b32\u3057\u3044\u3051\u3069\u3002\u3002\u3002\u9ad8\u3044\uff57 / \u201cAppleWatch\uff08\u30a2\u30c3\u30d7\u30eb\u30a6\u30a9\u30c3\u30c1\uff09\u304c\u4eca\u9031\u672b2015/4/24(\u91d1)\u767a\u58f2\uff01\u5b9f\u8cea\u8cfc\u5165\u5019\u88dc\u306f\u4e00\u822c\u5411\u3051\u306e\u300c\u30a2\u30c3\u30d7\u30eb\u30a6\u30a9\u30c3\u30c1\u300d\u306e\u307f\uff01 - \u30de\u30cd\u30fc\u5831\u9053 MoneyReport\u201d http://t.co/S6mc9MvYyb
p327
aV\u521d\u56de\u51fa\u8377\u304c4/24\uff5e5/8\u3068\u3044\u3046\uff12\u9031\u9593\u3042\u308b\u306e\u304c\u4e0d\u5b89\u3002\u521d\u56de\u51fa\u8377\u3067\u6ce8\u6587\u3057\u305f\u306f\u3044\u3044\u3051\u3069\u3001\u3059\u3050\u5c4a\u304b\u306a\u3044\u3068\u60b2\u3057\u3044\u3067\u3059^^ / \u201cAppleWatch\uff08\u30a2\u30c3\u30d7\u30eb\u30a6\u30a9\u30c3\u30c1\uff09\u304c\u4eca\u9031\u672b2015/4/24(\u91d1)\u767a\u58f2\uff01\u5b9f\u8cea\u8cfc\u5165\u5019\u88dc\u306f\u4e00\u822c\u5411\u3051\u306e\u300c\u30a2\u30c3\u30d7\u30eb\u2026\u201d http://t.co/0cvQ9V8FGW
p328
aVAppleWatch\u304c\u516c\u5f0f\u3067\u3053\u3046\u3044\u3046\u6a5f\u80fd\u3092\u6301\u3063\u305f\u3089\u826f\u3044 /Bluetooth\u30c7\u30d0\u30a4\u30b9\u304cMac\u304b\u3089\u4e00\u5b9a\u4ee5\u4e0a\u96e2\u308c\u305f\u3089\u30b9\u30af\u30ea\u30fc\u30f3\u3092\u30ed\u30c3\u30af\u300eKeycard\u300f http://t.co/TVz1vevjl4 #applemac #feedly
p329
aV@nobi \u3064\u307e\u308a\u30d6\u30e9\u30f3\u30c9\u7269\u306e\u30d5\u30a7\u30a4\u30b9\u304c\u30b9\u30c8\u30a2\u306b\u4e26\u3076\u3068\u304b\u3002\u000a\u50d5\u306f\u9006\u306b\u3001Watch\u306f\u30d7\u30e9\u30c3\u30c8\u30d5\u30a9\u30fc\u30e0\u306b\u306a\u3063\u3066\u3001\u3044\u308d\u3093\u306a\u30d6\u30e9\u30f3\u30c9\u304cAppleWatch\uff08\u5bfe\u5fdc\u6a5f\uff09\u3092\u51fa\u3057\u3066\u6b32\u3057\u3044\u3068\u601d\u3063\u305f\u3051\u3069\u3001Apple\u306f\u305d\u308c\u7d76\u5bfe\u306b\u3084\u308a\u307e\u305b\u3093\u306d\u3002
p330
aV\u3053\u308c\u826f\u304f\u3067\u304d\u3066\u308b\u3002AppleWatch\u8cb7\u3046\u306a\u3089\u6b32\u3057\u3044 /\u5e73\u7f6e\u304d\u30bf\u30a4\u30d7\u306eApple Watch\u7528\u5145\u96fb\u30b9\u30bf\u30f3\u30c9\u300cBLOC Power Bank\u300d\u304c\u767a\u58f2 http://t.co/AxuiKHXjLj #iphone #feedly
p331
aVAppleWatch \u5f53\u9078\u8005\u306b\u4ed8\u968f\u3059\u308b\u8a18\u4e8b\u6295\u7a3f\u306e\u7fa9\u52d9\u30fb\u30fb\u30fb\u000a\u4e0b\u66f8\u304d\u3059\u3089\u9032\u307e\u306a\u3044\uff01\u000a\u4ecaLG\u306e\u4f7f\u3063\u3066\u308b\u3057\u6bd4\u8f03\u3067\u3082\u826f\u3044\u306e\u304b\u306a\uff1f
p332
aViPhone6\u30fb6Plus\u30fbAppleWatch\u306e\u4fee\u7406\u3082\u6e96\u5099\u4e2d\u266b\u000a\u5f53\u5e97\u306a\u3089\u6700\u65b0\u6a5f\u7a2e\u3082\u4fee\u7406\u3067\u304d\u307e\u3059!!\u000a\u30af\u30a4\u30c3\u30af\u5ddd\u5d0e\u99c5\u524d\u5e97\u000ahttp://t.co/E7uLN0AEJF\u000a\u260e0120-913-752\u260e\u000a#iPhone#iphone#iPod touch#iPad
p333
aV\u3068\u3093\u3068\u8208\u5473\u306e\u60f9\u304b\u308c\u306a\u304b\u3063\u305fAppleWatch\u3067\u3059\u304c\u3001\u6d41\u77f3\u306b\u767a\u58f2\u307e\u30671\u9031\u9593\u3092\u5207\u308a\u307e\u3057\u305f\u306e\u3067\u8a71\u984c\u306b\u53c2\u6226\u3057\u3066\u307f\u307e\u3059(^-^)/\u8cb7\u3046\u4eba\u3044\u3063\u3071\u3044\u3044\u308b\u306e\u304b\u306a\u301c(^_^;)\uff1f / \u201cAppleWatch\uff08\u30a2\u30c3\u30d7\u30eb\u30a6\u30a9\u30c3\u30c1\uff09\u304c\u4eca\u9031\u672b20\u2026\u201d http://t.co/3EqMPmLPBR #\u7269\u6b32
p334
aVAppleWatch\u304c\u767a\u8868\u3055\u308c\u305f\u6642\u306e\u50d5\u300cApple\u306f\u30af\u30bd\u300d
p335
aV\u8a18\u4e8b\u66f4\u65b0\u3057\u307e\u3057\u305f\u3002AppleWatch\uff08\u30a2\u30c3\u30d7\u30eb\u30a6\u30a9\u30c3\u30c1\uff09\u304c\u4eca\u9031\u672b2015/4/24(\u91d1)\u767a\u58f2\uff01\u5b9f\u8cea\u8cfc\u5165\u5019\u88dc\u306f\u4e00\u822c\u5411\u3051\u306e\u300c\u30a2\u30c3\u30d7\u30eb\u30a6\u30a9\u30c3\u30c1\u300d\u306e\u307f\uff01 http://t.co/ubY2sB3dxQ
p336
a.