(lp0
V#\u044f\u0431\u043b\u043e\u043a\u043e \u0417\u0432\u0435\u0437\u0434\u043d\u044b\u0435 \u0432\u043e\u0439\u043d\u044b, \u0440\u0435\u0436\u0438\u0441\u0441\u0451\u0440 \u0438 #AppleWatch #\u043d\u043e\u0432\u043e\u0441\u0442\u0438
p1
aV#Apple \u0421 24 \u0430\u043f\u0440\u0435\u043b\u044f Apple \u043f\u0440\u0438\u0433\u043b\u0430\u0448\u0430\u0435\u0442 \u043d\u0430 \u043a\u0443\u0440\u0441\u044b \u043f\u043e \u043e\u0431\u0443\u0447\u0435\u043d\u0438\u044e \u043e\u0441\u043d\u043e\u0432\u0430\u043c \u0440\u0430\u0431\u043e\u0442\u044b \u0441 Apple Watch #\u041d\u043e\u0432\u043e\u0441\u0442\u0438 #applewatch
p2
aV\u0417\u0432\u0435\u0437\u0434\u043d\u044b\u0435 \u0432\u043e\u0439\u043d\u044b, \u0440\u0435\u0436\u0438\u0441\u0441\u0451\u0440 \u0438 Apple Watch #\u0438\u043d\u0442\u0435\u0440\u0435\u0441\u043d\u043e\u0435 #applewatch #\u0437\u043d\u0430\u043c\u0435\u043d\u0438\u0442\u043e\u0441\u0442\u0438 #\u0444\u0438\u043b\u044c\u043c\u044b #\u044d\u0442\u043e\u043b\u044e\u0431\u043e\u043f\u044b\u0442\u043d\u043e
p3
aV\u0421 24 \u0430\u043f\u0440\u0435\u043b\u044f Apple \u043f\u0440\u0438\u0433\u043b\u0430\u0448\u0430\u0435\u0442 \u043d\u0430 \u043a\u0443\u0440\u0441\u044b \u043f\u043e \u043e\u0431\u0443\u0447\u0435\u043d\u0438\u044e \u043e\u0441\u043d\u043e\u0432\u0430\u043c \u0440\u0430\u0431\u043e\u0442\u044b \u0441 Apple Watch #\u043d\u043e\u0432\u043e\u0441\u0442\u0438 #applewatch
p4
aVRT @aaasal2: \u0417\u0432\u0435\u0437\u0434\u043d\u044b\u0435 \u0432\u043e\u0439\u043d\u044b, \u0440\u0435\u0436\u0438\u0441\u0441\u0451\u0440 \u0438 Apple Watch #\u0438\u043d\u0442\u0435\u0440\u0435\u0441\u043d\u043e\u0435 #applewatch #\u0437\u043d\u0430\u043c\u0435\u043d\u0438\u0442\u043e\u0441\u0442\u0438 #\u0444\u0438\u043b\u044c\u043c\u044b #\u044d\u0442\u043e\u043b\u044e\u0431\u043e\u043f\u044b\u0442\u043d\u043e
p5
aVRT @hit_tovar_ru: Apple \u043f\u0440\u0435\u0434\u0441\u0442\u0430\u0432\u0438\u043b\u0430 \u0432 \u041c\u0438\u043b\u0430\u043d\u0435 \u044d\u043a\u0441\u043a\u043b\u044e\u0437\u0438\u0432\u043d\u0443\u044e \u043a\u043e\u043b\u043b\u0435\u043a\u0446\u0438\u044e \u0441\u043f\u043e\u0440\u0442\u0438\u0432\u043d\u044b\u0445 \u0440\u0435\u043c\u0435\u0448\u043a\u043e\u0432 \u0434\u043b\u044f #AppleWatch\u000ahttp://t.co/cvy442W7Bx http://t.co/\u2026
p6
aVRT @hit_tovar_ru: Apple \u043f\u0440\u0435\u0434\u0441\u0442\u0430\u0432\u0438\u043b\u0430 \u0432 \u041c\u0438\u043b\u0430\u043d\u0435 \u044d\u043a\u0441\u043a\u043b\u044e\u0437\u0438\u0432\u043d\u0443\u044e \u043a\u043e\u043b\u043b\u0435\u043a\u0446\u0438\u044e \u0441\u043f\u043e\u0440\u0442\u0438\u0432\u043d\u044b\u0445 \u0440\u0435\u043c\u0435\u0448\u043a\u043e\u0432 \u0434\u043b\u044f #AppleWatch\u000ahttp://t.co/cvy442W7Bx http://t.co/\u2026
p7
aVRT @hit_tovar_ru: Apple \u043f\u0440\u0435\u0434\u0441\u0442\u0430\u0432\u0438\u043b\u0430 \u0432 \u041c\u0438\u043b\u0430\u043d\u0435 \u044d\u043a\u0441\u043a\u043b\u044e\u0437\u0438\u0432\u043d\u0443\u044e \u043a\u043e\u043b\u043b\u0435\u043a\u0446\u0438\u044e \u0441\u043f\u043e\u0440\u0442\u0438\u0432\u043d\u044b\u0445 \u0440\u0435\u043c\u0435\u0448\u043a\u043e\u0432 \u0434\u043b\u044f #AppleWatch\u000ahttp://t.co/cvy442W7Bx http://t.co/\u2026
p8
aVRT @hit_tovar_ru: Apple \u043f\u0440\u0435\u0434\u0441\u0442\u0430\u0432\u0438\u043b\u0430 \u0432 \u041c\u0438\u043b\u0430\u043d\u0435 \u044d\u043a\u0441\u043a\u043b\u044e\u0437\u0438\u0432\u043d\u0443\u044e \u043a\u043e\u043b\u043b\u0435\u043a\u0446\u0438\u044e \u0441\u043f\u043e\u0440\u0442\u0438\u0432\u043d\u044b\u0445 \u0440\u0435\u043c\u0435\u0448\u043a\u043e\u0432 \u0434\u043b\u044f #AppleWatch\u000ahttp://t.co/cvy442W7Bx http://t.co/\u2026
p9
aVRT @hit_tovar_ru: Apple \u043f\u0440\u0435\u0434\u0441\u0442\u0430\u0432\u0438\u043b\u0430 \u0432 \u041c\u0438\u043b\u0430\u043d\u0435 \u044d\u043a\u0441\u043a\u043b\u044e\u0437\u0438\u0432\u043d\u0443\u044e \u043a\u043e\u043b\u043b\u0435\u043a\u0446\u0438\u044e \u0441\u043f\u043e\u0440\u0442\u0438\u0432\u043d\u044b\u0445 \u0440\u0435\u043c\u0435\u0448\u043a\u043e\u0432 \u0434\u043b\u044f #AppleWatch\u000ahttp://t.co/cvy442W7Bx http://t.co/\u2026
p10
aVRT @hit_tovar_ru: Apple \u043f\u0440\u0435\u0434\u0441\u0442\u0430\u0432\u0438\u043b\u0430 \u0432 \u041c\u0438\u043b\u0430\u043d\u0435 \u044d\u043a\u0441\u043a\u043b\u044e\u0437\u0438\u0432\u043d\u0443\u044e \u043a\u043e\u043b\u043b\u0435\u043a\u0446\u0438\u044e \u0441\u043f\u043e\u0440\u0442\u0438\u0432\u043d\u044b\u0445 \u0440\u0435\u043c\u0435\u0448\u043a\u043e\u0432 \u0434\u043b\u044f #AppleWatch\u000ahttp://t.co/cvy442W7Bx http://t.co/\u2026
p11
aV#Apple \u0417\u0432\u0435\u0437\u0434\u043d\u044b\u0435 \u0432\u043e\u0439\u043d\u044b, \u0440\u0435\u0436\u0438\u0441\u0441\u0451\u0440 \u0438 Apple Watch #\u0418\u043d\u0442\u0435\u0440\u0435\u0441\u043d\u043e\u0435 #applewatch
p12
aV\u0422\u043e\u043b\u044c\u043a\u043e \u043d\u0435 #iWatch, \u0430 #AppleWatch. \u0418 \u0434\u0430, \u0431\u0443\u0434\u0435\u0442 18-\u043a\u0430\u0440\u0430\u0442\u043d\u0430\u044f \u0437\u043e\u043b\u043e\u0442\u0430\u044f \u0432\u0435\u0440\u0441\u0438\u044f http://t.co/jPE21DG5nQ
p13
aViPhone \u0421 24 \u0430\u043f\u0440\u0435\u043b\u044f Apple \u043f\u0440\u0438\u0433\u043b\u0430\u0448\u0430\u0435\u0442 \u043d\u0430 \u043a\u0443\u0440\u0441\u044b \u043f\u043e \u043e\u0431\u0443\u0447\u0435\u043d\u0438\u044e \u043e\u0441\u043d\u043e\u0432\u0430\u043c \u0440\u0430\u0431\u043e\u0442\u044b \u0441 Apple Watch \u043d\u043e\u0432\u043e\u0441\u0442\u0438 applewatch
p14
aVRT @tracerbullet007: \u0422\u043e\u043b\u044c\u043a\u043e \u043d\u0435 #iWatch, \u0430 #AppleWatch. \u0418 \u0434\u0430, \u0431\u0443\u0434\u0435\u0442 18-\u043a\u0430\u0440\u0430\u0442\u043d\u0430\u044f \u0437\u043e\u043b\u043e\u0442\u0430\u044f \u0432\u0435\u0440\u0441\u0438\u044f http://t.co/jPE21DG5nQ
p15
aV\u041d\u043e\u0432\u043e\u0441\u0442\u0438 Apple, 107 \u0432\u044b\u043f\u0443\u0441\u043a: WWDC 2015, \u0441\u043d\u0438\u0436\u0435\u043d\u0438\u0435 \u0446\u0435\u043d \u0438 \u043f\u0440\u0435\u0434\u0437\u0430\u043a\u0430\u0437\u044b #AppleWatch \u043e\u0442 @AppleInsider_ru :https://t.co/99X6sJYKzL
p16
aVRT @tracerbullet007: \u0422\u043e\u043b\u044c\u043a\u043e \u043d\u0435 #iWatch, \u0430 #AppleWatch. \u0418 \u0434\u0430, \u0431\u0443\u0434\u0435\u0442 18-\u043a\u0430\u0440\u0430\u0442\u043d\u0430\u044f \u0437\u043e\u043b\u043e\u0442\u0430\u044f \u0432\u0435\u0440\u0441\u0438\u044f http://t.co/jPE21DG5nQ
p17
aVRT @tracerbullet007: \u0422\u043e\u043b\u044c\u043a\u043e \u043d\u0435 #iWatch, \u0430 #AppleWatch. \u0418 \u0434\u0430, \u0431\u0443\u0434\u0435\u0442 18-\u043a\u0430\u0440\u0430\u0442\u043d\u0430\u044f \u0437\u043e\u043b\u043e\u0442\u0430\u044f \u0432\u0435\u0440\u0441\u0438\u044f http://t.co/jPE21DG5nQ
p18
aVRT @tracerbullet007: \u0422\u043e\u043b\u044c\u043a\u043e \u043d\u0435 #iWatch, \u0430 #AppleWatch. \u0418 \u0434\u0430, \u0431\u0443\u0434\u0435\u0442 18-\u043a\u0430\u0440\u0430\u0442\u043d\u0430\u044f \u0437\u043e\u043b\u043e\u0442\u0430\u044f \u0432\u0435\u0440\u0441\u0438\u044f http://t.co/jPE21DG5nQ
p19
aVRT @tracerbullet007: \u0422\u043e\u043b\u044c\u043a\u043e \u043d\u0435 #iWatch, \u0430 #AppleWatch. \u0418 \u0434\u0430, \u0431\u0443\u0434\u0435\u0442 18-\u043a\u0430\u0440\u0430\u0442\u043d\u0430\u044f \u0437\u043e\u043b\u043e\u0442\u0430\u044f \u0432\u0435\u0440\u0441\u0438\u044f http://t.co/jPE21DG5nQ
p20
aVRT @tracerbullet007: \u0422\u043e\u043b\u044c\u043a\u043e \u043d\u0435 #iWatch, \u0430 #AppleWatch. \u0418 \u0434\u0430, \u0431\u0443\u0434\u0435\u0442 18-\u043a\u0430\u0440\u0430\u0442\u043d\u0430\u044f \u0437\u043e\u043b\u043e\u0442\u0430\u044f \u0432\u0435\u0440\u0441\u0438\u044f http://t.co/jPE21DG5nQ
p21
aV#\u044f\u0431\u043b\u043e\u043a\u043e \u0421 24 \u0430\u043f\u0440\u0435\u043b\u044f Apple \u043f\u0440\u0438\u0433\u043b\u0430\u0448\u0430\u0435\u0442 \u043d\u0430 \u043a\u0443\u0440\u0441\u044b \u043f\u043e \u043e\u0431\u0443\u0447\u0435\u043d\u0438\u044e \u043e\u0441\u043d\u043e\u0432\u0430\u043c \u0440\u0430\u0431\u043e\u0442\u044b \u0441 #AppleWatch #\u043d\u043e\u0432\u043e\u0441\u0442\u0438
p22
aVRT @tracerbullet007: \u0422\u043e\u043b\u044c\u043a\u043e \u043d\u0435 #iWatch, \u0430 #AppleWatch. \u0418 \u0434\u0430, \u0431\u0443\u0434\u0435\u0442 18-\u043a\u0430\u0440\u0430\u0442\u043d\u0430\u044f \u0437\u043e\u043b\u043e\u0442\u0430\u044f \u0432\u0435\u0440\u0441\u0438\u044f http://t.co/jPE21DG5nQ
p23
aVRT @tracerbullet007: \u0422\u043e\u043b\u044c\u043a\u043e \u043d\u0435 #iWatch, \u0430 #AppleWatch. \u0418 \u0434\u0430, \u0431\u0443\u0434\u0435\u0442 18-\u043a\u0430\u0440\u0430\u0442\u043d\u0430\u044f \u0437\u043e\u043b\u043e\u0442\u0430\u044f \u0432\u0435\u0440\u0441\u0438\u044f http://t.co/jPE21DG5nQ
p24
aV@wylsacom #applewatch,\u0432\u043e\u0442 \u0442\u0430\u043a\u0430\u044f \u0432\u043e\u0442 \u0440\u0435\u043a\u043b\u0430\u043c\u0430 \u0430\u043a\u0442\u0438\u0432\u043d\u043e \u0441\u044b\u043f\u0435\u0442\u0441\u044f \u043d\u0430 \u043f\u043e\u0447\u0442\u0443. \u041d\u043e\u0432\u044b\u0435 \u043f\u043b\u0430\u0446\u0434\u0430\u0440\u043c\u044b \u0434\u043b\u044f \u0431\u0438\u0437\u043d\u0435\u0441\u0430 \u043a\u0438\u0442\u0430\u0439\u0441\u043a\u0438\u0445 \u0434\u0440\u0443\u0437\u0435\u0439 :) http://t.co/7AX2Ze9JJI
p25
aVRT @GeekSputnikTV: \u041f\u0435\u0440\u0432\u044b\u0435 \u0432\u043f\u0435\u0447\u0430\u0442\u043b\u0435\u043d\u0438\u044f \u043e\u0442 #AppleWatch . \u0418 \u043e \u0442\u043e\u043c \u043a\u0430\u043a\u0443\u044e \u043c\u043e\u0434\u0435\u043b\u044c \u044f \u0432\u044b\u0431\u0440\u0430\u043b. RT \u043d\u0435 \u0441\u0442\u0435\u0441\u043d\u044f\u0439\u0442\u0435\u0441\u044c ;) https://t.co/TStOLWZZkO http://t\u2026
p26
aV\u041f\u0440\u0438\u043b\u043e\u0436\u0435\u043d\u0438\u0435 \u043f\u0440\u0435\u0432\u0440\u0430\u0442\u0438\u0442 #AppleWatch \u0432 \u043f\u0443\u043b\u044c\u0442 \u0443\u043f\u0440\u0430\u0432\u043b\u0435\u043d\u0438\u044f \u0434\u043b\u044f \u0442\u0435\u043b\u0435\u0432\u0438\u0437\u043e\u0440\u0430\u000ahttp://t.co/EOPNf0KhZY http://t.co/Sd8cw2buS6
p27
aVRT @AppleiPhoneRu: Apple \u0440\u0430\u0441\u0441\u043a\u0430\u0437\u0430\u043b\u0430 \u043e \u0444\u0443\u043d\u043a\u0446\u0438\u044f\u0445 Apple Watch \u0434\u043b\u044f \u043b\u044e\u0434\u0435\u0439 \u0441 \u043e\u0433\u0440\u0430\u043d\u0438\u0447\u0435\u043d\u043d\u044b\u043c\u0438 \u0432\u043e\u0437\u043c\u043e\u0436\u043d\u043e\u0441\u0442\u044f\u043c\u0438 - http://t.co/Q26FSssOLR #AppleWatch htt\u2026
p28
aV\u041c\u044b \u0432 \u044d\u0444\u0438\u0440\u0435. \u041f\u0440\u044f\u043c\u0430\u044f \u0442\u0440\u0430\u043d\u0441\u043b\u044f\u0446\u0438\u044f \u043f\u0440\u0435\u0437\u0435\u043d\u0442\u0430\u0446\u0438\u0438 Apple: #Apple #AppleWatch http://t.co/o0orJKY7kI
p29
aVRT @SieTheG: \u041c\u044b \u0432 \u044d\u0444\u0438\u0440\u0435. \u041f\u0440\u044f\u043c\u0430\u044f \u0442\u0440\u0430\u043d\u0441\u043b\u044f\u0446\u0438\u044f \u043f\u0440\u0435\u0437\u0435\u043d\u0442\u0430\u0446\u0438\u0438 Apple: #Apple #AppleWatch http://t.co/o0orJKY7kI
p30
a.