(lp0
VRT @Mostafaa_Kamell: \u0623\u0646 \u0645\u0634 \u0639\u0627\u064a\u0632 \u0627\u0631\u062a\u0628\u0637 \u0628\u0648\u062d\u062f\u0629 \u0627\u0644\u0627 \u0644\u0645\u0627 \u064a\u0643\u0648\u0646 \u0639\u0646\u062f\u0647\u0627 \u0627\u0644\u0645\u0642\u062f\u0631\u0629 \u062a\u062c\u064a\u0628\u0644\u064a \u0647\u062f\u064a\u0629 \u0632\u064a \u062f\u0629 :) \U0001f339\u2764\ufe0f \u000a\u0627\u062a\u0641\u0642\u0646\u0627 !\u061f\u061f\u000a#AppleWatch \U0001f602 http://t.co/UrBje\u2026
p1
aV\u0645\u062d\u0644\u0644 \u064a\u0642\u0648\u0644 \u0627\u0646 \u0633\u0627\u0639\u0629 \u0627\u0628\u0644 \u0633\u062a\u0643\u0648\u0646 \u0627\u0644\u0645\u0646\u062a\u062c \u0627\u0644\u0627\u0643\u062b\u0631 \u0627\u0631\u0628\u0627\u062d \u0641\u064a \u0627\u0644\u0645\u0633\u062a\u0642\u0628\u0644 \u0644\u062f\u0649 \u0634\u0631\u0643\u0629 \u0627\u0628\u0644.\u000a#\u062a\u0642\u0646\u064a\u0629 #\u0627\u0628\u0644  #applewatch http://t.co/gdmviTLvDG
p2
aV@AppleGreener1 \u000a\u0635\u0648\u0631\u0629 \u0644\u0627\u0633\u062a\u062e\u062f\u0627\u0645 \u0627\u0644\u0627\u0646\u0633\u062a\u0642\u0631\u0627\u0645 \u0639\u0644\u0649 \u0627\u0644\u0633\u0627\u0639\u0629 http://t.co/xVre94ynED\u000a#\u0627\u0628\u0644\u000a#AppleWatch \u000a#\u062c\u0631\u064a\u0646\u0631 #\u0634\u0627\u0626\u0639\u0627\u062a_\u0645\u0646_\u0632\u0645\u0646_\u0641\u0627\u062a
p3
aV@AppleGreener1 \u062a\u062d\u062f\u064a\u062f \u0645\u0648\u0642\u0639 \u0633\u064a\u0627\u0631\u062a\u0643 \u0628\u0648\u0627\u0633\u0637\u0629 \u0633\u0627\u0639\u0629 \u0627\u0628\u0644 \u0648\u062a\u062d\u062f\u064a\u062f \u0645\u062f\u0629 \u0627\u0644\u0648\u0635\u0648\u0644 \u0627\u0644\u064a\u0647\u0627\u000a#\u0645\u0624\u062a\u0645\u0631_\u0627\u0628\u0644 \u000a#\u0627\u0628\u0644 #\u0634\u0627\u0626\u0639\u0627\u062a_\u0645\u0646_\u0632\u0645\u0646_\u0641\u0627\u062a\u000a#\u062c\u0631\u064a\u0646\u0631 \u000a#AppleWatch
p4
aV@AppleGreener1 \u062a\u062d\u062f\u064a\u062f \u0645\u0648\u0642\u0639 \u0633\u064a\u0627\u0631\u062a\u0643 \u0628\u0648\u0627\u0633\u0637\u0629 \u0633\u0627\u0639\u0629 \u0627\u0628\u0644 \u0648\u062a\u062d\u062f\u064a\u062f \u0645\u062f\u0629 \u0627\u0644\u0648\u0635\u0648\u0644 \u0627\u0644\u064a\u0647\u0627\u000a#\u0645\u0624\u062a\u0645\u0631_\u0627\u0628\u0644 \u000a#\u0627\u0628\u0644 #\u0627\u0644\u0631\u064a\u0627\u0636_\u0644\u0627\u064a\u0641\u000a#\u062c\u0631\u064a\u0646\u0631 \u000a#AppleWatch
p5
aV@AppleGreener1 \u000a\u0635\u0648\u0631\u0629 \u0644\u0627\u0633\u062a\u062e\u062f\u0627\u0645 \u0627\u0644\u0627\u0646\u0633\u062a\u0642\u0631\u0627\u0645 \u0639\u0644\u0649 \u0627\u0644\u0633\u0627\u0639\u0629 http://t.co/xVre94ynED\u000a#\u0627\u0628\u0644\u000a#AppleWatch \u000a#\u062c\u0631\u064a\u0646\u0631 #\u0627\u0644\u0631\u064a\u0627\u0636_\u0644\u0627\u064a\u0641
p6
aV@AppleGreener1 \u062a\u062d\u062f\u064a\u062f \u0645\u0648\u0642\u0639 \u0633\u064a\u0627\u0631\u062a\u0643 \u0628\u0648\u0627\u0633\u0637\u0629 \u0633\u0627\u0639\u0629 \u0627\u0628\u0644 \u0648\u062a\u062d\u062f\u064a\u062f \u0645\u062f\u0629 \u0627\u0644\u0648\u0635\u0648\u0644 \u0627\u0644\u064a\u0647\u0627\u000a#\u0645\u0624\u062a\u0645\u0631_\u0627\u0628\u0644 \u000a#\u0627\u0628\u0644 #\u0627\u0644\u0647\u0644\u0627\u0644_\u0627\u0644\u0627\u062a\u062d\u0627\u062f\u000a#\u062c\u0631\u064a\u0646\u0631 \u000a#AppleWatch
p7
aV@AppleGreener1 \u000a\u0635\u0648\u0631\u0629 \u0644\u0627\u0633\u062a\u062e\u062f\u0627\u0645 \u0627\u0644\u0627\u0646\u0633\u062a\u0642\u0631\u0627\u0645 \u0639\u0644\u0649 \u0627\u0644\u0633\u0627\u0639\u0629 http://t.co/xVre94ynED\u000a#\u0627\u0628\u0644\u000a#AppleWatch \u000a#\u062c\u0631\u064a\u0646\u0631 #\u062d\u0627\u062c\u0627\u062a_\u0645\u062a\u062a\u0639\u0648\u0636\u0634
p8
aV@AppleGreener1 \u062a\u062d\u062f\u064a\u062f \u0645\u0648\u0642\u0639 \u0633\u064a\u0627\u0631\u062a\u0643 \u0628\u0648\u0627\u0633\u0637\u0629 \u0633\u0627\u0639\u0629 \u0627\u0628\u0644 \u0648\u062a\u062d\u062f\u064a\u062f \u0645\u062f\u0629 \u0627\u0644\u0648\u0635\u0648\u0644 \u0627\u0644\u064a\u0647\u0627\u000a#\u0645\u0624\u062a\u0645\u0631_\u0627\u0628\u0644 \u000a#\u0627\u0628\u0644 #\u062d\u0627\u062c\u0627\u062a_\u0645\u062a\u062a\u0639\u0648\u0636\u0634\u000a#\u062c\u0631\u064a\u0646\u0631 \u000a#AppleWatch
p9
aV@AppleGreener1 \u000a\u0635\u0648\u0631\u0629 \u0644\u0627\u0633\u062a\u062e\u062f\u0627\u0645 \u0627\u0644\u0627\u0646\u0633\u062a\u0642\u0631\u0627\u0645 \u0639\u0644\u0649 \u0627\u0644\u0633\u0627\u0639\u0629 http://t.co/xVre94ynED\u000a#\u0627\u0628\u0644\u000a#AppleWatch \u000a#\u062c\u0631\u064a\u0646\u0631 #\u062d\u0642\u064a\u0642\u0647_\u0627\u062f\u0631\u0643\u062a\u0647\u0627_\u0628\u062a\u0648\u064a\u062a\u0631
p10
aV@AppleGreener1 \u062a\u062d\u062f\u064a\u062f \u0645\u0648\u0642\u0639 \u0633\u064a\u0627\u0631\u062a\u0643 \u0628\u0648\u0627\u0633\u0637\u0629 \u0633\u0627\u0639\u0629 \u0627\u0628\u0644 \u0648\u062a\u062d\u062f\u064a\u062f \u0645\u062f\u0629 \u0627\u0644\u0648\u0635\u0648\u0644 \u0627\u0644\u064a\u0647\u0627\u000a#\u0645\u0624\u062a\u0645\u0631_\u0627\u0628\u0644 \u000a#\u0627\u0628\u0644\u000a#\u062c\u0631\u064a\u0646\u0631 #\u062d\u0642\u064a\u0642\u0647_\u0627\u062f\u0631\u0643\u062a\u0647\u0627_\u0628\u062a\u0648\u064a\u062a\u0631\u000a#AppleWatch
p11
aV@AppleGreener1 \u000a\u0635\u0648\u0631\u0629 \u0644\u0627\u0633\u062a\u062e\u062f\u0627\u0645 \u0627\u0644\u0627\u0646\u0633\u062a\u0642\u0631\u0627\u0645 \u0639\u0644\u0649 \u0627\u0644\u0633\u0627\u0639\u0629 http://t.co/xVre94ynED\u000a#\u0627\u0628\u0644\u000a#AppleWatch \u000a#\u062c\u0631\u064a\u0646\u0631 #\u0627\u0644\u0647\u0644\u0627\u0644_\u0627\u0644\u0627\u062a\u062d\u0627\u062f
p12
aV@AppleGreener1 \u000a\u0635\u0648\u0631\u0629 \u0644\u0627\u0633\u062a\u062e\u062f\u0627\u0645 \u0627\u0644\u0627\u0646\u0633\u062a\u0642\u0631\u0627\u0645 \u0639\u0644\u0649 \u0627\u0644\u0633\u0627\u0639\u0629 http://t.co/xVre94ynED\u000a#\u0627\u0628\u0644 #\u0627\u0645\u0631\u0627\u0647_\u064a\u0643\u0631\u0647\u0647\u0627_\u0627\u0644\u0631\u062c\u0627\u0644\u000a#AppleWatch \u000a#\u062c\u0631\u064a\u0646\u0631
p13
aV@AppleGreener1 \u062a\u062d\u062f\u064a\u062f \u0645\u0648\u0642\u0639 \u0633\u064a\u0627\u0631\u062a\u0643 \u0628\u0648\u0627\u0633\u0637\u0629 \u0633\u0627\u0639\u0629 \u0627\u0628\u0644 \u0648\u062a\u062d\u062f\u064a\u062f \u0645\u062f\u0629 \u0627\u0644\u0648\u0635\u0648\u0644 \u0627\u0644\u064a\u0647\u0627\u000a#\u0645\u0624\u062a\u0645\u0631_\u0627\u0628\u0644 \u000a#\u0627\u0628\u0644 #\u0627\u0645\u0631\u0627\u0647_\u064a\u0643\u0631\u0647\u0647\u0627_\u0627\u0644\u0631\u062c\u0627\u0644\u000a#\u062c\u0631\u064a\u0646\u0631 \u000a#AppleWatch
p14
aV\u062a\u0642\u0646\u064a\u0629 | \u062d\u062c\u0632 \u0645\u0644\u064a\u0648\u0646 \u0633\u0627\u0639\u0629 \u0645\u0646 \u201c\u0622\u0628\u0644 \u0648\u0627\u062a\u0634\u201d \u0642\u0628\u0644 \u0637\u0631\u062d\u0647\u0627 \u0644\u0644\u0628\u064a\u0639\u000a\u000ahttp://t.co/phJ9BHUnNS\u000a\u000a#\u062a\u0642\u0646\u064a\u0629 #\u0623\u0628\u0644 #applewatch #Apple
p15
aVRT @twasulnews: \u062a\u0642\u0646\u064a\u0629 | \u062d\u062c\u0632 \u0645\u0644\u064a\u0648\u0646 \u0633\u0627\u0639\u0629 \u0645\u0646 \u201c\u0622\u0628\u0644 \u0648\u0627\u062a\u0634\u201d \u0642\u0628\u0644 \u0637\u0631\u062d\u0647\u0627 \u0644\u0644\u0628\u064a\u0639\u000a\u000ahttp://t.co/phJ9BHUnNS\u000a\u000a#\u062a\u0642\u0646\u064a\u0629 #\u0623\u0628\u0644 #applewatch #Apple
p16
aVRT @twasulnews: \u062a\u0642\u0646\u064a\u0629 | \u062d\u062c\u0632 \u0645\u0644\u064a\u0648\u0646 \u0633\u0627\u0639\u0629 \u0645\u0646 \u201c\u0622\u0628\u0644 \u0648\u0627\u062a\u0634\u201d \u0642\u0628\u0644 \u0637\u0631\u062d\u0647\u0627 \u0644\u0644\u0628\u064a\u0639\u000a\u000ahttp://t.co/phJ9BHUnNS\u000a\u000a#\u062a\u0642\u0646\u064a\u0629 #\u0623\u0628\u0644 #applewatch #Apple
p17
aVRT @twasulnews: \u062a\u0642\u0646\u064a\u0629 | \u062d\u062c\u0632 \u0645\u0644\u064a\u0648\u0646 \u0633\u0627\u0639\u0629 \u0645\u0646 \u201c\u0622\u0628\u0644 \u0648\u0627\u062a\u0634\u201d \u0642\u0628\u0644 \u0637\u0631\u062d\u0647\u0627 \u0644\u0644\u0628\u064a\u0639\u000a\u000ahttp://t.co/phJ9BHUnNS\u000a\u000a#\u062a\u0642\u0646\u064a\u0629 #\u0623\u0628\u0644 #applewatch #Apple
p18
aVRT @twasulnews: \u062a\u0642\u0646\u064a\u0629 | \u062d\u062c\u0632 \u0645\u0644\u064a\u0648\u0646 \u0633\u0627\u0639\u0629 \u0645\u0646 \u201c\u0622\u0628\u0644 \u0648\u0627\u062a\u0634\u201d \u0642\u0628\u0644 \u0637\u0631\u062d\u0647\u0627 \u0644\u0644\u0628\u064a\u0639\u000a\u000ahttp://t.co/phJ9BHUnNS\u000a\u000a#\u062a\u0642\u0646\u064a\u0629 #\u0623\u0628\u0644 #applewatch #Apple
p19
aVRT @twasulnews: \u062a\u0642\u0646\u064a\u0629 | \u062d\u062c\u0632 \u0645\u0644\u064a\u0648\u0646 \u0633\u0627\u0639\u0629 \u0645\u0646 \u201c\u0622\u0628\u0644 \u0648\u0627\u062a\u0634\u201d \u0642\u0628\u0644 \u0637\u0631\u062d\u0647\u0627 \u0644\u0644\u0628\u064a\u0639\u000a\u000ahttp://t.co/phJ9BHUnNS\u000a\u000a#\u062a\u0642\u0646\u064a\u0629 #\u0623\u0628\u0644 #applewatch #Apple
p20
aVRT @twasulnews: \u062a\u0642\u0646\u064a\u0629 | \u062d\u062c\u0632 \u0645\u0644\u064a\u0648\u0646 \u0633\u0627\u0639\u0629 \u0645\u0646 \u201c\u0622\u0628\u0644 \u0648\u0627\u062a\u0634\u201d \u0642\u0628\u0644 \u0637\u0631\u062d\u0647\u0627 \u0644\u0644\u0628\u064a\u0639\u000a\u000ahttp://t.co/phJ9BHUnNS\u000a\u000a#\u062a\u0642\u0646\u064a\u0629 #\u0623\u0628\u0644 #applewatch #Apple
p21
aVRT @twasulnews: \u062a\u0642\u0646\u064a\u0629 | \u062d\u062c\u0632 \u0645\u0644\u064a\u0648\u0646 \u0633\u0627\u0639\u0629 \u0645\u0646 \u201c\u0622\u0628\u0644 \u0648\u0627\u062a\u0634\u201d \u0642\u0628\u0644 \u0637\u0631\u062d\u0647\u0627 \u0644\u0644\u0628\u064a\u0639\u000a\u000ahttp://t.co/phJ9BHUnNS\u000a\u000a#\u062a\u0642\u0646\u064a\u0629 #\u0623\u0628\u0644 #applewatch #Apple
p22
aV@AppleGreener1 \u062a\u062d\u062f\u064a\u062f \u0645\u0648\u0642\u0639 \u0633\u064a\u0627\u0631\u062a\u0643 \u0628\u0648\u0627\u0633\u0637\u0629 \u0633\u0627\u0639\u0629 \u0627\u0628\u0644 \u0648\u062a\u062d\u062f\u064a\u062f \u0645\u062f\u0629 \u0627\u0644\u0648\u0635\u0648\u0644 \u0627\u0644\u064a\u0647\u0627\u000a#\u0645\u0624\u062a\u0645\u0631_\u0627\u0628\u0644 \u000a#\u0627\u0628\u0644\u000a#\u062c\u0631\u064a\u0646\u0631 #\u062c\u0645\u0627\u0644_\u0627\u0644\u0627\u0646\u062b\u064a_\u064a\u0632\u064a\u062f_\u0641\u064a\u000a#AppleWatch
p23
aV@AppleGreener1 \u000a\u0635\u0648\u0631\u0629 \u0644\u0627\u0633\u062a\u062e\u062f\u0627\u0645 \u0627\u0644\u0627\u0646\u0633\u062a\u0642\u0631\u0627\u0645 \u0639\u0644\u0649 \u0627\u0644\u0633\u0627\u0639\u0629 http://t.co/xVre94ynED\u000a#\u0627\u0628\u0644\u000a#AppleWatch \u000a#\u062c\u0631\u064a\u0646\u0631 #\u062c\u0645\u0627\u0644_\u0627\u0644\u0627\u0646\u062b\u064a_\u064a\u0632\u064a\u062f_\u0641\u064a
p24
aV@AppleGreener1\u000a \u062a\u062d\u062f\u064a\u062f \u0645\u0648\u0642\u0639 \u0633\u064a\u0627\u0631\u062a\u0643 \u0628\u0648\u0627\u0633\u0637\u0629 \u0633\u0627\u0639\u0629 \u0627\u0628\u0644 \u0648\u062a\u062d\u062f\u064a\u062f \u0645\u062f\u0629 \u0627\u0644\u0648\u0635\u0648\u0644 \u0627\u0644\u064a\u0647\u0627\u000a#\u0645\u0624\u062a\u0645\u0631_\u0627\u0628\u0644 #\u062c\u0631\u064a\u0646\u0631 #\u0627\u0628\u0644\u000a\u000a #\u0639\u0627\u0635\u0641\u0629_\u0627\u0644\u062d\u0632\u0645\u000a#AppleWatch
p25
aV@AppleGreener1\u000a \u062a\u062d\u062f\u064a\u062f \u0645\u0648\u0642\u0639 \u0633\u064a\u0627\u0631\u062a\u0643 \u0628\u0648\u0627\u0633\u0637\u0629 \u0633\u0627\u0639\u0629 \u0627\u0628\u0644 \u0648\u062a\u062d\u062f\u064a\u062f \u0645\u062f\u0629 \u0627\u0644\u0648\u0635\u0648\u0644 \u0627\u0644\u064a\u0647\u0627\u000a#\u0645\u0624\u062a\u0645\u0631_\u0627\u0628\u0644 #\u062c\u0631\u064a\u0646\u0631 #\u0627\u0628\u0644\u000a\u000a #\u062b\u0644\u0627\u062b\u0647_\u0645\u0627\u0627\u062d\u0628\u0647\u0645\u000a#AppleWatch
p26
aVRT @noorr43: @AppleGreener1\u000a \u062a\u062d\u062f\u064a\u062f \u0645\u0648\u0642\u0639 \u0633\u064a\u0627\u0631\u062a\u0643 \u0628\u0648\u0627\u0633\u0637\u0629 \u0633\u0627\u0639\u0629 \u0627\u0628\u0644 \u0648\u062a\u062d\u062f\u064a\u062f \u0645\u062f\u0629 \u0627\u0644\u0648\u0635\u0648\u0644 \u0627\u0644\u064a\u0647\u0627\u000a#\u0645\u0624\u062a\u0645\u0631_\u0627\u0628\u0644 #\u062c\u0631\u064a\u0646\u0631 #\u0627\u0628\u0644\u000a\u000a #\u0639\u0627\u0635\u0641\u0629_\u0627\u0644\u062d\u0632\u0645\u000a#AppleWatch
p27
aV@AppleGreener1 \u000a\u0635\u0648\u0631\u0629 \u0644\u0627\u0633\u062a\u062e\u062f\u0627\u0645 \u0627\u0644\u0627\u0646\u0633\u062a\u0642\u0631\u0627\u0645 \u0639\u0644\u0649 \u0627\u0644\u0633\u0627\u0639\u0629 http://t.co/xVre94ynED\u000a#\u0627\u0628\u0644 #\u062c\u0631\u064a\u0646\u0631 #\u0639\u0627\u0635\u0641\u0629_\u0627\u0644\u062d\u0632\u0645\u000a#AppleWatch
p28
aV@AppleGreener1\u000a \u062a\u062d\u062f\u064a\u062f \u0645\u0648\u0642\u0639 \u0633\u064a\u0627\u0631\u062a\u0643 \u0628\u0648\u0627\u0633\u0637\u0629 \u0633\u0627\u0639\u0629 \u0627\u0628\u0644 \u0648\u062a\u062d\u062f\u064a\u062f \u0645\u062f\u0629 \u0627\u0644\u0648\u0635\u0648\u0644 \u0627\u0644\u064a\u0647\u0627\u000a#\u0645\u0624\u062a\u0645\u0631_\u0627\u0628\u0644 #\u062c\u0631\u064a\u0646\u0631 #\u0627\u0628\u0644\u000a\u000a #\u0627\u0644\u0634\u0628\u0627\u0628_\u0646\u0641\u0637_\u0637\u0647\u0631\u0627\u0646\u000a#AppleWatch
p29
aV@AppleGreener1\u000a \u062a\u062d\u062f\u064a\u062f \u0645\u0648\u0642\u0639 \u0633\u064a\u0627\u0631\u062a\u0643 \u0628\u0648\u0627\u0633\u0637\u0629 \u0633\u0627\u0639\u0629 \u0627\u0628\u0644 \u0648\u062a\u062d\u062f\u064a\u062f \u0645\u062f\u0629 \u0627\u0644\u0648\u0635\u0648\u0644 \u0627\u0644\u064a\u0647\u0627\u000a#\u0645\u0624\u062a\u0645\u0631_\u0627\u0628\u0644 #\u062c\u0631\u064a\u0646\u0631 #\u0627\u0628\u0644\u000a\u000a #\u0634\u064a_\u064a\u0641\u062a\u062d_\u0627\u0644\u0646\u0641\u0633_\u0627\u0644\u062d\u064a\u0646\u000a#AppleWatch
p30
aV@AppleGreener1 \u000a\u0635\u0648\u0631\u0629 \u0644\u0627\u0633\u062a\u062e\u062f\u0627\u0645 \u0627\u0644\u0627\u0646\u0633\u062a\u0642\u0631\u0627\u0645 \u0639\u0644\u0649 \u0627\u0644\u0633\u0627\u0639\u0629 http://t.co/xVre94ynED\u000a#\u0627\u0628\u0644 #\u062c\u0631\u064a\u0646\u0631 #\u0627\u0644\u0634\u0628\u0627\u0628_\u0646\u0641\u0637_\u0637\u0647\u0631\u0627\u0646\u000a#AppleWatch
p31
aV@AppleGreener1 \u000a\u0635\u0648\u0631\u0629 \u0644\u0627\u0633\u062a\u062e\u062f\u0627\u0645 \u0627\u0644\u0627\u0646\u0633\u062a\u0642\u0631\u0627\u0645 \u0639\u0644\u0649 \u0627\u0644\u0633\u0627\u0639\u0629 http://t.co/xVre94ynED\u000a#\u0627\u0628\u0644 #\u062c\u0631\u064a\u0646\u0631 #\u062b\u0644\u0627\u062b\u0647_\u0645\u0627\u0627\u062d\u0628\u0647\u0645\u000a#AppleWatch
p32
aV@AppleGreener1 \u000a\u0635\u0648\u0631\u0629 \u0644\u0627\u0633\u062a\u062e\u062f\u0627\u0645 \u0627\u0644\u0627\u0646\u0633\u062a\u0642\u0631\u0627\u0645 \u0639\u0644\u0649 \u0627\u0644\u0633\u0627\u0639\u0629 http://t.co/xVre94ynED\u000a#\u0627\u0628\u0644 #\u062c\u0631\u064a\u0646\u0631 #\u0634\u064a_\u064a\u0641\u062a\u062d_\u0627\u0644\u0646\u0641\u0633_\u0627\u0644\u062d\u064a\u0646\u000a#AppleWatch
p33
aV\u062a\u0642\u0646\u064a\u0629 | \u062d\u062c\u0632 \u0645\u0644\u064a\u0648\u0646 \u0633\u0627\u0639\u0629 \u0645\u0646 \u201c\u0622\u0628\u0644 \u0648\u0627\u062a\u0634\u201d \u0642\u0628\u0644 \u0637\u0631\u062d\u0647\u0627 \u0644\u0644\u0628\u064a\u0639\u000a\u000ahttp://t.co/R2E80A0OgB\u000a\u000a#\u062a\u0642\u0646\u064a\u0629 #\u0623\u0628\u0644 #applewatch #Apple
p34
aVRT @twasulnews: \u062a\u0642\u0646\u064a\u0629 | \u062d\u062c\u0632 \u0645\u0644\u064a\u0648\u0646 \u0633\u0627\u0639\u0629 \u0645\u0646 \u201c\u0622\u0628\u0644 \u0648\u0627\u062a\u0634\u201d \u0642\u0628\u0644 \u0637\u0631\u062d\u0647\u0627 \u0644\u0644\u0628\u064a\u0639\u000a\u000ahttp://t.co/phJ9BHUnNS\u000a\u000a#\u062a\u0642\u0646\u064a\u0629 #\u0623\u0628\u0644 #applewatch #Apple
p35
aV#\u062c\u064a\u0644\u0628\u0631\u064a\u0643 #\u0633\u064a\u062f\u064a\u0627 #cydia#iphone_6 #iphone#apps_2 #apple#applewatch#\u0628\u0631\u0627\u0645\u062c #\u0628\u0631\u0627\u0645\u062c_\u0627\u0628\u0644 #\u0628\u0631\u0627\u0645\u062c_\u0627\u064a\u0641\u0648\u0646\u2026 https://t.co/PXWYiG1v9a
p36
a.